me:_glClearStencil
DSm:_UInt16_System_IConvertible_ToChar_m2096055221_AdjustorThunk
NZm:_Enumerator_VerifyState_m533306036_gshared
nTk:_Array_TrueForAll_TisRuntimeObject_m1084992726_gshared
t5d:__ZN5physx2Gu19gjkLocalPenetrationINS0_8CapsuleVENS0_17ShrunkConvexHullVEEEjRKT_RKT0_RKNS_6shdfnd3aos6FloatVERNSB_5Vec3VESG_SG_RSC_PhSI_Rhb
yQq:_mbrlen
tcd:__ZNK16PlayableDirector17GetReferenceValueERK12PropertyNamePh
h2i:_PlayerFire_Fire_m1071441489
VEp:_KeyBuilder_get_Rng_m3373220441
vxk:_Array_Sort_TisIntPoint_t2151561958_m907887713_gshared
gjb:__Z30GetIntermediateRendererManagerv
MBj:_MonoMethodMessage_GetArg_m2932717642
zE:__ZN10StateRange8TransferI14SafeBinaryReadEEvRT_
I_a:__Z21SourceMipLevelForBlitiiii
Mnb:__ZN31CanvasBatchIntermediateRenderer15AddAsRenderNodeER15RenderNodeQueueRK20DeprecatedSourceData
Tyk:_Dictionary_2_Do_ICollectionCopyTo_TisInt32_t2950945753_m2590022749_gshared
KPm:_TimeSpan_get_Hours_m550761902
Obq:__ZN6il2cpp6icalls8mscorlib6System8MonoType13IsPointerImplEP20Il2CppReflectionType
C_l:_QualitySettings_get_pixelLightCount_m3013306133
ril:_Water2D_Simulation_GetPolygonAreaAndCentroid_m2364612188
S9q:b116
OTn:_Predicate_1_Invoke_m2389850270_gshared
gfi:__ZL57ParticleSystem_t1800779281_CustomAttributesCacheGeneratorP21CustomAttributesCache
joo:_RuntimeClip_get_start_m3731033543
Bil:_Water2D_Simulation_GenerateRippleBasedOnPosition_m1044421143
rZe:__ZNK5physx2Sc5Scene24getContactModifyCallbackEv
RCg:_Clipper_FirstIsBottomPt_m3252221784
JH:__ZN11UnityEngine9Animation28GenericAnimationBindingCacheD2Ev
x0e:__ZN5physx2Sq10AABBPruner10addObjectsEPjPKNS_9PxBounds3EPKNS0_13PrunerPayloadEj
R7o:_X509Store_LoadCrl_m1881903843
$wk:_Array_Sort_TisUICharInfo_t75501106_TisUICharInfo_t75501106_m722747892_gshared
ZI:__ZN15AnimationBinder13SetFloatValueERK20BoundCurveDeprecatedf
vnq:_il2cpp_runtime_unhandled_exception_policy_set
Dcl:_PolyTree_Clear_m941450497
QUf:__ZN20TextRenderingPrivate21TextMeshGeneratorImpl24GetCursorIndexAtPositionERK5RectTIfERK8Vector2f
DD:__Z61Register_UnityEngine_AI_NavMeshAgent_INTERNAL_set_destinationv
_c:invoke_viiiifiiiiif
Vtc:__Z18RestoreRenderStateR20CameraRenderOldStateR17ShaderPassContext
p4b:__Z18Transfer_BlittableI18StreamedBinaryReadILb1EELb1E5RectTIfEEvRK29SerializationCommandArgumentsR31RuntimeSerializationCommandInfo
h0b:__Z18Transfer_BlittableI24GenerateTypeTreeTransferLb0E11ColorRGBA32EvRK29SerializationCommandArgumentsR31RuntimeSerializationCommandInfo
ISl:_Material_GetVector_m2472259403
a9b:__Z25scripting_class_from_name17ScriptingImagePtrPKcS1_
_Hd:__Z56ParticleSystem_MainModule_CUSTOM_GetStartSizeXMultiplierP12Il2CppObject
IYk:_Array_InternalArray__IndexOf_TisKeyValuePair_2_t3699644050_m1021241249_gshared
ulq:__ZN14dense_hash_mapI10KeyWrapperINSt3__24pairIPK12PropertyInfoP11Il2CppClassEEEj17ReflectionMapHashIS8_ENS9_14EqualsComparerINS1_8equal_toIS8_EEEENS1_9allocatorINS2_IKS9_jEEEEE15set_deleted_keyERSH_
Bac:__Z29scripting_class_enum_basetype17ScriptingClassPtr
Mfe:__ZN5physx6shdfnd8PoolBaseINS_2Sc10NPhaseCore16ClothListElementENS0_19ReflectionAllocatorIS4_EEE17releaseEmptySlabsEv
OSk:_Array_InternalArray__ICollection_Remove_TisColor_t2555686324_m1658001816_gshared
SNd:__ZN16PhysicsManager2D7RaycastERK3RayfiR12RaycastHit2D
zfn:_Enumerator_MoveNext_m3714175425_gshared
ujf:__ZN5physx2Sc14ConstraintCore10breakApartEv
qTg:__Z64RuntimeInvoker_RuntimeObject_Int32_t2950945753_Int16_t2552820387PFvvEPK10MethodInfoPvPS4_
bBq:__ZNSt3__26__treeINS_12basic_stringIcNS_11char_traitsIcEENS_9allocatorIcEEEENS_4lessIS6_EENS4_IS6_EEE16__construct_nodeIJRKS6_EEENS_10unique_ptrINS_11__tree_nodeIS6_PvEENS_22__tree_node_destructorINS4_ISH_EEEEEEDpOT_
zAf:__Z13RegisterClassI15CapsuleColliderEvv
DYk:_Array_InternalArray__IndexOf_TisKeyValuePair_2_t625878672_m2693022864_gshared
Gqk:_InternalEnumerator_1_get_Current_m1477715453_gshared
hzg:_TMP_ExampleScript_01_Update_m1912934944
hVp:_ContactFilter2D_CreateLegacyFilter_m1873816896
ETb:__ZNK20LocalFileSystemPosix6ParentERK13FileEntryDataRN4core12basic_stringIcNS3_20StringStorageDefaultIcEEEE
L1l:_RectTransform_GetWorldCorners_m3553547973
iqf:__ZN5physx7Cooking20loadTriangleMeshDescERKNS_18PxTriangleMeshDescERNS_19TriangleMeshBuilderE
LXp:_CanvasRenderer_SetMesh_m769025979
gCo:_Collection_1_System_Collections_IList_Remove_m1476284619_gshared
yPo:_List_1_Find_m279961672_gshared
j_j:_MonoType_IsPrimitiveImpl_m2401722705
vkm:_SHA1CryptoServiceProvider__ctor_m4195188793
VHn:_ReadOnlyCollection_1_System_Collections_IList_Add_m2426468350_gshared
nlq:__ZN15dense_hashtableINSt3__24pairIK10KeyWrapperINS1_IPK9EventInfoP11Il2CppClassEEEjEES9_17ReflectionMapHashIS8_EN14dense_hash_mapIS9_jSD_NS9_14EqualsComparerINS0_8equal_toIS8_EEEENS0_9allocatorISB_EEE9SelectKeyESI_SK_E15set_deleted_keyERKSB_
Pie:__ZN5physx9NpFactory21releaseConnectorArrayEPNS_16NpConnectorArrayE
nVq:__ZNKSt3__220__time_get_c_storageIwE3__cEv
zmj:_Graphic_get_defaultGraphicMaterial_m3107284931
GCc:__Z13RegisterClassI12InputManagerEvv
scb:__ZN17PersistentManager22CheckInstanceIDsLoadedEPii
C0j:_NumberFormatter_NumberToString_m264078176
JRk:_Array_InternalArray__ICollection_Remove_TisLink_t3209266973_m897088622_gshared
qwp:_Vector2_get_up_m2647420593
mYa:__ZN7ApiGLES17CopyBufferSubDataEjjlll
Tll:_IPAddress_ToString_m1181734207
NCn:_StrongName_InvalidateCache_m4128978353
hwb:__ZNK20ScriptPlayableOutput7GetTypeEv
_Km:_StringBuilder_Append_m1965104174
uQc:__ZNK17AnimationCurveTplI8Vector3fE13EvaluateClampEfPNS1_5CacheE
Qgd:__ZN5Unity9rapidjson15GenericDocumentINS0_4UTF8IcEE13JSONAllocatorS4_E11ParseStreamILj1ES3_NS0_25GenericInsituStringStreamIS3_EEEERS5_RT1_
XOc:__ZN4Mesh18RecalculateNormalsEv
Ndo:_EqualityComparer_1__cctor_m3766928733_gshared
E4i:_HorizontalSwordfishLeft_Start_m2456342544
amc:__ZN25CameraStackRenderingState20GetOrCreateBuiltinRTE24BuiltinRenderTextureTypeii17DepthBufferFormat19RenderTextureFormatj22RenderTextureReadWrite14VRTextureUsagei
yMn:_ReadOnlyCollection_1__ctor_m55759384_gshared
jRq:_wmemmove
DAp:_UnityAction_1_Invoke_m610765085_gshared
DBm:_DateTime__ctor_m2956360140
Oda:__ZN11AudioModule26SetDefaultMicrophoneDriverEPv
jon:_Enumerator_System_Collections_IEnumerator_Reset_m264101130_AdjustorThunk
ZDk:_Kernel_modInverse_m652700340
oDb:__ZNK14Texture2DArray26CanReuploadDataToGfxDeviceEv
pqc:__ZN17PrePassRenderLoop14RenderBasePassEP13RenderTextureRK14LightingLayersR13dynamic_arrayI16RenderObjectDataLj4EERbR10MinMaxAABB
DIn:_ReadOnlyCollection_1_System_Collections_IList_IndexOf_m1354132073_gshared
$dd:__ZN5IMGUI18RepaintModalWindowER8GUIState
FTq:__ZNKSt3__27num_getIwNS_19istreambuf_iteratorIwNS_11char_traitsIwEEEEE6do_getES4_S4_RNS_8ios_baseERjRPv
TXi:_ProCamera2DRooms_TestRoomRoutine_m1985029996
Mfd:__Z47Register_UnityEngine_GUI_INTERNAL_CALL_DoTogglev
Wwa:__ZNK15dense_hashtableINSt3__24pairIKN9ShaderLab7Program23ShaderKeywordSetAndHashEPKNS2_10SubProgramEEES4_NS3_24ShaderKeywordHashFunctorEN14dense_hash_mapIS4_S8_SA_NS0_8equal_toIS4_EE13stl_allocatorIS9_L18MemLabelIdentifier67ELi16EEE9SelectKeyESD_SG_E23find_position_with_hashERS5_j
d6l:_CompareInfo_Finalize_m404687489
ZBb:__Z23SetSpriteMeshIndexCountP14SharedMeshDataj
WMm:_UTF8Decoder_GetChars_m1236346907
Atp:_TouchScreenKeyboard_Open_m231964201
Stb:__ZN7Texture13SetFilterModeEi
Xo:FUNCTION_TABLE_iiifffffi
UCq:__ZN6il2cpp8metadata13GenericMethod9GetMethodEPK19Il2CppGenericMethod
yw:__ZNSt3__26vectorIN4core12basic_stringIcNS1_20StringStorageDefaultIcEEEENS_9allocatorIS5_EEE7reserveEj
$2j:_Default_SelectProperty_m1220817815
aEj:_RemotingConfiguration_IsRemotelyActivatedClientType_m4117048589
Uup:_Transform_TransformPoint_m226827784
fSa:__ZN13GfxDeviceGLES11SetViewportERK5RectTIiE
iFd:__Z19UpdateSingleRow2TplIL27ParticleSystemCurveEvalMode3ELS0_2EEvfRK11MinMaxCurveS3_RK23ParticleSystemParticlesPfbiii
K3c:__Z24Time_Get_Custom_PropTimev
Lc:invoke_vifiiii
Mf:_emscripten_glDepthRange
IOk:_SslStreamBase_BeginNegotiateHandshake_m4180435790
Xcg:_TMP_Dropdown_set_itemImage_m2922026312
r0d:__ZN5physx2Gu24contactConvexHeightfieldERKNS0_13GeometryUnionES3_RKNS_11PxTransformES6_RKfRNS0_5CacheERNS0_13ContactBufferE
qke:__ZN5physx6shdfnd5ArrayIPvNS0_19ReflectionAllocatorINS_2Cm5BlockIS2_Lj8EEEEEE15growAndPushBackERKS2_
iwc:__ZNSt3__26vectorINS_4pairIN4core12basic_stringIcNS2_20StringStorageDefaultIcEEEES6_EE13stl_allocatorIS7_L18MemLabelIdentifier38ELi16EEE12__move_rangeEPS7_SC_SC_
pLa:__Z14resize_trimmedINSt3__26vectorIN9ShaderLab20SerializedSubProgram12UAVParameterENS0_9allocatorIS4_EEEEEvRT_j
ihd:__ZN5Unity9rapidjson13GenericReaderINS0_4UTF8IcEES3_13JSONAllocatorE11ParseObjectILj1ENS0_25GenericInsituStringStreamIS3_EENS0_15GenericDocumentIS3_S4_S4_EEEEvRT0_RT1_
jOc:__Z10DestripifyPKjjRNSt3__26vectorIj13stl_allocatorIjL18MemLabelIdentifier1ELi16EEEE
Pfj:_StandaloneInputModule_GetRawMoveVector_m2737091079
aRc:__ZN13BuildSettings34ConvertScenePathToDisplayScenePathERKN4core12basic_stringIcNS0_20StringStorageDefaultIcEEEE
Rpi:__ZL62Selectable_t3250028441_CustomAttributesCacheGenerator_m_ColorsP21CustomAttributesCache
zxm:_Convert_ToDateTime_m2616935982
dan:_Dictionary_2_System_Collections_Generic_ICollectionU3CSystem_Collections_Generic_KeyValuePairU3CTKeyU2CTValueU3EU3E_Add_m1230387949_gshared
_Ok:_SslStreamBase_EndWrite_m4073224031
tua:__ZNSt3__218__insertion_sort_3IRNS_6__lessI14ObjectLoadDataS2_EEPS2_EEvT0_S6_T_
Vng:_TMP_Text_get_fontSize_m3754877700
c_a:__ZN4crndL20crnd_default_reallocEPvjPjbS0_
AZq:__ZNSt3__26locale5__imp7installINS_9money_putIwNS_19ostreambuf_iteratorIwNS_11char_traitsIwEEEEEEEEvPT_
A8e:__ZN5physx24PxsComputeAABBLocalSpaceERKNS_18PxcAABBDataDynamicERNS_9PxBounds3E
PCb:__ZN18SpriteAtlasManager19AddRequestingSpriteE4PPtrI6SpriteE
mOc:__ZN16PackedQuatVector9PackQuatsEP11Quaternionfi
f4m:_Transform_1_BeginInvoke_m2558650206_gshared
X2c:__Z33Texture_CUSTOM_Internal_GetHeightP12Il2CppObject
GJc:__Z20IsValidRealtimeLightRK15SharedLightData9LightTypej
MXj:_UnmanagedMemoryStream_Write_m930787521
_sc:__ZN23ScriptableRenderContextC2Ev
KM:__ZN7mecanim9animation18ClipMuscleConstant8TransferI24GenerateTypeTreeTransferEEvRT_
U5m:_Enumerator_MoveNext_m3051926902_gshared
ern:_List_1_CheckIndex_m581273900_gshared
boo:_PlayableTrack_OnCreateClipFromAsset_m1292991533
AOf:_UNITY_FT_Stream_GetChar
Nop:_GUIStyle_get_fixedWidth_m2576616348
Q4b:__Z18Transfer_BlittableI18StreamedBinaryReadILb1EELb1EdEvRK29SerializationCommandArgumentsR31RuntimeSerializationCommandInfo
Tw:__ZN15NavMeshSettings17MainThreadCleanupEv
nBl:_Byte_System_IConvertible_ToUInt64_m371883985_AdjustorThunk
_xq:__ZN6il2cpp2gc16GarbageCollector12RunFinalizerEPvS2_
$0e:__ZN5physx6shdfnd8internal8HashBaseINS0_4PairIKNS_2Sq13PrunerPayloadEjEES5_NS0_4HashIS5_EENS1_11HashMapBaseIS5_jS9_NS0_9AllocatorEE6GetKeyESB_Lb1EE5eraseERS6_
Jac:__Z26BuildSerializationCacheFor17ScriptingClassPtrRb
Yqm:_String_Split_m3646115398
m4a:__ZN7ApiGLES15BlitFramebufferEN2gl6HandleILNS0_10ObjectTypeE9EEENS0_15FramebufferReadES3_S3_iiiiiiiiNS0_15FramebufferTypeE
Tkf:__ZN5physx13GuMeshFactory16createConvexMeshERNS_13PxInputStreamE
Zwf:__ZN5physx6shdfnd8internal8HashBaseINS0_4PairIKPKcjEES5_NS0_4HashIS5_EENS1_11HashMapBaseIS5_jS9_NS_7profile26WrapperReflectionAllocatorIjEEE6GetKeyESD_Lb1EE6createERS6_Rb
Q2g:__Z112RuntimeInvoker_RuntimeObject_RuntimeObject_RuntimeObject_RuntimeObject_RuntimeObject_RuntimeObject_RuntimeObjectPFvvEPK10MethodInfoPvPS4_
Ged:__ZN5IMGUI9GUIToggleER8GUIStateRK5RectTIfEbR10GUIContentR8GUIStylei
Vpk:_InternalEnumerator_1_System_Collections_IEnumerator_get_Current_m3553395619_AdjustorThunk
fyl:_Array_SetValue_m3998268557
Cpo:_TimelineAsset_GetRootTrack_m3548430429
Bij:_ColorBlock_set_highlightedColor_m2089444414_AdjustorThunk
zin:_Enumerator_MoveNext_m880141662_AdjustorThunk
tLk:_Context_EndSwitchingSecurityParameters_m4148956166
EJf:_otv_PairPos_validate
FR:__ZN7mecanim9animation14CopyHumanPosesEPKNS0_18AnimationNodeStateEPS1_RKNS_6bitsetILj83EEE
Hbq:__ZN6il2cpp6icalls8mscorlib6SystemL8IsStaticEPK12PropertyInfo
_bc:__Z9InitInputv
f1b:__Z29Transfer_Blittable_ArrayFieldI24GenerateTypeTreeTransfer11ColorRGBA32EvRT_R9ArrayInfoRK23StaticTransferFieldInfo
nAh:__Z126RuntimeInvoker_RuntimeObject_ParticleCollisionEvent_t4055032941_ParticleCollisionEvent_t4055032941_RuntimeObject_RuntimeObjectPFvvEPK10MethodInfoPvPS4_
S0m:_ShimEnumerator_Reset_m2537508675_gshared
Rkf:__ZNK5physx13GuMeshFactory15getConvexMeshesEPPNS_12PxConvexMeshEjj
Rgq:__ZN6il2cpp2gc19AppendOnlyGCHashMapINSt3__24pairIPK10MethodInfoP11Il2CppClassEEP22Il2CppReflectionMethod17ReflectionMapHashIS9_ENS2_8equal_toIS9_EEE3AddERKS9_SB_
txk:_Array_Sort_TisDoublePoint_t3941534089_m3143166828_gshared
JUb:__ZN16MemoryFileSystem6DeleteER13FileEntryDatab
iZg:__Z81RuntimeInvoker_Void_t1185182177_RuntimeObject_Int64_t3736567304_Int32_t2950945753PFvvEPK10MethodInfoPvPS4_
usn:_List_1_set_Item_m1979164443_gshared
zZn:_Array_InternalArray__ICollection_Add_TisLink_t3209266973_m77922316_gshared
__a:__ZL21BlitScaleStbImageImplRK14ImageReferenceRS_NS_10ColorSpaceE
sze:__ZN5physx10NpMaterial17setStaticFrictionEf
dtd:__Z9UpdateTplIL27ParticleSystemCurveEvalMode0EEvRK11MinMaxCurveS3_S3_R23ParticleSystemParticlesjjRKN4math8float3x3ERKNS6_7_float4E
tUe:__ZNK5physx7NpScene18getStaticStructureEv
MQd:__ZNSt3__26__sortIR31RayHitsByInverseDepthComparitorP12RaycastHit2DEEvT0_S5_T_
RTe:__ZNK5physx7NpScene19getFilterShaderDataEv
r$k:_InputField_get_keyboardType_m1248105267
_Xb:__Z29Transfer_Blittable_ArrayFieldI14SafeBinaryReadyEvRT_R9ArrayInfoRK23StaticTransferFieldInfo
paa:__ZN20SoundChannelInstance15setChannelGroupEPN4FMOD12ChannelGroupE
R8o:_Match__ctor_m2425511580
aBn:_KeyPairPersistence_Remove_m1876145547
vue:__ZN5physx2Sc19ShapeInstancePairLL26onPoseChangedWhileSleepingEv
MAd:__ZN12LightsModule13AwakeFromLoadEP14ParticleSystemRK27ParticleSystemReadOnlyState
I2e:__ZN5physx22PxcSweepCapsuleCapsuleERKNS_11PxsCCDShapeES2_PKNS_12PxsRigidBodyES5_RKNS_11PxTransformES8_S8_S8_fRNS_6PxVec3ESA_RNS_10PxcNpCacheERNS_18PxcNpThreadContextEf
Fln:_Enumerator_VerifyState_m169680537_AdjustorThunk
Vd:invoke_vifffii
Lsq:__ZN6il2cpp2vm9Exception27RaiseNullReferenceExceptionEv
Tgh:__Z89RuntimeInvoker_Void_t1185182177_Single_t1397266774_Single_t1397266774_Color32_t2600501292PFvvEPK10MethodInfoPvPS4_
crm:_String_IndexOf_m3406607758
uae:__ZNK5physx3Cct17CapsuleController21getHalfHeightInternalEv
ifb:__ZNK25MultiBlocksMemoryFileData5CloneEv
OIq:_GC_add_ext_descriptor
gfq:__ZNK15dense_hashtableINSt3__24pairIK10KeyWrapperINS1_IPK14Il2CppAssemblyP11Il2CppClassEEEjEES9_17ReflectionMapHashIS8_EN14dense_hash_mapIS9_jSD_NS9_14EqualsComparerINS0_8equal_toIS8_EEEENS0_9allocatorISB_EEE9SelectKeyESI_SK_E23find_position_with_hashERSA_j
gkh:__Z85RuntimeInvoker_Boolean_t97287965_IntPoint_t2151561958_RuntimeObject_SByte_t1669577662PFvvEPK10MethodInfoPvPS4_
Ytj:_CryptoConfig_CreateFromName_m1538277313
Ncr:_glInvalidateFramebuffer__wrapper
Uak:_InternalEnumerator_1_get_Current_m3073360606_gshared
Xhe:__ZL30GeomOverlapCallback_CapsuleBoxRKN5physx10PxGeometryERKNS_11PxTransformES2_S5_PNS_2Gu12TriggerCacheE
W0q:dynCall_iiiiiiiiiiii
OGm:_DllNotFoundException__ctor_m3079838043
sDf:__Z38Rigidbody_CUSTOM_INTERNAL_get_velocityP12Il2CppObjectP8Vector3f
C$k:_InputField_set_caretPositionInternal_m3823580651
Ebi:__ZL62g_UnityEngine_AIModule_Assembly_CustomAttributesCacheGeneratorP21CustomAttributesCache
tkn:_Enumerator_System_Collections_IEnumerator_Reset_m3951708793_gshared
c9k:_Selectable_set_interactable_m3105888815
Ynb:__ZL26KeywordSetToStringDontSortRKNSt3__26vectorIN4core12basic_stringIcNS1_20StringStorageDefaultIcEEEENS_9allocatorIS5_EEEERS5_
S0a:__ZN6prcoreL17RemapGenericFloatI16TexFormatRGFloat17TexFormatRGBAHalfEEvPKNS_9InnerInfoE
H2:__ZN12AudioManager22CreateFMODSoundFromWWWEP10IWWWStream15FMOD_SOUND_TYPE17FMOD_SOUND_FORMATjjbbP10SampleClip
tGc:__ZNK32RendererMaterialAnimationBinding15GenerateBindingERKN4core12basic_stringIcNS0_20StringStorageDefaultIcEEEEbRN11UnityEngine9Animation14GenericBindingE
H8p:_TimeEventHandler_Invoke_m2893540100
vej:_PointerEventData_ToString_m238029461
WPj:_TargetException__ctor_m4172127019
HSo:_List_1_CheckCollection_m274117203_gshared
Nin:_LinkedList_1_Clear_m2711926805_gshared
Pqa:__ZN8Remapper23GetOrGenerateInstanceIDERK26SerializedObjectIdentifier
$L:__ZN17AnimationCurveTplI8Vector3fEC2ERKS1_
Db:invoke_iiiiiifffiiifii
HVg:__Z85RuntimeInvoker_Void_t1185182177_Int32_t2950945753_Int32_t2950945753_Int32_t2950945753PFvvEPK10MethodInfoPvPS4_
ujk:_InternalEnumerator_1_get_Current_m1588647567_gshared
d2i:_ObjectRotate_LateUpdate_m2973831205
lcj:_EventSystem_ToString_m3779610692
mJg:_EditorPrefsX_SetVector3_m1223368359
XMk:_RecordProtocol_BeginReceiveRecord_m295321170
iCb:__ZN6Sprite8TransferI24GenerateTypeTreeTransferEEvRT_
V4c:__Z48Register_UnityEngine_Transform_SetAsFirstSiblingv
rhk:_InternalEnumerator_1_System_Collections_IEnumerator_get_Current_m694606607_gshared
lCb:__ZN7SubMesh8TransferI24GenerateTypeTreeTransferEEvRT_
Mre:__ZNK5physx19NpArticulationJoint28getTwistLimitContactDistanceEv
rBp:_UnityEvent_1_FindMethod_Impl_m2511430237_gshared
r$d:__ZN5physx3Cct10Controller6setPosERKNS_14PxExtendedVec3E
DHo:_Collection_1_System_Collections_IList_Contains_m296643274_gshared
y1d:__ZN5physx2GuL14testFaceNormalERKNS0_13PolygonalDataES3_PNS0_12SupportLocalES5_RKNS_6shdfnd3aos15PsMatTransformVESA_RKNS7_6FloatVERSB_RjRNS7_5Vec3VENS0_13FeatureStatusERSI_
gfm:_DirectoryInfo__ctor_m126519516
dMj:_MethodBase_GetMethodFromIntPtr_m3014201362
Tkk:_InternalEnumerator_1_System_Collections_IEnumerator_get_Current_m2011757623_gshared
Rmk:_InternalEnumerator_1_get_Current_m2315302778_AdjustorThunk
tN:__ZN7mecanim5human9HumanGoal8TransferI18StreamedBinaryReadILb0EEEEvRT_
y9k:_Shadow_set_useGraphicAlpha_m2224202025
CTf:__ZNK20TextRenderingPrivate7GUIText22GetTypeVirtualInternalEv
uSc:__ZN9Transform23SetSiblingIndexInternalEib
bie:__ZL32GeomOverlapCallback_ConvexConvexRKN5physx10PxGeometryERKNS_11PxTransformES2_S5_PNS_2Gu12TriggerCacheE
B6n:_Dictionary_2_Resize_m1924695631_gshared
Xum:_Enumerator_MoveNext_m635366482
Yul:_X509Extension_Equals_m1222951829
ZP:__ZN7mecanim5human12HumanPoseSubERNS0_9HumanPoseERKS1_S4_
uZk:_Array_InternalArray__IndexOf_TisTextAlignmentOptions_t4036791236_m4075827900_gshared
log:_TMP_Text_set_lineSpacing_m502154761
zWb:__Z18Transfer_BlittableI14SafeBinaryReadLb0E10Matrix4x4fEvRK29SerializationCommandArgumentsR31RuntimeSerializationCommandInfo
_9b:__Z24GetFixedBehaviourManagerv
eWl:_Object_DestroyObject_m1406874517
Dtn:_List_1_System_Collections_IList_Add_m634558835_gshared
qul:_PKCS12_Encrypt_m2617413749
B7o:_X509Crl_VerifySignature_m1377612461
lwl:_Activator_CreateInstance_m94526014
AOq:_vfprintf
yed:__ZN10GUIManager12AddGUIScriptER8ListNodeI13MonoBehaviourE
u8c:__Z78Register_UnityEngine_Playables_PlayableHandle_GetInputWeightFromIndex_Injectedv
lvm:_Stack_Clear_m2010200235
iGf:_cf2_getVStore
aej:_PointerEventData_set_pointerPressRaycast_m1363193059
Yjc:__ZN20DynamicPropertySheetD0Ev
vvn:_List_1_get_Item_m718437397_gshared
WSj:_SafeHandle_Dispose_m4229010569
Zad:__Z48Register_UnityEngine_CircleCollider2D_get_radiusv
v1c:__Z28Shader_CUSTOM_DisableKeywordP12Il2CppString
$Aa:__ZN35RegisterRuntimeInitializeAndCleanup8RegisterEPFvPvES2_iS0_
Kcg:_TMP_DefaultControls__cctor_m17948571
A6j:_FieldBuilder_SetValue_m828035213
EE:__ZN7mecanim6memory16ChainedAllocator7ReserveEj
L1n:_Array_InternalArray__Insert_TisSingle_t1397266774_m3161726127_gshared
grb:__ZN20SphericalHarmonicsL215AddAmbientLightERK10ColorRGBAf
M2e:__ZN5physx25PxcSweepConvexHeightfieldERKNS_11PxsCCDShapeES2_PKNS_12PxsRigidBodyES5_RKNS_11PxTransformES8_S8_S8_fRNS_6PxVec3ESA_RNS_10PxcNpCacheERNS_18PxcNpThreadContextEf
UQa:__ZN8Material26ResetAllCachedMaterialDataEP6Shader
r_g:__Z63RuntimeInvoker_Void_t1185182177_RuntimeObject_Int16_t2552820387PFvvEPK10MethodInfoPvPS4_
MOf:_UNITY_TT_Get_MM_Var
wqj:_ObjectManager_AddFixup_m2154325362
btk:_Comparer_1__cctor_m3761458313_gshared
ADm:_DateTimeOffset_CompareTo_m1350732322_AdjustorThunk
ca:invoke_diddi
UXf:__ZNK2UI6Canvas13GetRenderModeEv
vOl:_PersistentCall__ctor_m1217622171
eXk:_Array_compare_TisCustomAttributeTypedArgument_t2723150157_m1384644047_gshared
Nhg:_TMP_InputField_MoveUp_m2102648581
xgg:_TMP_InputField_get_stringPositionInternal_m4024515596
KVb:__Z18Transfer_BlittableI14SafeBinaryReadLb0EiEvRK29SerializationCommandArgumentsR31RuntimeSerializationCommandInfo
wrp:_SliderHandler_SliderState_m3376329127_AdjustorThunk
bFp:_SymmetricTransform_Transform_m1683494363
yMe:__ZN5physx14NpRigidDynamic7releaseEv
$2f:__ZN22BaseUnityConnectClient17InitializeSessionERKN4core12basic_stringIcNS0_20StringStorageDefaultIcEEEES6_N19CloudServiceHandler13InitModeFlagsE
x9g:__Z74RuntimeInvoker_RuntimeObject_Int32_t2950945753_RuntimeObject_RuntimeObjectPFvvEPK10MethodInfoPvPS4_
_xm:_Decimal_op_Implicit_m1349849065
a$e:__ZN5physx6shdfnd8PoolBaseINS_21PxsBodyTransformVault13PxsBody2WorldENS0_19ReflectionAllocatorIS3_EEE15disposeElementsEv
kyg:_TeleType__ctor_m1571455078
RF:__ZN15SerializeTraitsI9OffsetPtrIN7mecanim9animation23BlendDirectDataConstantEEE8TransferI24GenerateTypeTreeTransferEEvRS4_RT_
b8i:_TextMeshPro_set_maskType_m3294647249
KOn:_Comparison_1_BeginInvoke_m899707730_gshared
jz:__ZNK14NavMeshManager23GetNavMeshBuildSettingsEi
KUc:__ZN13MonoBehaviour34StopCoroutineFromEnumeratorManagedE18ScriptingObjectPtr
FUq:__ZNKSt3__220__time_get_c_storageIcE7__weeksEv
wIl:_Application_set_targetFrameRate_m3682352535
A7d:__ZN5physx2Gu30computeCapsule_TriangleMeshMTDERKNS_22PxTriangleMeshGeometryERKNS_11PxTransformERNS0_8CapsuleVEffbRNS_10PxSweepHitE
uoo:_TimelineClip_EvaluateMixIn_m3339711043
$Nb:__ZN30RuntimeInitializeOnLoadManager8TransferI18StreamedBinaryReadILb0EEEEvRT_
fxm:_DateTimeOffset__ctor_m2084804982
GXp:_CanvasRenderer_GetMaterial_m3822557591
T8c:__Z57AnimationClipPlayable_CUSTOM_SetRemoveStartOffsetInternalR9HPlayableb
$Kf:_UNITY_tt_face_load_pclt
UTc:__ZL34GetComponentsImplementationRecurseILb1ELi0ELi2EEbR10GameObjectbRK17CompareParametersRK39GetComponentsImplementation_ReturnValue
kfg:_TMP_InputField_get_caretColor_m3012829468
FTd:__ZN10ClipperLib7Clipper24InsertLocalMinimaIntoAELEx
Hyl:_Array_Sort_m3698291233
aSl:_Material_GetTexture_m3545614349
Fqg:_TMP_Text_CrossFadeColor_m63705075
Rzd:__ZN16CustomDataModule8TransferI19StreamedBinaryWriteILb0EEEEvRT_
Oeo:_EqualityComparer_1__cctor_m4244842342_gshared
f6c:__Z46QualitySettings_Set_Custom_PropPixelLightCounti
tjc:__ZNK6Camera18WorldToScreenPointERK8Vector3fPb
S8e:__ZN5physx2Cm12DelegateTaskINS_10PxsContextEXadL_ZNS2_28mergeCMDiscreteUpdateResultsEPNS_10PxBaseTaskEEEE11runInternalEv
j4l:_SendMouseEvents_DoSendMouseEvents_m2140870850
Fpf:__ZN5physx19TriangleMeshBuilder10importMeshERKNS_18PxTriangleMeshDescERKNS_15PxCookingParamsEb
$fp:_CrossPlatformInputManager_SetAxis_m1144576044
R9o:_PatternCompiler_EmitJump_m3915926156
zu:__ZN14NavMeshManager11RestoreTileEii
B$c:__Z41AnimationCurve_Set_Custom_PropPreWrapModeP12Il2CppObject8WrapMode
hp:FUNCTION_TABLE_fiiffffiiiii
taa:__ZN11AudioSource19ApplyMinMaxDistanceERKNS_14ParameterCacheE12SoundChannel
_Pm:__Z33il2cpp_codegen_check_add_overflowxx
Rpa:__ZNSt3__227__insertion_sort_incompleteIRPFbRKN18AwakeFromLoadQueue4ItemES4_EPS2_EEbT0_S9_T_
k6h:__ZL73RuntimePlatform_t4159857903_CustomAttributesCacheGenerator_MetroPlayerARMP21CustomAttributesCache
GQm:_TimeSpan_op_Subtraction_m3592306516
tho:_EqualityComparer_1_System_Collections_IEqualityComparer_GetHashCode_m1517903420_gshared
zFe:__ZN5physx6shdfnd5ArrayINS_18PxClothFabricPhaseENS0_19ReflectionAllocatorIS2_EEE8recreateEj
Kzb:__ZN26EnlightenSystemInformation8TransferI14SafeBinaryReadEEvRT_
fAd:__ZN13InitialModule5ResetEv
eNb:__ZN24GenerateTypeTreeTransfer8TransferINSt3__26vectorIN15ResourceManager10DependencyE13stl_allocatorIS4_L18MemLabelIdentifier52ELi16EEEEEEvRT_PKc17TransferMetaFlags
lAg:_VertexJitter_ON_TEXT_CHANGED_m106761234
feh:__Z119RuntimeInvoker_Void_t1185182177_RuntimeObject_Single_t1397266774_Single_t1397266774_SByte_t1669577662_Int32_t2950945753PFvvEPK10MethodInfoPvPS4_
aVe:__ZN5physx2Sq17SceneQueryManager11shiftOriginERKNS_6PxVec3E
zGb:__ZN12MeshRendererD0Ev
ifa:__ZN12AudioManager35GetCurrentSpatializerDefinitionNameEv
zCm:_DateTime_get_UtcNow_m1393945741
E5d:__ZN5physx2Gu16sweepBoxTriangleERKNS_10PxTriangleERKNS_9PxBounds3ERKNS_6PxVec3ES9_RS7_SA_Rf
adn:_Dictionary_2_TryGetValue_m2503647000_gshared
h9f:__ZNK20BrowserVideoPlayback12GetFrameRateEv
Fj:_utime
pqf:__ZN5physx10writeChunkEaaaaRNS_14PxOutputStreamE
qcp:_BalancingGroup_Compile_m2575117193
jX:__Z28SetExposedSkeletonTransformsRKN7mecanim9animation14AvatarConstantERKN11UnityEngine9Animation30AnimatorGenericBindingConstantERKNS_8skeleton13SkeletonPoseTIN4math4trsXEEERKNSA_INSB_7affineXEEERNS5_21AvatarBindingConstantEy
Iaq:__ZN6il2cpp6icalls8mscorlib6System8MonoType18IsGenericParameterEPK10Il2CppType
neq:__ZNSt3__26vectorIN6il2cpp2vm17TypeNameParseInfoENS_9allocatorIS3_EEE8allocateEj
_sm:_ASCIIEncoding_GetMaxByteCount_m3220079164
H9:__ZN18AudioMixerSnapshot23VirtualRedirectTransferER19StreamedBinaryWriteILb0EE
G6i:_MaterialReferenceManager_Contains_m3745938119
M8o:_Mark_get_Index_m3048692661_AdjustorThunk
xp:FUNCTION_TABLE_viiiiif
tsk:_DefaultComparer_Compare_m3931992727_gshared
sq:FUNCTION_TABLE_viiiiii
Pzp:_WaterSettings_OnSliderSegmentsToUnits_m1809317423
Z8:__ZN5audio5mixer14EffectConstant8TransferI18StreamedBinaryReadILb0EEEEvRT_
dqp:_GUILayoutUtility_get_spaceStyle_m3392862907
CCg:_Clipper_JoinCommonEdges_m721687215
gxm:_DateTimeOffset__ctor_m74032857
mwe:__ZN5physx2Sc9RigidCore13onShapeChangeERNS0_9ShapeCoreENS_7PxFlagsINS0_21ShapeChangeNotifyFlag4EnumEjEENS4_INS_11PxShapeFlag4EnumEhEE
iJq:__ZN6il2cpp6icalls8mscorlib6System10Reflection4Emit13ModuleBuilder17set_wrappers_typeEP29Il2CppReflectionModuleBuilderP20Il2CppReflectionType
LY:__ZN7mecanim9animation22DestroyAvatarWorkspaceEPNS0_15AvatarWorkspaceERNS_6memory9AllocatorE
Cx:__ZN12NavMeshAgent12AddToManagerEv
ARm:_Type_type_is_assignable_from_m76737532
wSl:_Material_get_shaderKeywords_m541729302
YJe:__ZN5physx6shdfnd5ArrayIPvNS0_15InlineAllocatorILj256ENS0_19ReflectionAllocatorINS_2Sc19ParticlePacketShapeEEEEEE15growAndPushBackERKS2_
epg:_TMP_Text_set_maxVisibleWords_m2665159560
p5e:__ZN5physx17solveContactBlockEPKNS_23PxcSolverConstraintDescEjRNS_16PxcSolverContextE
yqf:__ZN5physx6shdfnd10FoundationD2Ev
tqc:__ZN15LightmapSTCacheC2ER13BatchRendererR15RenderLoopStats
fwb:__ZN14PlayableOutput17SetSourcePlayableEP8Playable
TNb:__ZNSt3__26vectorIN4core12basic_stringIcNS1_20StringStorageDefaultIcEEEE13stl_allocatorIS5_L18MemLabelIdentifier13ELi16EEE8__appendEj
aUl:_Mesh_Internal_Create_m2853543051
R7c:__Z38PlayableHandle_CUSTOM_SetTime_InjectedP9HPlayabled
R8:__ZN10AudioMixer8TransferI17RemapPPtrTransferEEvRT_
$X:__ZN7mecanim9animation29MotionOutputGetDeltaTransformEPKNS0_12MotionOutputE
xMl:_CSSMeasureFunc_BeginInvoke_m3802154595
aPd:__ZN24b2ChainAndCapsuleContact8EvaluateEP10b2ManifoldRK11b2TransformS4_
Uij:_ColorBlock_Equals_m2135740005_AdjustorThunk
g4c:__Z43Transform_CUSTOM_INTERNAL_get_localRotationP12Il2CppObjectP11Quaternionf
JId:__ZN15AnchoredJoint2D5ResetEv
_je:__ZN5physx2Sc7BodySim18onConstraintDetachEv
hJq:__ZN6il2cpp6icalls8mscorlib6System10Reflection4Emit13ModuleBuilder13RegisterTokenEP29Il2CppReflectionModuleBuilderP12Il2CppObjecti
bok:_InternalEnumerator_1_System_Collections_IEnumerator_get_Current_m2413202382_AdjustorThunk
idq:__ZN6il2cpp2os4File9SetLengthEPNS0_10FileHandleExPi
qHc:__ZZL23RegisterLightPropertiesR22GenericPropertyBindingEN20Wrapper_LightColorr013SetFloatValueEPvf
gGj:_ObjectReader_ReadObjectGraph_m340866276
xmp:_TMPro_EventManager_ON_TEXT_CHANGED_m2617205584
jk:_emscripten_glGetTexParameteriv
XTe:__ZN5physx7NpScene8simulateEfPNS_10PxBaseTaskEPvjb
W8q:_glGenTextures__wrapper
E6m:_Enumerator__ctor_m3540097710_AdjustorThunk
JXo:_List_1_RemoveAll_m3272733580_gshared
MLa:__ZN9ShaderLab20SerializedSubProgram14ConstantBufferaSERKS1_
NVd:__ZN9Polygon2D8TransferI18StreamedBinaryReadILb0EEEEvRT_
MCc:__Z13RegisterClassI4MeshEvv
wtb:__ZN8PlayableD0Ev
yi:emscriptenWebGLGetBufferBinding
H2q:dynCall_viidd
k4:__ZN12AudioManager8TransferI19StreamedBinaryWriteILb0EEEEvRT_
qlj:_Dropdown_Hide_m504034854
sXp:_CanvasGroup_IsRaycastLocationValid_m2128397950
F9k:_Slider_UpdateCachedReferences_m3259451627
P$g:__Z50RuntimeInvoker_Double_t594665363_Double_t594665363PFvvEPK10MethodInfoPvPS4_
X8c:__Z82Register_UnityEngine_Animations_AnimationClipPlayable_GetRemoveStartOffsetInternalv
G5b:__ZN18StreamedBinaryReadILb1EE21TransferSTLStyleArrayI13dynamic_arrayI11ColorRGBA32Lj4EEEEvRT_17TransferMetaFlags
VYm:_Enumerator_get_CurrentKey_m2230405065_gshared
PAk:_PlayableExtensions_SetPropagateSetTime_TisPlayable_t459825607_m1241751742_gshared
qpq:__ZN15dense_hashtableINSt3__24pairIK10KeyWrapperINS1_IP11Il2CppClassjEEES4_EES6_N6il2cpp8metadata14ArrayClassHashEN14dense_hash_mapIS6_S4_SB_NS6_14EqualsComparerINSA_17ArrayClassCompareEEENS0_9allocatorIS8_EEE9SelectKeyESF_SH_E6insertERKS8_
Nlj:_U3CShowU3Ec__AnonStorey1_U3CU3Em__0_m2340880019
zel:_FloatingObject3D_get_transform_m944712844
ate:__ZN5physx18NpArticulationLink10clearForceENS_11PxForceMode4EnumE
o2d:__ZN5physx2Gu30distanceSegmentTriangleSquaredERKNS_6PxVec3ES3_S3_S3_S3_PfS4_S4_
wVd:__ZN16CircleCollider2D10SmartResetEv
t4o:_TlsStream_Flush_m3793197834
mTb:__ZN22LocalFileSystemHandler9MakeLocalER13FileEntryDatab
dih:__Z121RuntimeInvoker_Void_t1185182177_RuntimeObject_Playable_t459825607_Playable_t459825607_Double_t594665363_Double_t594665363PFvvEPK10MethodInfoPvPS4_
Jqo:_TimelineClip_get_eastOutTime_m3262898536
Rdp:_Uri_IsHexEncoding_m3290929897
Kni:__ZL61Graphic_t1660335611_CustomAttributesCacheGenerator_m_MaterialP21CustomAttributesCache
Pfd:__Z56Register_UnityEngine_GUI_INTERNAL_CALL_Internal_DoWindowv
$Ia:__Z13FormatOrderedPKcz
pcq:__ZN6il2cpp2vm8basepathEPKc
Ozp:_WaterSettings_EnableTextureObstruction_m3957797301
ypl:_X509Chain_GetAuthorityKeyIdentifier_m614536199
HQf:__ZN14SafeBinaryRead21TransferSTLStyleArrayI10vector_mapINSt3__24pairIttEEfN20TextRenderingPrivate8FontImpl14KerningCompareENS2_9allocatorINS3_IS4_fEEEEEEEvRT_17TransferMetaFlags
gKk:_TlsServerFinished__ctor_m1445633918
Aib:__ZN13dynamic_arrayI17SortingLayerEntryLj4EE6insertEPS0_jRKS0_
D3k:__ZN21InterfaceFuncInvoker0IfE6InvokeEjP11Il2CppClassP12Il2CppObject
eqc:__ZN25DeferredRenderLoopScratchD0Ev
vS:__ZN27AnimationLayerMixerPlayable14SetInputWeightEif
n6g:__Z83RuntimeInvoker_Void_t1185182177_RuntimeObject_Single_t1397266774_Single_t1397266774PFvvEPK10MethodInfoPvPS4_
Fdj:_PhysicsRaycaster_Raycast_m776323695
uvp:_UnityException__ctor_m1456865679
VP:__ZN7mecanim9animation17EvaluateHumanPoseERKNS0_18ClipMuscleConstantERKNS0_15ClipMuscleInputEPKfRKNS0_12MotionOutputERNS_5human9HumanPoseE
_1n:_Array_InternalArray__Insert_TisTMP_LinkInfo_t1092083476_m719690151_gshared
rBn:_PKCS1_Encrypt_v15_m1016948107
WKa:__ZN15dense_hashtableINSt3__24pairIKiN4core17string_with_labelILi1EEEEEi18SInt32HashFunctionN14dense_hash_mapIiS5_S7_NS0_8equal_toIiEE13stl_allocatorIS6_L18MemLabelIdentifier1ELi16EEE9SelectKeyESA_SD_E9copy_fromERKSG_j
wJc:__ZN6Camera11ResetAspectEv
BMb:__ZN15ResourceManagerD0Ev
RDo:_Collection_1_Remove_m2516638220_gshared
hxa:__ZN22CreateGpuProgramOutputD2Ev
ube:__ZNK5physx3Cct15ObstacleContext14getNbObstaclesEv
RGd:__ZN11ShapeModuleC2E10MemLabelId
h1n:_Array_InternalArray__Insert_TisKeyValuePair_2_t3699644050_m3752538798_gshared
BFd:__Z17UpdateSprites2TplIL27ParticleSystemCurveEvalMode2ELS0_3EEvfRK11MinMaxCurveS3_RK23ParticleSystemParticlesPf
pnf:__ZN5physx6shdfnd8PoolBaseINS_11NpAggregateENS0_19ReflectionAllocatorIS2_EEE12allocateSlabEv
nF:__ZN7mecanim9animation23BlendDirectDataConstant8TransferI14SafeBinaryReadEEvRT_
xkm:_SHA1CryptoServiceProvider_Finalize_m1793183797
eIl:_AnimationCurve_get_keys_m1672862131
Ofn:_HashSet_1_System_Collections_Generic_ICollectionU3CTU3E_CopyTo_m408073502_gshared
SKe:__ZN5physx7NpScene26removeFromParticleBaseListERNS_14PxParticleBaseE
GKe:__ZN5physx23NpParticleFluidReadData18getDataAccessFlagsEv
xSb:__ZN12HandlerChain4OpenER13FileEntryData14FilePermission16FileAutoBehavior
Fth:__Z72RuntimeInvoker_Void_t1185182177_Int32_t2950945753_RaycastHit_t1056001966PFvvEPK10MethodInfoPvPS4_
Vgq:__ZN15dense_hashtableINSt3__24pairIK10KeyWrapperINS1_IPK10MethodInfoP11Il2CppClassEEEjEES9_17ReflectionMapHashIS8_EN14dense_hash_mapIS9_jSD_NS9_14EqualsComparerINS0_8equal_toIS8_EEEENS0_9allocatorISB_EEE9SelectKeyESI_SK_E6insertERKSB_
JMm:_UTF8Encoding_GetCharCount_m2272165989
dyl:_Array_SetValue_m394135409
Nta:__ZN14FileCacherReadD2Ev
zPb:__ZN13RendererScene23UpdatePreviousFrameDataEii
Pem:_BinaryWriter_Write_m973309864
nVl:_MonoBehaviour_StopCoroutine_m615723318
cYc:__Z50Register_UnityEngine_CullingGroup_FinalizerFailurev
hQb:__ZN27UnloadUnusedAssetsOperationD0Ev
HZl:_PlayableOutputHandle_GetPlayableOutputType_m971265037
e_q:__ZNKSt3__221__basic_string_commonILb1EE20__throw_out_of_rangeEv
p2e:__ZN5physx10PxsCCDPair12updateShapesEv
NYn:_TMPro_ExtensionMethods_FindInstanceID_TisRuntimeObject_m2213100998_gshared
Qde:__ZNK5physx3Ext5JointINS_15PxDistanceJointENS_30PxDistanceJointGeneratedValuesEE16getInvMassScale1Ev
tdq:_UpdatedEventHandler_Invoke_m1320302085
p7f:__ZN11VideoPlayer9Callbacks5ErrorEPvRKN4core12basic_stringIcNS2_20StringStorageDefaultIcEEEE
Z1:__ZN9AudioClip23VirtualRedirectTransferER18StreamedBinaryReadILb0EE
EJn:_ReadOnlyCollection_1_System_Collections_Generic_IListU3CTU3E_RemoveAt_m3849058645_gshared
ebg:__ZN13ProduceHelperI11VideoPlayerLb0EE7ProduceE10MemLabelId18ObjectCreationMode
q0o:_List_1_AddEnumerable_m2724989594_gshared
HGe:__ZN5physx2Sc9ClothCore22removeCollisionCapsuleEj
c8a:__ZN18GlslGpuProgramGLESC2ERK13dynamic_arrayIhLj1EER22CreateGpuProgramOutput
c8c:__Z70Register_UnityEngine_Playables_PlayableHandle_GetPlayableType_Injectedv
p5m:_Enumerator_get_Current_m2708222222_AdjustorThunk
gle:__ZN5physx16PxsIslandManager25setArticulationLinkHandleEjPvRKNS_20PxsIslandManagerHookIjLj4294967295EEE
Ol:_glCopyTexSubImage2D
msd:__ZNK21RotationBySpeedModule6UpdateERK27ParticleSystemReadOnlyStateRK19ParticleSystemStateR23ParticleSystemParticlesRKN4math7_float4Ejj
vMo:_ReadOnlyCollection_1_System_Collections_IList_Insert_m1104620799_gshared
jar:_glActiveTexture__wrapper
Avp:_UnitySynchronizationContext_ExecuteTasks_m1310741010
djm:_RIPEMD160Managed_CompressFinal_m497690796
Cvc:__ZN18ScreenManagerWebGL13SetShowCursorEb
zfc:__ZN13DrawImmediateC2ER9GfxDevice
Azm:_Convert_ToInt64_m2849840611
Etb:__ZN10GUIElement12AddToManagerEv
Xue:__ZN5physx6shdfnd5ArrayIPNS_3Scb5ShapeENS0_15InlineAllocatorILj16ENS0_19ReflectionAllocatorIS4_EEEEE15growAndPushBackERKS4_
vWb:__Z18Transfer_BlittableI14SafeBinaryReadLb0E5RectTIfEEvRK29SerializationCommandArgumentsR31RuntimeSerializationCommandInfo
S0j:_NumberFormatter_NumberToString_m2562899600
MJf:_otv_u_C_x_Ox
IZa:__ZN18AsyncUploadManager19AsyncResourceUploadER9GfxDeviceii9TextureID
UWa:__ZN14GfxContextGLES14GetFramebufferEv
K9q:_emscripten_glGenVertexArrays__wrapper
FMg:__ZN21InterfaceFuncInvoker2I19Vector3_t3722313464fS0_E6InvokeEjP11Il2CppClassP12Il2CppObjectfS0_
s7c:__Z39PlayableGraph_CUSTOM_IsPlaying_InjectedP14HPlayableGraph
D$a:__ZN6prcoreL21CreateRemapAnyBlitterE13TextureFormatS0_
lHk:_RSAManaged_ExportParameters_m1754454264
gQc:__ZN17AnimationCurveTplIfE16StripInvalidKeysEv
DAl:_Boolean_Equals_m535526264_AdjustorThunk
Mkp:_WaypointList__ctor_m2673417506
pRk:_Array_InternalArray__ICollection_Contains_TisTouch_t1921856868_m354355717_gshared
$Xf:__ZNK2UI6Canvas17GetSortingLayerIDEv
wOi:__ZL81TransitionPoint_t4112241455_CustomAttributesCacheGenerator_requiresInventoryCheckP21CustomAttributesCache
cTc:__ZL12HashLen0to16PKcj
ZQd:__ZN14Raycast2DQuery8RunQueryEb
CCc:__Z13RegisterClassI17GlobalGameManagerEvv
$ya:__ZN8Renderer24SetupNewRendererForSceneEv
uRm:_Type_internal_from_name_m1721940673
Enq:_il2cpp_type_get_class_or_element_class
r4l:_Environment_get_TickCount_m2088073110
DAj:_RemotingServices_GetMethodBaseFromName_m3194612939
Kld:__Z35Transfer_Blittable_FixedBufferFieldI8JSONReadtEvRK29SerializationCommandArgumentsR31RuntimeSerializationCommandInfo
Mdf:__ZN5physx2Sc8ClothSim16addCollisionMeshEPKNS0_8ShapeSimE
_Kc:__ZN14PlayableOutput6HandleEv
HBb:__ZNK6Sprite22GetTypeVirtualInternalEv
tbg:__ZN13RuntimeStaticINSt3__26vectorI23UnityVRDeviceDefinition13stl_allocatorIS2_L18MemLabelIdentifier90ELi16EEEELb0EE13StaticDestroyEPv
mq:FUNCTION_TABLE_iiiiiiiiiiiiii
Pif:__ZN5physx6shdfnd5ArrayIPKNS_10PxsCCDBodyENS0_19ReflectionAllocatorIS4_EEE8recreateEj
IUq:__ZNKSt3__220__time_get_c_storageIcE3__cEv
Rue:__ZN5physx6shdfnd4sortINS_2Cm19PreallocatingRegionENS0_4LessIS3_EENS0_19ReflectionAllocatorIS3_EEEEvPT_jRKT0_RKT1_j
Epb:__ZN11Tetrahedron8TransferI24GenerateTypeTreeTransferEEvRT_
xip:_ActivateTrigger__ctor_m436930199
DKf:_UNITY_tt_get_cmap_info
h1b:__Z29Transfer_Blittable_ArrayFieldI24GenerateTypeTreeTransfer5RectTIiEEvRT_R9ArrayInfoRK23StaticTransferFieldInfo
pqb:__ZN16ReflectionProbes8ScheduleEN18ReflectionProbeJob7JobTypeEP15ReflectionProbei
yag:__ZN11VideoPlayer23VirtualRedirectTransferER14SafeBinaryRead
p9:__ZN15AudioMixerGroup23VirtualRedirectTransferER18StreamedBinaryReadILb0EE
jYf:__ZN13dynamic_arrayIN2UI13UIInstructionELj4EE12emplace_backEv
Zhg:_TMP_InputField_SendOnFocusLost_m2500459938
WGm:_Double_System_IConvertible_ToChar_m285688079
Zcb:__Z18IsDirectoryCreatedRKN4core12basic_stringIcNS_20StringStorageDefaultIcEEEE
_mm:_String_FormatHelper_m3913915042
rdh:__Z88RuntimeInvoker_RuntimeObject_RuntimeObject_Double_t594665363_RuntimeObject_RuntimeObjectPFvvEPK10MethodInfoPvPS4_
Epo:_TimelineAsset_GetOutputTrack_m506076934
_Wf:__ZN2UI13CanvasManagerD2Ev
_Xl:_PlayableGraph_GetRootPlayableInternal_m2662413974_AdjustorThunk
jHd:__ZZN14ParticleSystem15InitializeClassEvEN52PreLateUpdateParticleSystemBeginUpdateAllRegistrator7ForwardEv
r3p:__ZN15dense_hashtableINSt3__24pairIK10KeyWrapperIPKcEP11Il2CppClassEES5_N6il2cpp5utils11StringUtils12StringHasherIS4_EEN14dense_hash_mapIS5_S8_SE_NS5_14EqualsComparerINSB_13VmStringUtils21CaseSensitiveComparerEEENS0_9allocatorIS9_EEE9SelectKeyESJ_SL_E15set_deleted_keyERKS9_
w3j:_CustomAttributeData_GetHashCode_m3727773664
KSf:_UNITY_FT_GlyphLoader_Done
dNc:__ZN9Polygon2D16CheckConsistencyEv
etf:__ZN19CharacterController12SetIsTriggerEb
Xgp:_MobileInput_SetAxisZero_m4114279636
rRd:__ZN19OverlapPointQuery2D14InitializeAABBER6b2AABB
KGm:_StackTrace_get_FrameCount_m344690939
lEf:__Z59Register_UnityEngine_Rigidbody_INTERNAL_get_angularVelocityv
Pgm:_FileStream_BeginRead_m2419864669
kbd:__ZN16PlayableDirector16CheckConsistencyEv
Y5e:__ZN5physx18ComputeSortedListsEPNS_2Cm10BitMapBaseINS_6shdfnd9AllocatorEEEjjPKjPPNS_8SapBox1DES7_PjSB_jRKNS_2Gu4AxesESB_RjSB_SG_RbSH_
qPk:_Array_get_swapper_TisRuntimeObject_m1378919517_gshared
v0:__ZN17AnimationPlayable8OwnAssetEP11NamedObject
PN:__ZN15SerializeTraitsIN4math4trsXEE8TransferI19StreamedBinaryWriteILb0EEEEvRS1_RT_
p0k:_Selectable_OnPointerDown_m1086067264
PPf:_psh_globals_new
flj:_Dropdown_SetupTemplate_m628218778
aNm:_Thread_GetCompressedStack_m2923422412
gbr:_emscripten_glBlendEquation__wrapper
gFl:_SynchronizedArrayListWrapper_CopyTo_m4207791406
mYp:_BoxCollider_INTERNAL_get_center_m2114504947
Nnl:_X509BasicConstraintsExtension_ToString_m1809935297
rRa:__ZN9GfxDevice20SetMaxBufferedFramesEi
VTf:__ZNK20TextRenderingPrivate8TextMesh22GetTypeVirtualInternalEv
iEp:_TweenRunner_1_StartTween_m1055628540_gshared
b5n:_Array_qsort_TisUIVertex_t4057497605_TisUIVertex_t4057497605_m678708019_gshared
xJd:__ZN10Collider2D19WakeAllBodyContactsEv
mAk:_GameObject_GetComponents_TisRuntimeObject_m1246177135_gshared
Pdn:_Dictionary_2_GetObjectData_m4173439531_gshared
AYj:_MethodAccessException__ctor_m3542088436
Hxc:__Z23ConvertIntegerToTypePtrIsEbPvR14SafeBinaryRead
l0i:_Bullet_Disable_m1256001429
Ws:FUNCTION_TABLE_iiidiii
SMd:__ZN12b2MouseJoint11ShiftOriginERK6b2Vec2
nkj:_DefaultControls_CreateImage_m2462935101
eqe:__ZNK5physx14NpArticulation17releaseDriveCacheERNS_24PxArticulationDriveCacheE
s9:__ZN15AudioMixerGroup23VirtualRedirectTransferER14SafeBinaryRead
Dbl:_ClipperBase_IsHorizontal_m1563063219
Yqi:__ZL60ContentSizeFitter_t3850442145_CustomAttributesCacheGeneratorP21CustomAttributesCache
nHl:_Hashtable_Contains_m2145146412
rYh:__ZL64UnmarshalledAttribute_t1517743549_CustomAttributesCacheGeneratorP21CustomAttributesCache
EOc:__ZN4Mesh24UpdateSubMeshVertexRangeEi
f$p:_ParticleCollisionEvent_get_colliderComponent_m1489433520_AdjustorThunk
iGe:__ZNK5physx2Sc9ClothCore25getSelfCollisionStiffnessEv
Aqd:__Z13UpdateSizeTplIL27ParticleSystemCurveEvalMode3EEvRK11MinMaxCurveR23ParticleSystemParticlesbjj
FIj:_TypeBuilder__ctor_m3644689907
JA:__ZN15NavMeshObstacle11UpdateStateEv
$Cp:_ExposedReference_1_Resolve_m497587869_AdjustorThunk
ibm:_Int32_FindCurrency_m3541026887
j8o:_Interval_CompareTo_m3282557545
Bpo:_EditorSettings_set_fps_m3228419936
cNq:__ZN6il2cpp8metadata19Il2CppSignatureHash4HashERKNS_5utils13dynamic_arrayIPK10Il2CppTypeLj4EEE
Sbr:_pthread_cond_wait__wrapper
rpc:__ZNK14RenderSettings19GetFlatAmbientColorEv
a_d:__ZNK11Rigidbody2D16GetPointVelocityERK8Vector2f
d$a:__ZN6prcoreL10inner_flipILj4EEEvPhS1_j
jLb:__ZN18StreamedBinaryReadILb0EE21TransferSTLStyleArrayI10vector_mapIPKN5Unity4TypeE7Hash128NSt3__24lessIS6_EENS8_9allocatorINS8_4pairIS6_S7_EEEEEEEvRT_17TransferMetaFlags
sU:__ZNK27StateMachineBehaviourPlayer15IsSenderEnabledEv
whq:__ZN6il2cpp2gc19AppendOnlyGCHashMapINSt3__24pairIPK11Il2CppImageP11Il2CppClassEEP22Il2CppReflectionModule17ReflectionMapHashIS9_ENS2_8equal_toIS9_EEE11TryGetValueERKS9_PSB_
npg:_TMP_Text_get_havePropertiesChanged_m3308058393
lxj:_RijndaelManagedTransform_TransformBlock_m1610137419
VXm:_Enumerator_System_Collections_IDictionaryEnumerator_get_Entry_m1355283127_gshared
N4c:__Z40Register_UnityEngine_Transform_SetParentv
BBg:_TMP_TextEventHandler_Awake_m3560580738
Zwk:_Array_Sort_TisWeightInfo_t1982677921_m2729178048_gshared
wDb:__ZN14Texture2DArray17UploadToGfxDeviceEv
gnp:_Event_set_displayIndex_m1342258734
T5:__Z14FMODMemoryFreePvjPKc
Bp:FUNCTION_TABLE_iiffffffi
Lam:_Int16_System_IConvertible_ToType_m3672347013
dyp:_NetFxCoreExtensions_GetMethodInfo_m444570327
lRm:_Type_get_IsSystemType_m624798880
wnc:__Z14SetSHConstantsR13BatchRendererR17ShaderPassContextRK20SphericalHarmonicsL2b
nx:__ZN12NavMeshAgent10SmartResetEv
CMf:_tt_cmap0_validate
PGf:_cf2_glyphpath_moveTo
M8i:_TextMeshPro_GetSharedMaterials_m546824692
TXe:__ZN5physx3Scb4Body9syncStateEv
L7o:_X509Extension_ToString_m3727002866
cxp:_Vector3_get_magnitude_m27958459_AdjustorThunk
uSd:__ZNK13BoxCollider2D22GetTypeVirtualInternalEv
Csp:_StackTraceUtility_SetProjectFolder_m830524047
VQ:__ZN7mecanim23TransformValueArrayLoopEiiiRKN4math4trsXES3_RNS_10ValueArrayEf
zKk:_ClientSessionInfo_Finalize_m2165787049
v_o:_List_1_Contains_m1908611371_gshared
ted:__ZN5IMGUI14GUIWindowStateD2Ev
wJk:_ClientContext_Clear_m1774063253
UOc:__ZN4Mesh17SetIndicesComplexEPKvjj16GfxPrimitiveTypeij
BEd:__Z20UpdateWholeSheet2TplIL27ParticleSystemCurveEvalMode1ELS0_0EEvfRK11MinMaxCurveS3_RK23ParticleSystemParticlesPf
ICm:_DateTime_AddSeconds_m332574389_AdjustorThunk
qcl:_PolyNode_AddChild_m1088082290
eBl:_Byte_System_IConvertible_ToSByte_m1869482168
ipg:_TMP_Text_set_useMaxVisibleDescender_m670812193
DZg:__Z99RuntimeInvoker_RuntimeObject_RuntimeObject_RuntimeObject_StreamingContext_t3711869237_RuntimeObjectPFvvEPK10MethodInfoPvPS4_
MWm:_Enumerator_get_CurrentValue_m3072423200_AdjustorThunk
rdc:__Z21PlayerStartFirstSceneb
lX:__ZN7mecanim5human10RetargetToEPKNS0_5HumanEPKNS0_9HumanPoseES6_RKN4math4trsXEPS4_PNS_8skeleton13SkeletonPoseTIS8_EESF_
NQ:__ZN7mecanim9animation8SeekClipERKNS0_12StreamedClipERNS0_18StreamedClipMemoryEf
zPl:_GameObject_Internal_AddComponentWithType_m3797731663
Eo:_emscripten_glIsTexture
jhh:__Z93RuntimeInvoker_Single_t1397266774_Vector3_t3722313464_Vector3_t3722313464_Vector3_t3722313464PFvvEPK10MethodInfoPvPS4_
oM:__ZN24CompressedAnimationCurveaSERKS_
Ne:_emscripten_glHint
Tpd:__ZN15PolynomialCurve22IsValidPolynomialCurveERK17AnimationCurveTplIfE
vFp:_Check_SourceAndPredicate_m2332465641
vYd:__ZZN10Collider2D15InitializeClassEvEN30FunctorImpl_98kDidAddComponent4CallEPviR11MessageData
yOf:_ft_var_readpackeddeltas
lBg:_U3CWarpTextU3Ec__Iterator0_MoveNext_m859178164
l4b:__Z35Transfer_Blittable_FixedBufferFieldI18StreamedBinaryReadILb1EEtEvRK29SerializationCommandArgumentsR31RuntimeSerializationCommandInfo
LTm:_UInt32_System_IConvertible_ToInt64_m2261037378
Ho:_SDL_UpperBlit
lqb:__Z35GetTextureDecodeValuesWithIntensity16TextureUsageMode17TextureColorSpace10ColorSpacef
d1o:_List_1_System_Collections_IList_IndexOf_m2444653486_gshared
HRk:_Array_InternalArray__ICollection_Remove_TisChar_t3634460470_m4143749387_gshared
Nfc:__ZN15dense_hashtableINSt3__24pairIK9TextureIDiEES2_14GfxGenericHashIS2_EN14GfxDoubleCacheIS2_iS6_NS0_8equal_toIS2_EEN31GfxDoubleCacheConcurrencyPolicy11LocklessGetE42GfxDoubleCacheDefaultEmptyDeletedGeneratorIS2_EE9SelectKeyES9_13stl_allocatorIS4_L18MemLabelIdentifier24ELi16EEE14squash_deletedEv
zWo:_List_1_CheckMatch_m1421962820_gshared
YBe:__ZNK5physx7NpShape16getContactOffsetEv
Wmg:_TMP_SubMeshUI_OnTransformParentChanged_m2163921491
T7e:__ZN5physx14PxsAABBManager21processAggregatePairsEPKNS_19AggregateSortedDataE
NMd:__ZNK12b2MouseJoint10GetAnchorAEv
X5l:_GregorianCalendar__ctor_m979779718
ONk:_SslClientStream__ctor_m2402546929
gac:__ZN14SafeBinaryRead20OverrideRootTypeNameEPKc
Rta:__ZN14FileCacherRead16UnlockCacheBlockEj
cmn:_Enumerator_MoveNext_m1559190227_gshared
sxk:_Array_Sort_TisDoublePoint_t3941534089_m3837980237_gshared
eCa:__ZN10InstancingL21OnGraphicsCapsChangedEv
iHi:__ZL68ProCamera2DSpeedBasedZoom_t3450403318_CustomAttributesCacheGeneratorP21CustomAttributesCache
Edn:_Dictionary_2_InitArrays_m3098915476_gshared
rPm:_WaitHandle_get_Handle_m3260446580
hnn:_Enumerator_VerifyState_m1745883925_AdjustorThunk
_f:_emscripten_glUniform1f
QBc:__ZN13dynamic_arrayIS_I8Vector2fLj4EELj4EE18resize_initializedEjRKS1_12ResizePolicy
nTf:__Z20ParseImageParametersR11UTF16StringRiRN20TextRenderingPrivate16TextFormatChangeE
Nqi:__ZL55CanvasScaler_t2767979955_CustomAttributesCacheGeneratorP21CustomAttributesCache
De:_emscripten_glUniform1i
Zil:_Water2D_Simulation_OnTriggerExit_m1283902950
F$b:__Z18Transfer_BlittableI24GenerateTypeTreeTransferLb1EN4math12int3_storageEEvRK29SerializationCommandArgumentsR31RuntimeSerializationCommandInfo
xhf:__ZN5physx2Sc19ShapeInstancePairLL23postIslandGenSecondPassEv
Kae:__ZN5physx3Cct26CharacterControllerManager16createControllerERKNS_16PxControllerDescE
QMa:__ZN9ShaderLab16SerializedTagMapaSERKS0_
Ria:__ZN11UnityEngine15CloudWebService16SessionContainer20RestoreSessionHeaderERKN4core12basic_stringIcNS2_20StringStorageDefaultIcEEEES8_RNS0_13SessionHeaderE
g1e:__ZN5physx2Sq16BucketPrunerCore12updateObjectERKNS_9PxBounds3ERKNS0_13PrunerPayloadE
Kgf:__ZN5physx18PxsDynamicsContext23atomIntegrationParallelEfPKPNS_11PxsBodyCoreEPKPNS_12PxsRigidBodyEjPKNS_2Cm13SpatialVectorEPNS_13PxcSolverBodyEPNS_17PxcSolverBodyDataEPSA_RjSI_RNS_10PxBaseTaskE
zY:__ZN11UnityEngine9Animation27CreateAvatarBindingConstantER9TransformPKN7mecanim9animation14AvatarConstantERNS3_6memory9AllocatorE
LYg:__Z151RuntimeInvoker_RuntimeObject_Int32_t2950945753_RuntimeObject_ObjectU5BU5DU26_t712384779_RuntimeObject_RuntimeObject_RuntimeObject_ObjectU26_t2146539884PFvvEPK10MethodInfoPvPS4_
ZUc:__ZN9BlobWriteC2ER13dynamic_arrayIhLj16EE24TransferInstructionFlags19BuildTargetPlatform
Du:__ZN12NavMeshAgent14OnNavMeshAddedEv
dsa:__ZN14MessageHandler3GetEv
OKh:__ZL70ReliabilityContractAttribute_t502331440_CustomAttributesCacheGeneratorP21CustomAttributesCache
oZa:__ZN10DynamicVBO9DrawChunkERK21DynamicVBOChunkHandle17ShaderChannelMaskS3_P17VertexDeclarationPKNS_10DrawParamsEi
Feg:_TMP_FontUtilities_SearchForGlyphInternal_m3365203311
Te:_emscripten_glAttachShader
Jzc:__Z16tesedgeIntersectP10TESSvertexS0_S0_S0_S0_
Nna:__Z40DebugStringToFilePostprocessedStacktraceRK21DebugStringToFileData
Okh:__Z107RuntimeInvoker_Vector4_t3319028937_RuntimeObject_Vector3_t3722313464_Vector3_t3722313464_Single_t1397266774PFvvEPK10MethodInfoPvPS4_
gNa:__ZNSt3__26vectorIN4core12basic_stringIcNS1_20StringStorageDefaultIcEEEENS_9allocatorIS5_EEE6assignIPS5_EENS_9enable_ifIXaasr21__is_forward_iteratorIT_EE5valuesr16is_constructibleIS5_NS_15iterator_traitsISC_E9referenceEEE5valueEvE4typeESC_SC_
$8d:__ZN5physx2Gu19GetRaycastFuncTableEv
wAg:_VertexShakeA_Start_m1684282329
Bqk:_InternalEnumerator_1_get_Current_m3331252162_AdjustorThunk
LWq:__ZNKSt3__29money_getIcNS_19istreambuf_iteratorIcNS_11char_traitsIcEEEEE6do_getES4_S4_bRNS_8ios_baseERjRNS_12basic_stringIcS3_NS_9allocatorIcEEEE
cWb:__Z18Transfer_BlittableI14SafeBinaryReadLb0E11QuaternionfEvRK29SerializationCommandArgumentsR31RuntimeSerializationCommandInfo
rlp:_TMP_TextInfo_CopyMeshInfoVertexData_m3153789219
rSd:__ZN13BoxCollider2D16CheckConsistencyEv
phf:__ZN5physx17EdgeChangeManager23cleanupBrokenEdgeEventsEPKNS_4EdgeE
r7b:__Z18Transfer_BlittableI18StreamedBinaryReadILb0EELb1E12PropertyNameEvRK29SerializationCommandArgumentsR31RuntimeSerializationCommandInfo
una:_tlsf_walk_heap
Fao:_Dictionary_2_GetObjectData_m3261928477_gshared
kYg:__Z49RuntimeInvoker_Void_t1185182177_OpCode_t123070264PFvvEPK10MethodInfoPvPS4_
dge:__ZN5physx2Sc35ParticleElementRbElementInteraction7destroyEbj
Bkh:__Z127RuntimeInvoker_Boolean_t97287965_RuntimeObject_RuntimeObject_RuntimeObject_RuntimeObject_IntPoint_t2151561958_SByte_t1669577662PFvvEPK10MethodInfoPvPS4_
ULg:_ProCamera2D_get_Exists_m2791963365
LAm:_Convert_ToUInt32_m3592050311
jfn:_GenericEqualityComparer_1_Equals_m1167220636_gshared
ec:invoke_vif
aAk:_Component_GetComponents_TisRuntimeObject_m2416546752_gshared
fc:invoke_vid
BVf:__Z38Register_UnityEngine_TextMesh_get_fontv
Lx:__ZN12CrowdManager21UpdateAgentParametersEyPK16CrowdAgentParams
hc:invoke_vii
Uic:__ZNK12ImageFilters8DoRenderER17ShaderPassContextP13RenderTextureS3_RKNSt3__26vectorI11ImageFilterNS4_9allocatorIS6_EEEE
kWe:__ZN5physx13NpVolumeCacheD2Ev
Lbb:__ZN12TLSAllocatorI14StackAllocatorE16ThreadInitializeEP13BaseAllocator
n_g:__Z82RuntimeInvoker_Boolean_t97287965_SByte_t1669577662_RuntimeObject_SByte_t1669577662PFvvEPK10MethodInfoPvPS4_
RRa:__ZN9GfxDevice32UpdateStereoViewProjectionMatrixE21MonoOrStereoscopicEye
doo:__ZN21InterfaceFuncInvoker0IdE6InvokeEjP11Il2CppClassP12Il2CppObject
kef:__ZThn8_N5physx2Sc35ParticleElementRbElementInteraction12onDeactivateEj
c_f:__Z41CanvasRenderer_CUSTOM_DisableRectClippingP12Il2CppObject
OZj:_MonoType_GetConstructorImpl_m441167626
b4e:__ZN5physx16PxsThreadContextC2EPNS_10PxsContextE
okj:_DefaultControls_CreateRawImage_m4219873755
Byo:_Collection_1_IsFixedSize_m3709118201_gshared
Vfb:__ZN25SingleBlockMemoryFileDataD0Ev
Sbb:__ZNSt3__26vectorI14ConstantStringNS_9allocatorIS1_EEE6assignINS_11__wrap_iterIPS1_EEEENS_9enable_ifIXaasr21__is_forward_iteratorIT_EE5valuesr16is_constructibleIS1_NS_15iterator_traitsISA_E9referenceEEE5valueEvE4typeESA_SA_
s$d:__ZN5physx3Cct10Controller4moveERNS0_11SweptVolumeERKNS_6PxVec3EffRKNS_19PxControllerFiltersEPKNS_17PxObstacleContextEb
Mia:__ZN11UnityEngine15CloudWebService16SessionContainer21ConvertFromFolderTimeERKN4core12basic_stringIcNS2_20StringStorageDefaultIcEEEEPjPt
DNe:__ZN5physx14NpRigidDynamic17setAngularDampingEf
PXb:__ZNSt3__26vectorI8GUIStyle13stl_allocatorIS1_L18MemLabelIdentifier1ELi16EEE7reserveEj
sgl:_RippleSource_NewPeriod_m3131895281
Irq:__ZN6il2cpp6icalls8mscorlib6System9Threading6Thread27GetSerializedCurrentCultureEP12Il2CppThread
WKk:_Context_set_ReadSequenceNumber_m2154909392
gxj:_RijndaelTransform_SubByte_m3037693507
MKl:_Camera_ScreenToWorldPoint_m3978588570
nbq:__ZNSt3__26__treeIP11Il2CppClassNS_4lessIS2_EENS_9allocatorIS2_EEE7destroyEPNS_11__tree_nodeIS2_PvEE
azc:__Z31CalculateHierarchyTransformType23TransformAccessReadOnly
aDc:__Z13RegisterClassI11TimeManagerEvv
Rap:_ExpressionCollection_Add_m41125344
K5:__ZN4FMOD8ChannelI11setPositionEjj
O0j:_NumberFormatter_FastIntegerToString_m390846811
TQl:_Input_INTERNAL_CALL_GetTouch_m3481893561
fRk:_Array_InternalArray__ICollection_Contains_TisParticleCollisionEvent_t4055032941_m655273163_gshared
OBf:__ZN12PhysXRaycast12CleanupClassEv
RGq:_GC_set_fl_marks
MZk:_Array_InternalArray__IndexOf_TisPlayable_t459825607_m3299294341_gshared
Ome:__ZN5physx6shdfnd8PoolBaseINS_2Sc12SimStateDataENS0_19ReflectionAllocatorIS3_EEE17releaseEmptySlabsEv
Goj:_Image__ctor_m2551076292
URa:__ZN9GfxDevice17SetStereoViewportE15StereoscopicEyeRK5RectTIiE
wIa:__ZN17BaseObjectManager13StaticDestroyEPv
wXp:_CanvasRenderer_INTERNAL_CALL_GetColor_m597074473
uMm:_UTF7Decoder_GetChars_m3413809261
h3d:__ZN5physx2Gu22closestPtPointTriangleEPNS_6shdfnd3aos5Vec3VES4_S4_Rj
ZWi:_ProCamera2DPointerInfluence_Awake_m4225344640
Jwe:__ZN5physx2Cm8PtrTableC2Ev
sXq:__ZNKSt3__28messagesIwE6do_getEiiiRKNS_12basic_stringIwNS_11char_traitsIwEENS_9allocatorIwEEEE
mup:_Vector3_get_forward_m3100859705
yHm:_Double_Equals_m2309369974_AdjustorThunk
C4:__ZN4FMOD6Reverb13setPropertiesEPK22FMOD_REVERB_PROPERTIES
Fkc:__ZN9DepthPass13PrepareSubsetEjRK10RenderNodeifRK17ShaderReplaceData
l7e:__ZN5physx16PxsBroadPhaseMBP6updateEjjRKNS_23PxcBroadPhaseUpdateDataEPNS_10PxBaseTaskE
xAe:__ZN5physx9NpPhysics18createRigidDynamicERKNS_11PxTransformE
Dhe:__ZN5physx6shdfnd5ArrayIPvNS0_19ReflectionAllocatorINS_2Sc18TriggerInteractionEEEE15growAndPushBackERKS2_
VLa:__ZN9ShaderLab20SerializedSubProgram16TextureParameter8TransferI14SafeBinaryReadEEvRT_
kPc:__Z35SetMeshComponentFromArrayFromScriptR4Mesh30InternalScriptingShaderChannel34InternalScriptingVertexChannelTypei17ScriptingArrayPtri
XZn:_Array_InternalArray__ICollection_Add_TisCustomAttributeNamedArgument_t287865710_m4157175270_gshared
B6d:__ZN5physx2Gu17intersectRayAABB2ERKNS_6shdfnd3aos5Vec3VES5_S5_S5_RKNS2_6FloatVERS6_S9_
ow:__ZN4core20StringStorageDefaultIcE6assignEPKcj
QUm:_UInt64_System_IConvertible_ToUInt64_m2135047981_AdjustorThunk
FBe:__ZNK5physx7NpShape17getSphereGeometryERNS_16PxSphereGeometryE
qEk:_BigInteger_ModPow_m3776562770
D8d:__ZL18intersectAnyVsMeshILi1EEbPKN5physx2Gu6SphereEPKNS1_7CapsuleEPKNS1_3BoxERKNS1_13RTreeMidphaseERKNS0_11PxTransformERKNS0_11PxMeshScaleEP14LimitedResults
vIn:_ReadOnlyCollection_1_System_Collections_Generic_IListU3CTU3E_set_Item_m3734393854_gshared
UHc:__ZN15SharedLightDataC2E10MemLabelId
O8m:_ValueCollection_System_Collections_ICollection_get_SyncRoot_m3381653267_gshared
uDl:_ArrayList_IndexOf_m305368842
Xlo:_TimelineAsset_get_flattenedTracks_m2158123518
WOn:_Comparison_1_BeginInvoke_m771564713_gshared
Wke:__ZN5physx6shdfnd5ArrayIPvNS0_15InlineAllocatorILj256ENS0_19ReflectionAllocatorINS_2Cm5BlockIhLj128EEEEEEEE15growAndPushBackERKS2_
Gtc:__ZN6Camera6SetFarEf
mFj:_FormatterConverter_ToBoolean_m1680758923
tQc:__ZNK17AnimationCurveTplI11QuaternionfE13EvaluateClampEfPNS1_5CacheE
LRk:_Array_InternalArray__ICollection_Remove_TisKeyValuePair_2_t1383673463_m2503620538_gshared
t0a:__ZN6prcoreL12RemapGenericI17TexFormatABGR888817TexFormatARGB8888EEvPKNS_9InnerInfoE
Rgb:__ZN11GameManager17MainThreadCleanupEv
KMo:_ReadOnlyCollection_1__ctor_m1345363288_gshared
R$f:__Z50Register_UnityEngine_UISystemProfilerApi_EndSamplev
x_q:__ZNKSt3__212basic_stringIcNS_11char_traitsIcEENS_9allocatorIcEEE4findEcj
znp:_GUI_INTERNAL_CALL_DoLabel_m2007226197
bAm:_Convert_ToSingle_m2891972375
CSd:__ZN10Collider2D12AddToManagerEv
dpd:__ZN14ParticleSystem10ResetSeedsEv
aqj:_SerializationCallbacks_GetSerializationCallbacks_m2939476649
hEe:__ZNK5physx7NpCloth24getParticleAccelerationsEPNS_6PxVec4E
WGl:_Hashtable__cctor_m4112166779
hNf:_UNITY_tt_slot_init
Ogc:__ZZ23InitPlayerLoopCallbacksvEN41PostLateUpdateUpdateResolutionRegistrator7ForwardEv
c9b:__Z25scripting_array_class_get17ScriptingClassPtrj
H1:__ZNK10SampleClip22GetTypeVirtualInternalEv
bTa:__ZN9GfxDevice20DestroyRenderSurfaceER12ObjectHandleI17RenderSurface_TagP17RenderSurfaceBaseE
fvm:_Stack__ctor_m2602729586
jLq:__ZNSt3__26__treeINS_12__value_typeINS_12basic_stringIcNS_11char_traitsIcEENS_9allocatorIcEEEEPFvvEEENS_19__map_value_compareIS7_SA_NS_4lessIS7_EELb1EEENS5_ISA_EEE25__emplace_unique_key_argsIS7_JRKNS_21piecewise_construct_tENS_5tupleIJOS7_EEENSL_IJEEEEEENS_4pairINS_15__tree_iteratorISA_PNS_11__tree_nodeISA_PvEEiEEbEERKT_DpOT0_
oBc:__ZL24PrepareSpriteRenderNodesILb1EEvR35RenderNodeQueuePrepareThreadContext
Von:_List_1_Contains_m3642045534_gshared
hab:__ZN9GfxDevice22UpdateComputeResourcesEjPK9TextureIDPK16TextureDimensionPKijPKjjPK15ComputeBufferIDS7_PK20ComputeBufferCounterjSC_S2_S5_S9_SF_
Gua:__ZN12_GLOBAL__N_15qAsinEff
lek:_InternalEnumerator_1_System_Collections_IEnumerator_get_Current_m2629988057_AdjustorThunk
Mbb:__ZN12TLSAllocatorI14StackAllocatorE13ThreadCleanupEv
O8n:_Dictionary_2_get_Item_m2136868513_gshared
MVm:_ValueType_InternalEquals_m1384040357
$Hg:_BoundariesAnimator_TopTransitionRoutine_m1209533065
CXd:__Z13RegisterClassI15AnchoredJoint2DEvv
Qbc:__Z27FindActiveTransformWithPathPKc
lXc:__Z45Register_UnityEngine_Camera_INTERNAL_set_rectv
kJn:_ReadOnlyCollection_1_System_Collections_IList_Remove_m4169110229_gshared
pTm:_UInt16_ToString_m3020002356
YRe:__ZN5physx16PxsIslandManager14setEdgeRigidCMERKNS_20PxsIslandManagerHookIjLj4294967295EEEPNS_17PxsContactManagerE
g3k:_LayoutRebuilder_LayoutComplete_m68578143
Gum:_SortedList_Find_m3363512987
Mlf:__ZN5physx2Gu11HeightField7releaseEv
$oa:__ZNK6Camera7GetNearEv
H6j:_GenericTypeParameterBuilder_GetConstructorImpl_m863833310
FA:__Z23CalcCapsuleWorldExtentsP8Vector3fRKS_S2_S2_S2_
o3a:__ZN7ApiGLES11UnmapBufferEjN2gl12BufferTargetE
pyb:__Z25GetNextAllowedTextureSizeib13TextureFormat
Ibc:__ZN20LocalFileSystemWebGL4CopyER13FileEntryDataS1_
tla:__ZN19CloudServiceHandler6RetainEv
ANo:_ReadOnlyCollection_1_System_Collections_IList_IndexOf_m198887188_gshared
hfd:__Z36Event_CUSTOM_Internal_SetNativeEventPv
XZ:__ZNK31AnimationMotionXToDeltaPlayable7GetTypeEv
owa:__ZN12BaseRenderer20FlattenToRenderQueueER15RenderNodeQueueRK20DeprecatedSourceData
Ndf:__ZN5physx2Sc8ClothSim23addCollisionHeightfieldEPKNS0_8ShapeSimE
Eun:_List_1_System_Collections_IList_Add_m1651178974_gshared
wQb:__Z34scripting_liveness_calculation_endPv
IBl:_Char_GetDataTablePointers_m754571594
Xzq:__ZN6il2cpp2os6ThreadC2Ev
S6m:_ValueCollection_System_Collections_Generic_ICollectionU3CTValueU3E_Remove_m3603676314_gshared
ODm:_DateTimeOffset_get_UtcDateTime_m1021718282_AdjustorThunk
Pu:__ZN7NavMesh25SetOffMeshConnectionFlagsEyj
iQ:__ZN21AnimationClipPlayable22ProcessAnimationNoClipEPK35AnimationPlayableEvaluationConstantPK32AnimationPlayableEvaluationInputP33AnimationPlayableEvaluationOutput
bga:__ZN27AudioPlayableOutputBindings17InternalGetTargetERK15HPlayableOutput
_ah:__Z181RuntimeInvoker_Void_t1185182177_Int32_t2950945753_Int32_t2950945753_RectU26_t1284589061_RuntimeObject_RuntimeObject_RuntimeObject_RuntimeObject_SByte_t1669577662_RectU26_t1284589061PFvvEPK10MethodInfoPvPS4_
gjl:_HybridDictionary_get_Count_m1166314536
o4o:_TlsStream_Write_m1412844442
mld:__Z18Transfer_BlittableI8JSONReadLb0E8Vector3fEvRK29SerializationCommandArgumentsR31RuntimeSerializationCommandInfo
SL:__ZN13AnimationClip12Vector3Curve8TransferI14SafeBinaryReadEEvRT_
wxk:_Array_Sort_TisIntPoint_t2151561958_m1106633318_gshared
uTl:_Matrix4x4__ctor_m53065545_AdjustorThunk
Npq:__ZN6il2cpp2vm6Thread6DetachEP12Il2CppThread
R4o:_GeneralNames_get_DNSNames_m3788548987
cQf:_Render_Single_Pass
Mce:__GLOBAL__sub_I_runtime_dynamics_2_cpp
DGg:_BaseTrigger_TestTriggerRoutine_m4224911827
lvk:_Array_Resize_TisTMP_LinkInfo_t1092083476_m1634825734_gshared
FY:__ZN7mecanim8skeleton30SkeletonBuildReverseIndexArrayEPiPKiPKNS0_8SkeletonES6_
Ycd:__Z19GetGUIBlendMaterialv
jYj:_Math_Round_m3018379666
AQf:__ZN13TextRendering4Font23VirtualRedirectTransferER17RemapPPtrTransfer
DBg:_TMP_TextEventHandler_SendOnCharacterSelection_m191067394
MAq:__ZN6il2cpp2os10ThreadImpl5SleepEjb
CNo:_ReadOnlyCollection_1_System_Collections_IList_Remove_m1965826685_gshared
z6e:__ZN5physx14SapPairManager12shrinkMemoryEv
rGp:_AudioClipPlayable_SetStartDelayInternal_m1387185637
OFm:_Delegate_CreateDelegate_m1051651521
_pf:__ZN5physx6shdfnd8internal7median3IjKNS_19SortBoundsPredicateEEEvPT_iiRT0_
bUk:_PlayableHandle_IsPlayableOfType_TisRuntimeObject_m503495943_AdjustorThunk
ZD:__ZN18AnimatorController23VirtualRedirectTransferER24GenerateTypeTreeTransfer
Y7q:_emscripten_glGetFramebufferAttachmentParameteriv__wrapper
k9q:_glBindSampler__wrapper
cWl:_Object_get_hideFlags_m3233469693
Igb:__ZNSt3__26vectorIN20ArchiveStorageHeader12StorageBlockE13stl_allocatorIS2_L18MemLabelIdentifier55ELi16EEE8__appendEj
yop:_SliderHandler_PageMovementValue_m2815790958
Gh:_emscripten_set_mouseup_callback
FKa:__Z14resize_trimmedINSt3__26vectorIN9ShaderLab14SerializedPassENS0_9allocatorIS3_EEEEEvRT_j
hTl:_Mathf_Clamp_m3350697880
Tu:__ZN7NavMesh24ConnectOffMeshConnectionEjff
Grn:_List_1_System_Collections_IList_Remove_m3140917266_gshared
rgg:_TMP_InputField_get_wasCanceled_m1313358346
Bap:_CompositeExpression__ctor_m2434860303
Ofh:__Z73RuntimeInvoker_Color32_t2600501292_Color32_t2600501292_Single_t1397266774PFvvEPK10MethodInfoPvPS4_
KUe:__ZN5physx7NpScene22removeBroadPhaseRegionEj
Whe:__ZL34GeomOverlapCallback_CapsuleCapsuleRKN5physx10PxGeometryERKNS_11PxTransformES2_S5_PNS_2Gu12TriggerCacheE
Dko:_AudioPlayableAsset_get_duration_m1116545834
Gvc:__ZNK18ScreenManagerWebGL8GetWidthEv
STe:__ZNK5physx7NpScene23getFilterShaderDataSizeEv
Y1m:_Transform_1_Invoke_m1211838035_gshared
E1:__ZN10SampleClipD2Ev
Qrj:_SerializationObjectManager_RegisterObject_m951822324
RPb:__Z13GetGISettingsv
NAc:__ZN19SpriteMeshGenerator7contourERNSt3__26vectorINS_6vertexENS0_9allocatorIS2_EEEERiRf
dla:__ZN11UnityEngine15CloudWebService20WebRequestRestClientC2Ev
AIf:_cff_cmap_unicode_init
lVf:__Z31Font_CUSTOM_Internal_CreateFontP12Il2CppObjectP12Il2CppString
dxo:_Collection_1_IsValidItem_m3080586124_gshared
MBa:__ZNSt3__26__treeI19RepeatingLogMessageNS_4lessIS1_EE13stl_allocatorIS1_L18MemLabelIdentifier73ELi16EEE4findIS1_EENS_15__tree_iteratorIS1_PNS_11__tree_nodeIS1_PvEEiEERKT_
rij:_ClipperRegistry_Register_m2407166513
Qiq:__ZN15dense_hashtableINSt3__24pairIK10KeyWrapperINS1_IPK9EventInfoP11Il2CppClassEEEjEES9_17ReflectionMapHashIS8_EN14dense_hash_mapIS9_jSD_NS9_14EqualsComparerINS0_8equal_toIS8_EEEENS0_9allocatorISB_EEE9SelectKeyESI_SK_E12resize_deltaEjj
WMj:_MonoCMethod_Invoke_m2700167622
QHl:_KeyMarker__cctor_m2590194914
prd:__ZN14ParticleSystem38UpdateModulesPostSimulationIncrementalER24ParticleSystemUpdateDataR23ParticleSystemParticlesjRKf
cLq:__ZN6il2cpp8metadata14Il2CppTypeHash4HashEPK10Il2CppType
d_m:_Enumerator_Reset_m627751027_AdjustorThunk
iMq:__ZN6il2cpp2os13SemaphoreImplC2Eii
gEq:__ZN6il2cpp6icalls8mscorlib6System15MonoCustomAttrs31GetCustomAttributesDataInternalEP12Il2CppObject
Vlp:_TMP_UpdateManager_RegisterTextElementForGraphicRebuild_m2364359138
rjg:_TMP_MaterialManager_RemoveFallbackMaterialReference_m3844316535
_Nj:_MonoMethod__ctor_m3792454563
tqn:_List_1_get_Item_m3345800295_gshared
cIb:__ZNK6Sprite9GetBoundsE8Vector2fbb
fkb:__ZNK19RenderEventsContext21CleanupCommandBuffersEv
wUp:_TextGenerator_PopulateWithErrors_m1222498386
cF:__ZN7mecanim12statemachine13StateConstant8TransferI14SafeBinaryReadEEvRT_
XWa:__ZN11ContextGLES6CreateEi
b8d:__ZN5physx6shdfnd5ArrayINS_10PxTriangleENS0_19ReflectionAllocatorIS2_EEE15growAndPushBackERKS2_
x1l:_RectTransform_INTERNAL_set_anchoredPosition_m939517950
SQo:_List_1_set_Capacity_m3382070520_gshared
pFm:_Decimal_CompareTo_m3502307243_AdjustorThunk
f8b:__Z19TransferField_ArrayI18StreamedBinaryReadILb0EE27Converter_SimpleNativeClassI17AnimationCurveTplIfEEEvRK23StaticTransferFieldInfoR31RuntimeSerializationCommandInfoRT0_
qop:_SliderHandler_OnRepaint_m3595791619
HWn:_TMP_XmlTagStack_1_CurrentItem_m3490915197_AdjustorThunk
DWc:__Z48Camera_CUSTOM_INTERNAL_CALL_ViewportToWorldPointP12Il2CppObjectRK8Vector3fRS1_
nbb:__ZN14StackAllocator16FrameMaintenanceEb
t3d:__ZL11SweepBoxBoxPKN5physx3Cct9SweepTestEPKNS0_11SweptVolumeEPKNS0_11TouchedGeomERKNS_14PxExtendedVec3ERKNS_6PxVec3ERNS0_12SweptContactE
wYd:__ZZN10Collider2D15InitializeClassEvEN33FunctorImpl_99kDidRemoveComponent4CallEPviR11MessageData
g6k:_Scrollbar_get_value_m760470106
epa:__ZNK10GameObject20QueryComponentByTypeEPKN5Unity4TypeE
heg:_TMP_Glyph_Clone_m2316553149
IEm:_Decimal_System_IConvertible_ToInt32_m1488426794_AdjustorThunk
TYj:_MonoCustomAttrs_IsUserCattrProvider_m2878058089
nQg:_ProCamera2DLetterbox_get_material_m4033669508
_ga:__Z49Register_UnityEngine_AudioSource_set_spatialBlendv
Psp:_TextAsset_ToString_m2170047097
qoi:__ZL71InputField_t3762917431_CustomAttributesCacheGenerator_m_HideMobileInputP21CustomAttributesCache
Bxb:__ZN11TextureData5ResetEv
TYc:__Z53Register_UnityEngine_GameObject_get_activeInHierarchyv
D3l:_SceneManager_GetSceneByName_m4162778335
fwl:_ActivationContext_Dispose_m2038725770
vra:__ZL30InitializeCoreScriptingClassesv
Hi:_glBlitFramebuffer
OZe:__ZNK5physx2Sc5Scene17prefetchForRemoveERKNS0_10StaticCoreE
enn:_Enumerator_System_Collections_IEnumerator_get_Current_m3594024719_gshared
CZb:__Z35Transfer_Blittable_SingleValueFieldI14SafeBinaryReadhEvRT_R17GeneralMonoObjectRK23StaticTransferFieldInfo
eXo:_List_1_System_Collections_IList_Insert_m1686259618_gshared
$zq:__ZN6il2cpp2os6ThreadD2Ev
D_f:__Z47Register_UnityEngine_CanvasRenderer_GetMaterialv
H$n:_Array_InternalArray__ICollection_CopyTo_TisInt64_t3736567304_m2845057751_gshared
Gwb:__ZNK12CubemapArray22GetTypeVirtualInternalEv
Npb:__ZN11Tetrahedron8TransferI18StreamedBinaryReadILb0EEEEvRT_
_q:FUNCTION_TABLE_vif
$q:FUNCTION_TABLE_vid
Axj:_ContextAttribute_GetPropertiesForNewContext_m1632930262
br:FUNCTION_TABLE_vii
HQb:__Z40scripting_liveness_calculation_from_root18ScriptingObjectPtrPv
YAd:__ZN13InitialModuleD2Ev
ntb:__ZN7Texture23VirtualRedirectTransferER24GenerateTypeTreeTransfer
dSf:_UNITY_FT_Set_Transform
exq:__ZN6il2cpp8metadata15GenericMetadata20RegisterGenericClassEP18Il2CppGenericClass
jBi:__ZL60PerfectPixelCamera_t243485944_CustomAttributesCacheGeneratorP21CustomAttributesCache
P8q:_glDeleteFramebuffers__wrapper
Rgk:_InternalEnumerator_1_System_Collections_IEnumerator_get_Current_m782232053_AdjustorThunk
kWg:__Z220RuntimeInvoker_Boolean_t97287965_RuntimeObject_Int32U26_t1369213839_Int32_t2950945753_Int32_t2950945753_Int32_t2950945753_RuntimeObject_SByte_t1669577662_Int32_t2950945753_ContractionU26_t961830454_ContextU26_t3937453398PFvvEPK10MethodInfoPvPS4_
Dzn:_BitConverterLE_GetUIntBytes_m949779219
IGf:_cff_blend_build_vector
Kml:_WebHeaderCollection_ToString_m1263025316
SGc:__ZZN12MeshRenderer15InitializeClassEvEN29FunctorImpl_134kDidDeleteMesh4CallEPviR11MessageData
Eq:FUNCTION_TABLE_fifffffi
d6n:_Dictionary_2_System_Collections_IDictionary_set_Item_m977858099_gshared
Csm:_String_CreateString_m2818852475
YBc:__Z22GenerateBoxTilingShapeP22GenerateTilingAreaInfo
Mzb:__ZN28EnlightenRendererInformation8TransferI14SafeBinaryReadEEvRT_
ma:invoke_viiiiiifi
WXp:_CanvasRenderer_get_hasMoved_m2236392341
nxe:__ZN5physx12NpBatchQuery13getUserMemoryEv
K5c:__Z26GL_CUSTOM_GLClear_InjectedbbRK10ColorRGBAff
iKa:__ZNK15Lz4Decompressor16DecompressMemoryEPKvPjPvS2_
zLf:_UNITY_tt_face_build_cmaps
wUm:_UInt64_System_IConvertible_ToDecimal_m806594027
CBc:__ZN4core8hash_mapINS_12basic_stringIcNS_20StringStorageDefaultIcEEEE10vector_setI4PPtrI11SpriteAtlasENSt3__24lessIS8_EE13stl_allocatorIS8_L18MemLabelIdentifier81ELi16EEENS_4hashIS4_EENS9_8equal_toIS4_EEEixERKS4_
kXd:__ZN11Rigidbody2D8TransferI24GenerateTypeTreeTransferEEvRT_
uvb:__Z35UnityPropertySheet_MakeSortedColorsRKNSt3__23mapIN9ShaderLab16FastPropertyNameE10ColorRGBAfNS_4lessIS2_EENS_9allocatorINS_4pairIKS2_S3_EEEEEER10vector_mapIS2_S3_S5_NS6_INS7_IS2_S3_EEEEE
wyl:_Array_Copy_m514679699
VKf:_UNITY_tt_face_load_os2
V5c:__Z36MeshFilter_Get_Custom_PropSharedMeshP12Il2CppObject
NWd:__ZN17PolygonCollider2D8TransferI24GenerateTypeTreeTransferEEvRT_
J0n:_Array_InternalArray__ICollection_CopyTo_TisUICharInfo_t75501106_m4268526610_gshared
Kke:__ZN5physx6shdfnd8PoolBaseINS_2Sc19ConstraintGroupNodeENS0_19ReflectionAllocatorIS3_EEE17releaseEmptySlabsEv
WYb:__Z29Transfer_Blittable_ArrayFieldI14SafeBinaryRead8Vector4fEvRT_R9ArrayInfoRK23StaticTransferFieldInfo
dkg:_TMP_PhoneNumberValidator_Validate_m3826086623
BBf:__ZNSt3__27__sort4IRNS_6__lessI24InterpolationDepthHandleS2_EEPS2_EEjT0_S6_S6_S6_T_
OMm:_UTF8Encoding_GetMaxCharCount_m3762459613
ZFg:_Chest_Update_m2016107421
XPi:__ZL55Sounds_t3004079410_CustomAttributesCacheGenerator_pitchP21CustomAttributesCache
Rwk:_Array_Sort_TisPlayable_t459825607_m536922232_gshared
NHj:_ModuleBuilder_RegisterToken_m4166846047
Fgc:__ZZ23InitPlayerLoopCallbacksvEN51PostLateUpdateUpdateCustomRenderTexturesRegistrator7ForwardEv
p5k:_RawImage_OnPopulateMesh_m1115858855
p8p:__ZN6il2cpp2vm13MetadataCache25GetStringLiteralFromIndexEi
Iwl:_Hashtable_ToPrime_m33531354
GQ:__ZN7mecanim9animation12EvaluateClipEPKNS0_4ClipEPKNS0_9ClipInputEPNS0_10ClipMemoryEPNS0_10ClipOutputE
sYi:_ProCamera2DRooms_LimitToNumericBoundaries_m698760199
Fbe:__ZN5physx3Cct9SweepTest15onObstacleAddedEjPKNS_17PxObstacleContextERKNS_6PxVec3ES7_f
KTf:__ZN20TextRenderingPrivate7GUIText18GetFontAndMaterialEv
sSm:_TypeInitializationException__ctor_m3546444694
CSc:__ZNK9Transform16GetLocalRotationEv
Dka:__ZN11UnityEngine15CloudWebService23WebRequestUploadHandler17ConsumeUploadDataEj
f_i:_ProCamera2DTransitionsFX_Transition_m56316341
Qhm:_MemoryStream_set_Position_m3169779190
ysc:__ZN13RenderManager29SetCurrentCameraAndStackStateEP6CameraP25CameraStackRenderingState
kdj:_ExecuteEvents_get_scrollHandler_m2659345019
Eib:__ZNSt3__26__treeINS_12__value_typeIjN4core12basic_stringIcNS2_20StringStorageDefaultIcEEEEEENS_19__map_value_compareIjS7_NS_4lessIjEELb1EEE13stl_allocatorIS7_L18MemLabelIdentifier7ELi16EEE7destroyEPNS_11__tree_nodeIS7_PvEE
WJq:__ZN6il2cpp2vm10WaitHandle19NewManualResetEventEb
ypq:__ZN15dense_hashtableINSt3__24pairIK10KeyWrapperINS1_IP11Il2CppClassjEEES4_EES6_N6il2cpp8metadata14ArrayClassHashEN14dense_hash_mapIS6_S4_SB_NS6_14EqualsComparerINSA_17ArrayClassCompareEEENS0_9allocatorIS8_EEE9SelectKeyESF_SH_E12resize_deltaEjj
Zj:_JS_WebRequest_Release
YWm:_Enumerator_System_Collections_IEnumerator_Reset_m2031362704_AdjustorThunk
Tog:_TMP_Text_get_verticalMapping_m3439448941
W8f:__ZN20BrowserVideoPlaybackC2ERKN4core12basic_stringIcNS0_20StringStorageDefaultIcEEEEjjjbbPFvPvS6_EPFvS7_ESB_S7_
kja:__ZN11UnityEngine15CloudWebService14DataErrorEventD0Ev
uRq:_dispose_chunk
Ctq:__ZN6il2cpp6icalls8mscorlib6System4Type20internal_from_handleEi
VGg:_BballGameScript_Update_m505394723
sAl:_Boolean_System_IConvertible_ToUInt16_m3465173538_AdjustorThunk
hAd:__ZN14EmissionModule5ResetEv
B2i:_PlayerInput_IncrementTowards_m1760439509
ihp:_StandaloneInput_SetAxisPositive_m3047996072
avn:_List_1_CheckMatch_m2532733861_gshared
OUj:_Context__ctor_m254302079
e2e:__ZN5physx13PxsCCDContext12postCCDSweepEPNS_10PxBaseTaskE
bzb:__ZN19ShaderPropertySheet16SetArrayPropertyEN9ShaderLab16FastPropertyNameENS_12PropertyTypeEPKvj
P6k:_Selectable_FindSelectable_m2348614027
qih:__Z68RuntimeInvoker_Int32_t2950945753_Double_t594665363_Double_t594665363PFvvEPK10MethodInfoPvPS4_
ffr:b225
Plj:_DropdownItem_OnPointerEnter_m1492957598
Gqf:__ZN5physx6shdfnd10Foundation19AlignCheckAllocator28deregisterAllocationListenerERNS_20PxAllocationListenerE
vso:_TrackAsset__cctor_m640338342
Bed:__ZN8GUIState8EndOnGUIEv
xop:_SliderHandler_SliderState_m3376329127
Orq:__ZN6il2cpp6icalls8mscorlib6System2IO6MonoIO16get_ConsoleErrorEv
oNf:_UNITY_TT_Get_VMetrics
s4e:__ZN5physx33solveContactCoulombBlockWriteBackEPKNS_23PxcSolverConstraintDescEjRNS_16PxcSolverContextEPNS_25PxcThresholdStreamElementEjPi
JEl:_SimpleEnumerator__cctor_m2844299657
OXj:_LocalDataStoreSlot__ctor_m4104083971
gRg:_ProCamera2DPanAndZoom_RemoveFollowSmoothness_m2829120935
mHp:_AudioSource_ReadExtensionName_m725112169
S6o:_X509CertificateEnumerator_System_Collections_IEnumerator_Reset_m2039524926
fcf:__ZN5physx9PxTaskMgr17submitUnnamedTaskERNS_6PxTaskENS_10PxTaskType4EnumE
P1g:__Z128RuntimeInvoker_Void_t1185182177_RuntimeObject_BooleanU26_t4125257963_SByte_t1669577662_Int32U26_t1369213839_Int32U26_t1369213839PFvvEPK10MethodInfoPvPS4_
OZa:__ZN7Texture21GetMasterTextureLimitEv
nuc:__Z12CanAddScriptR10GameObject17ScriptingClassPtrPS1_S2_
YKm:_StringBuilder_Replace_m1968561789
Qlq:__ZN6il2cpp2vm10Reflection12HasAttributeEP12Il2CppObjectP11Il2CppClass
DYm:_Enumerator_get_CurrentKey_m3040957611_AdjustorThunk
Qlg:_TMP_SubMesh_UpdateMaterial_m1782664938
__h:__ZL53FlareLayer_t1739223323_CustomAttributesCacheGeneratorP21CustomAttributesCache
ACa:__ZN9ShaderLabL25StaticInitializeShaderLabEPv
Z$e:__ZNK5physx2Sq12BucketPruner5sweepERKNS0_9ShapeDataERKNS_6PxVec3ERfRNS0_14PrunerCallbackE
U:Math_max
gri:__ZL64HorizontalLayoutGroup_t2586782146_CustomAttributesCacheGeneratorP21CustomAttributesCache
z_p:_SpringJoint_set_spring_m3317999832
Gdn:_Dictionary_2_make_pair_m891994456_gshared
Mrp:_HitInfo_SendMessage_m1343099429_AdjustorThunk
I$b:__Z18Transfer_BlittableI24GenerateTypeTreeTransferLb0EN4math12int2_storageEEvRK29SerializationCommandArgumentsR31RuntimeSerializationCommandInfo
CFp:_AesManaged_GenerateKey_m2004209814
JGm:_StackTrace_get_trace_m1194606084
j9f:__ZNK20BrowserVideoPlayback12GetNumFramesEv
$pm:_Single_CompareTo_m2785801815_AdjustorThunk
dAq:__ZN6il2cpp2os6Thread16GetCurrentThreadEv
N1m:_Transform_1_BeginInvoke_m3665574335_gshared
r8i:_TextMeshPro_ForceMeshUpdate_m2778798400
x2n:_Array_InternalArray__Insert_TisUILineInfo_t4195266810_m3191124053_gshared
hJc:__ZN10GameObject13ComponentPair15SetComponentPtrEPN5Unity9ComponentE
Z6q:_glBlitFramebuffer__wrapper
iAf:__ZN5physx6shdfnd8internal8HashBaseINS0_4PairIKPKNS0_14NamedAllocatorEPKcEES6_NS0_4HashIS6_EENS1_11HashMapBaseIS6_S9_SC_NS0_20NonTrackingAllocatorEE6GetKeyESE_Lb1EE15reserveInternalEj
NCc:__Z13RegisterClassI10MeshFilterEvv
Kib:__ZN10TagManager8TransferI19StreamedBinaryWriteILb0EEEEvRT_
aQb:__ZN11PreloadData23VirtualRedirectTransferER18StreamedBinaryReadILb0EE
iYm:_Enumerator_VerifyCurrent_m2516497577_AdjustorThunk
Nbl:_ClipperBase_Clear_m150342344
QBl:_Char_System_IConvertible_ToDateTime_m3564102661
FBb:__ZN6Sprite17MainThreadCleanupEv
n7q:_glBlendFuncSeparate__wrapper
lVm:_UIntPtr_System_Runtime_Serialization_ISerializable_GetObjectData_m1767630151
xWn:_TMP_XmlTagStack_1_SetDefault_m4146060609_gshared
N7:__ZN10AudioMixer14UpdateMuteSoloEv
Rze:__ZN5physx6shdfnd5ArrayINS_3Scb13MaterialEventENS0_19ReflectionAllocatorIS3_EEE15growAndPushBackERKS3_
Xhb:__ZN9Transform35SetLocalPositionWithoutNotificationERKN4math7_float3Ey
w1g:__Z69RuntimeInvoker_UInt64_t4134040092_Int32_t2950945753_SByte_t1669577662PFvvEPK10MethodInfoPvPS4_
bl:_JS_Eval_ClearTimeout
rar:_glDepthFunc__wrapper
WUh:__ZL64ThreadStaticAttribute_t3840787420_CustomAttributesCacheGeneratorP21CustomAttributesCache
y2a:__ZN7ApiGLES16SetPatchVerticesEi
Tio:_U3CU3Ec__Iterator0_System_Collections_IEnumerable_GetEnumerator_m1733792427
Mcp:_CharacterClass_Compile_m3296067317
zme:__ZN5physx2Sc5Scene11onBodySleepEPNS0_7BodySimE
WBq:__ZN6il2cpp2gc16GarbageCollector16InvokeFinalizersEv
Lvp:_Vector2_Lerp_m854472224
dBl:_Byte_System_IConvertible_ToInt64_m285584218_AdjustorThunk
t0l:_Rect_get_size_m477575021_AdjustorThunk
T0p:__ZN6il2cpp2vm5Class20FromGenericParameterEPK22Il2CppGenericParameter
nYk:_Array_IndexOf_TisVector3_t3722313464_m4284163268_gshared
Sla:__ZN19CloudServiceHandler11FlushEventsEv
pcn:_Dictionary_2_ContainsKeyValuePair_m2384174870_gshared
OHa:__ZN15GlobalCallbacksC2Ev
yKg:_IntPoint_ToString_m83661580_AdjustorThunk
eNd:__ZN7b2World10CreateBodyEPK9b2BodyDef
Kuk:_Comparer_1_System_Collections_IComparer_Compare_m2016223770_gshared
EJm:_Encoding_GetBytes_m3823106599
O0g:__Z74RuntimeInvoker_DateTime_t3738529785_DateTime_t3738529785_Int32_t2950945753PFvvEPK10MethodInfoPvPS4_
sTf:_UNITY_FT_New_Memory_Face
eCo:_Collection_1_System_Collections_IList_IndexOf_m3271188411_gshared
jmo:_DirectorControlPlayable_SyncSpeed_m61058823
Rsk:_Comparer_1__cctor_m1740027219_gshared
o1m:_ShimEnumerator_get_Entry_m2018664724_gshared
wRf:__ZN20TextRenderingPrivate21TextMeshGeneratorImpl5FlushEv
Bhm:_MonoIO_GetFileStat_m678141354
kJf:_UNITY_FT_Load_Sfnt_Table
Uz:__ZNSt3__27__sort3IRPFbRK8Vector2fS3_EPS1_EEjT0_S8_S8_T_
Vbd:__ZN15SerializeTraitsINSt3__24pairI12PropertyName4PPtrI6ObjectEEEE8TransferI14SafeBinaryReadEEvRS6_RT_
O4i:_U3CDisableColliderU3Ec__Iterator1_Reset_m4221456208
mAe:__ZN5physx9NpPhysics16createConvexMeshERNS_13PxInputStreamE
Ugg:_TMP_InputField_SendOnEndEdit_m3051534981
eFm:_Decimal_IsZero_m4250358244_AdjustorThunk
zXj:_UnmanagedMemoryStream_get_CanRead_m3770815400
ftc:__ZN16ReflectionProbes40UpdateRealtimeReflectionProbesTimeslicedEv
Gdr:b172
Fuq:__ZN15dense_hashtableINSt3__24pairIK10KeyWrapperIP14Il2CppIUnknownEjEES5_N6il2cpp5utils11PointerHashIS3_EEN14dense_hash_mapIS5_jSB_NS5_14EqualsComparerINS0_8equal_toIS4_EEEENS0_9allocatorIS7_EEE9SelectKeyESG_SI_E12resize_deltaEjj
b1n:_Array_InternalArray__Insert_TisKeyValuePair_2_t1383673463_m1372785123_gshared
gwm:_Decimal_u64_m3374804932
ubd:__ZN16PlayableDirector17RemoveFromManagerEv
Vug:_U3CReverseU3Ec__Iterator0_MoveNext_m530564227
pNb:__ZNK30RuntimeInitializeOnLoadManager22GetTypeVirtualInternalEv
hXk:__ZN21InterfaceFuncInvoker2IiffE6InvokeEjP11Il2CppClassP12Il2CppObjectff
A5p:__ZN15dense_hashtableINSt3__24pairIK10KeyWrapperIN6il2cpp5utils13dynamic_arrayIPK10Il2CppTypeLj4EEEEPFvvEEESA_NS3_8metadata19Il2CppSignatureHashEN14dense_hash_mapISA_SD_SG_NSA_14EqualsComparerINSF_22Il2CppSignatureCompareEEENS0_9allocatorISE_EEE9SelectKeyESK_SM_E12resize_deltaEjj
ZFc:__ZN16ReflectionProbes15InitializeClassEv
eKq:__ZN6il2cpp5utils5MatchENSt3__212basic_stringIcNS1_11char_traitsIcEENS1_9allocatorIcEEEEjRKS7_j
jEn:_ReadOnlyCollection_1_System_Collections_ICollection_CopyTo_m2527663815_gshared
wjn:_Enumerator_VerifyState_m1375238439_AdjustorThunk
pzk:_Dictionary_2_Do_ICollectionCopyTo_TisKeyValuePair_2_t3699644050_m4159638770_gshared
bvq:__ZN6il2cpp2vm5Image9GetCorlibEv
kxp:_Vector3_get_left_m2428419009
JV:__ZN8Animator13BatchedFKPassERK13dynamic_arrayIP14PlayableOutputLj4EE
$3e:__ZNK5physx2Gu29EPASupportMapPairRelativeImplINS0_8CapsuleVES2_E9doSupportERKNS_6shdfnd3aos5Vec3VERS6_S9_S9_
Zcj:_ExecuteEvents_Execute_m113814934
jEa:__ZN13RuntimeStaticINSt3__23mapIN4core12basic_stringIcNS2_20StringStorageDefaultIcEEEES6_NS0_4lessIS6_EE13stl_allocatorINS0_4pairIKS6_S6_EEL18MemLabelIdentifier13ELi16EEEELb0EE13StaticDestroyEPv
yCq:__ZN14dense_hash_mapI10KeyWrapperIPK19Il2CppGenericMethodEP10MethodInfoN6il2cpp8metadata23Il2CppGenericMethodHashENS4_14EqualsComparerINS8_26Il2CppGenericMethodCompareEEENSt3__29allocatorINSD_4pairIKS4_S6_EEEEE13set_empty_keyERSG_
N4n:_Array_qsort_TisColor32_t2600501292_m1362211604_gshared
Rpf:__ZN5physx10SubSortSAH5sort4EPjjRNS_6shdfnd5ArrayINS_11RTreeNodeNQENS2_19ReflectionAllocatorIS4_EEEERjjPS4_
OYm:_Enumerator_System_Collections_IEnumerator_get_Current_m2979767597_AdjustorThunk
Dwj:_MD5CryptoServiceProvider_ProcessFinalBlock_m2241588515
Z7k:_ScrollRect_GetBounds_m449872505
bm:_glIsVertexArray
vZc:__Z66Register_UnityEngine_Graphics_Internal_GetMaxDrawMeshInstanceCountv
ipp:_GUILayoutUtility_LayoutFreeGroup_m2955697397
_am:_Int16_Parse_m2276856944
jb:invoke_fff
ujo:_AnimationTrack_set_openClipTimeOffset_m436554183
gQq:_mbsinit
RSk:_Array_InternalArray__ICollection_Remove_TisContactPoint2D_t3390240644_m284878234_gshared
vjl:_ListDictionary_FindEntry_m4121604518
rzf:__ZN5physx2Sc7PhysicsC2ERKNS_17PxTolerancesScaleERKNS_14PxvOffsetTableE
xBf:__ZNSt3__26__sortIRNS_6__lessI24InterpolationDepthHandleS2_EEPS2_EEvT0_S6_T_
ZVf:__ZN2UI6Canvas17MainThreadCleanupEv
pJb:__ZNSt3__26vectorI14SubstanceInputNS_9allocatorIS1_EEE6assignINS_11__wrap_iterIPS1_EEEENS_9enable_ifIXaasr21__is_forward_iteratorIT_EE5valuesr16is_constructibleIS1_NS_15iterator_traitsISA_E9referenceEEE5valueEvE4typeESA_SA_
b0a:__ZN6prcoreL12RemapGenericI17TexFormatARGB155517TexFormatRGBA8888EEvPKNS_9InnerInfoE
uXi:_ProCamera2DRails__cctor_m1915689955
X4q:b12
cLj:_TypeBuilder_HasElementTypeImpl_m1871001960
epm:_SecurityFrame__ctor_m2140076703_AdjustorThunk
Ggj:_AspectRatioFitter_GetSizeDeltaToProduceSize_m3810932624
a4a:__ZN7ApiGLES13CreateProgramEv
nYp:_BoxCollider_set_center_m1086194996
U4q:b11
Hy:__Z13RegisterClassI22NavMeshProjectSettingsEvv
l_m:_Enumerator_VerifyState_m4003066746_gshared
_hl:_Water2D_Simulation_FixedUpdate_m4201779571
b_a:__ZN4crnd12crn_unpackerD2Ev
sm:_emscripten_glTexImage2D
ctk:_Comparer_1_System_Collections_IComparer_Compare_m2537217645_gshared
jra:__ZN18ScriptingArguments9AddStringEPKc
_Hq:_setup_header
PCl:_Char_ToString_m3588025615
_3e:__ZNK5physx2Gu29EPASupportMapPairRelativeImplINS0_8CapsuleVES2_E18doWarmStartSupportEiiRNS_6shdfnd3aos5Vec3VES7_S7_
hAn:_CryptoConvert_ToCapiKeyBlob_m3371450375
j$a:__ZL23stbir__resize_arbitraryPvPKviiiS_iiiffffPfiij14stbir_datatype12stbir_filterS4_10stbir_edgeS5_16stbir_colorspace
$od:__ZN23ParticleSystemParticles13array_reserveEj
MAc:__ZN19SpriteMeshGenerator4maskC2EP11ColorRGBA32iihj
a0b:__Z18Transfer_BlittableI24GenerateTypeTreeTransferLb1E8Vector4fEvRK29SerializationCommandArgumentsR31RuntimeSerializationCommandInfo
e5q:b18
ppd:__ZNK24OptimizedPolynomialCurve26FindMinMaxDoubleIntegratedEv
Fm:_pthread_detach
O9p:__ZN6il2cpp2vm19SocketPollingThread7RunLoopEv
$ep:_AlphaButtonClickMask_Start_m1273203541
vmj:_FontUpdateTracker_UntrackText_m1981515690
h$e:__ZN5physx11EdgeManager6resizeEj
aKc:__ZN15DirectorManager20ScheduleGraphDestroyERK14HPlayableGraph
U8b:__ZNSt3__213__stable_sortIRN10vector_mapI17ScriptingClassPtrPKN5Unity4TypeENS_4lessIS2_EENS_9allocatorINS_4pairIS2_S6_EEEEE13value_compareENS_11__wrap_iterIPSB_EEEEvT0_SJ_T_NS_15iterator_traitsISJ_E15difference_typeEPNSM_10value_typeEi
_xh:__Z92RuntimeInvoker_RuntimeObject_Int32_t2950945753_Int64_t3736567304_RuntimeObject_RuntimeObjectPFvvEPK10MethodInfoPvPS4_
qZo:_List_1_AddEnumerable_m1284696147_gshared
Wll:_IPAddress_Equals_m1823478787
n5m:_Enumerator_MoveNext_m1673259783_AdjustorThunk
KC:__ZNK12NavMeshQuery18ClosestPointOnPolyEyRK8Vector3fPS0_
JNa:__ZN9ShaderLab25SerializedTextureProperty8TransferI24GenerateTypeTreeTransferEEvRT_
Z0m:_ShimEnumerator_Reset_m227785477_gshared
Ijq:__ZN6il2cpp2gc19AppendOnlyGCHashMapINSt3__24pairIPK14Il2CppAssemblyP11Il2CppClassEEP24Il2CppReflectionAssembly17ReflectionMapHashIS9_ENS2_8equal_toIS9_EEEC2Ev
N2b:__Z18Transfer_BlittableI19StreamedBinaryWriteILb0EELb0EdEvRK29SerializationCommandArgumentsR31RuntimeSerializationCommandInfo
aOe:__ZN5physx2Sc5Scene12removeStaticERNS0_10StaticCoreERNS_6shdfnd11InlineArrayIPKNS0_9ShapeCoreELj64ENS4_19ReflectionAllocatorIS8_EEEEb
MNa:__ZN11NamedObject8TransferI18StreamedBinaryReadILb0EEEEvRT_
$3p:__ZNK15dense_hashtableINSt3__24pairIK10KeyWrapperIPK19Il2CppGenericMethodEPK26Il2CppGenericMethodIndicesEES6_N6il2cpp8metadata23Il2CppGenericMethodHashEN14dense_hash_mapIS6_SA_SE_NS6_14EqualsComparerINSD_26Il2CppGenericMethodCompareEEENS0_9allocatorISB_EEE9SelectKeyESI_SK_E5beginEv
lOl:_InvokableCall_remove_Delegate_m1376110510
Xsf:__ZN19CharacterController13AwakeFromLoadE17AwakeFromLoadMode
mHl:_Hashtable_Clear_m3112193608
Sng:_TMP_Text_set_outlineColor_m1273466868
wMm:_UTF8Encoding_InternalGetByteCount_m771565606
c0p:_MainModule_set_startSpeedMultiplier_m3632924240_AdjustorThunk
kmd:__Z18Transfer_BlittableI8JSONReadLb1EyEvRK29SerializationCommandArgumentsR31RuntimeSerializationCommandInfo
Htn:_List_1_System_Collections_IList_Remove_m3654336679_gshared
k0h:__ZL51GUILayer_t2783472903_CustomAttributesCacheGeneratorP21CustomAttributesCache
cn:_emscripten_glMatrixMode
C4k:_MaskableGraphic_UnityEngine_UI_IClippable_get_gameObject_m1739855597
sO:__ZN8Animator23VirtualRedirectTransferER18StreamedBinaryReadILb0EE
M9l:_Guid__ctor_m3562600567_AdjustorThunk
Ila:__ZN19CloudServiceHandler19StopEventDispatcherEv
Hlf:__ZN5physx13GuMeshFactory17createHeightFieldERNS_13PxInputStreamE
jRe:__ZN5physx2Sc10NPhaseCore25createShapeInstancePairLLERNS0_8ShapeSimES3_NS_7PxFlagsINS_10PxPairFlag4EnumEtEE
RBm:_DateTime_System_IConvertible_ToInt16_m3239820399
Gia:__ZN11UnityEngine15CloudWebService14DataDispatcher16PrepareDataBlockERNS0_16SessionContainerE
J8a:__ZN18GfxFramebufferGLES5ClearE13GfxClearFlagsRK10ColorRGBAffib
a8c:__Z54PlayableHandle_CUSTOM_GetInputWeightFromIndex_InjectedP9HPlayablei
Nwf:__ZN24CollectBroadphaseTerrainD2Ev
Zpj:_ObjectManager_DoFixups_m3038765937
rVm:_UIntPtr_ToString_m984583492_AdjustorThunk
w7b:__ZL26Transfer_SimpleNativeClassI18StreamedBinaryReadILb0EE10RectOffsetLb0EEvRK29SerializationCommandArgumentsR31RuntimeSerializationCommandInfo
DQj:_TypeDelegator_IsPrimitiveImpl_m2362421338
ihk:_InternalEnumerator_1_get_Current_m2316281569_gshared
okc:__ZL12DepthPassJobPN21GfxDeviceAsyncCommand10ArgScratchEPKNS_3ArgE
XLa:__ZNSt3__26vectorIN9ShaderLab20SerializedSubProgram16TextureParameterENS_9allocatorIS3_EEE6assignINS_11__wrap_iterIPS3_EEEENS_9enable_ifIXaasr21__is_forward_iteratorIT_EE5valuesr16is_constructibleIS3_NS_15iterator_traitsISC_E9referenceEEE5valueEvE4typeESC_SC_
Fhd:__ZN5Unity9rapidjson6WriterI16TempBufferWriterNS0_4UTF8IcEES4_13JSONAllocatorE11WriteDoubleEd
hga:__Z32AudioClip_Get_Custom_PropSamplesP12Il2CppObject
J6n:_Dictionary_2_TryGetValue_m3741534516_gshared
rrf:__ZN9Rigidbody16ApplyConstraintsEv
pOm:_Thread_SetCachedCurrentUICulture_m1729523031
_Zf:__Z55Register_UnityEngine_CanvasGroup_get_ignoreParentGroupsv
nDc:__Z13RegisterClassI19LowerResBlitTextureEvv
twd:__ZN11MinMaxCurve5ResetE23ParticleSystemCurveModef
sp:FUNCTION_TABLE_iiiiiiiiiiii
_od:__ZNK14ParticleSystem27CalculateMaxActiveParticlesEv
Nsj:_SByte_System_IConvertible_ToDateTime_m1659899958
cGo:_Collection_1_IsSynchronized_m2548704932_gshared
SJe:__ZN5physx2Sc17ParticleSystemSim8setFlagsEj
_kb:__ZN16GraphicsSettingsD0Ev
BWn:_TMP_XmlTagStack_1_Remove_m4288140311_gshared
n:cttz_i8
wGf:_UNITY_FT_GlyphLoader_Add
Zvg:_SleepFish_OnTriggerEnter2D_m3945429474
Jof:__ZN5physx2Gu15EdgeListBuilder18CreateEdgesToFacesEjPKjPKt
O7d:__ZN5physx11PxMeshQuery5sweepERKNS_6PxVec3EfRKNS_10PxGeometryERKNS_11PxTransformEjPKNS_10PxTriangleERNS_10PxSweepHitENS_7PxFlagsINS_9PxHitFlag4EnumEtEEPKjfb
FEj:_ServerIdentity_OnLifetimeExpired_m3729485875
IUo:_List_1_Remove_m2502026699_gshared
IHp:_AudioListener_INTERNAL_CALL_ReadExtensionPropertyName_m330480156
IRq:__ZNSt3__215basic_streambufIcNS_11char_traitsIcEEED2Ev
SQh:__ZL100CompressedStack_t1202932761_CustomAttributesCacheGenerator_CompressedStack_GetObjectData_m2451703776P21CustomAttributesCache
a0m:_Enumerator_VerifyState_m2572316745_AdjustorThunk
tJb:__ZN14SubstanceInput22CopyFromSubstanceInputERKS_
ANp:__ZL25UnresolvedVirtualCall_184P12Il2CppObjectS0_aPK10MethodInfo
pAm:_Convert_ToUInt16_m867476252
ao:_emscripten_glViewport
KBc:__Z21GenerateTilingAreaJobP22GenerateTilingAreaInfoj
fEq:__ZN6il2cpp6icalls8mscorlib6System15MonoCustomAttrs17IsDefinedInternalEP12Il2CppObjectP20Il2CppReflectionType
F1e:__ZN5physx6shdfnd5ArrayIPhNS0_19ReflectionAllocatorIS2_EEE8recreateEj
lzp:_WaterFlowController_OnGUI_m586469960
GR:__ZN7mecanim9animation16CopyMotionOutputEPKNS0_18AnimationNodeStateEPS1_bbRKNS_6bitsetILj83EEE
Z5c:__Z40Register_UnityEngine_Light_set_intensityv
UHf:_cff_parse_font_bbox
Kuf:__ZThn28_N14PhysicsManagerD0Ev
Fsg:_IcicleScript_IceBreak_m4133415197
a9d:__Z14raycast_sphereRKN5physx10PxGeometryERKNS_11PxTransformERKNS_6PxVec3ES8_fNS_7PxFlagsINS_9PxHitFlag4EnumEtEEjPNS_12PxRaycastHitEbPFbRSD_PvESG_
GLb:__ZN14PlayerSettings23VirtualRedirectTransferER18StreamedBinaryReadILb0EE
ZGm:_Double_System_IConvertible_ToDateTime_m2414543049_AdjustorThunk
z0f:__ZN11UnityEngine15PlatformWrapper16GetVRFieldOfViewEv
XC:__ZN13ProduceHelperI22NavMeshProjectSettingsLb0EE7ProduceE10MemLabelId18ObjectCreationMode
wHm:_Double_CompareTo_m3151899116
nNq:__ZN6il2cpp2os5Event5ResetEv
AGd:__ZL40InitializeParticleSystemScriptingClassesv
mLf:_tt_name_ascii_from_other
eXj:_TextWriter_Write_m2252948084
WIp:_ToggleGroup__ctor_m3308114662
x6n:_Dictionary_2_CopyToCheck_m4199563090_gshared
Nwq:__ZN6il2cpp8metadata15GenericMetadata17InflateParametersEPK13ParameterInfohPK20Il2CppGenericContextb
Xib:__ZN6Camera13AwakeFromLoadE17AwakeFromLoadMode
dxk:_Array_Sort_TisUILineInfo_t4195266810_m3737783007_gshared
cXl:_PlayableAsset_Internal_CreatePlayable_m2550417712
vXo:_List_1_Contains_m3964333099_gshared
AR:__ZNK17AnimationPlayable27GetNextCompatibleDescendantEi
zqj:_ObjectManager_RecordArrayElementFixup_m2171848602
cfg:_TMP_InputField_set_caretWidth_m497594403
x4o:_TlsStream_Write_m188217214
QNn:_Comparison_1_BeginInvoke_m829878058_gshared
iKf:_otv_LigatureSubst_validate
x4g:__Z50RuntimeInvoker_Ray_t3785851493_Vector3_t3722313464PFvvEPK10MethodInfoPvPS4_
vcc:__Z25SetNeedToPerformRenderingb
Dyd:__ZN12LightsModule8TransferI17RemapPPtrTransferEEvRT_
Zlp:_TMP_UpdateManager_InternalUnRegisterTextElementForGraphicRebuild_m652765031
ihb:__ZN10GameObjectD2Ev
Dkc:__ZN14qsort_internal30FindAndMovePivotToLastPositionIP15RODataDepthPassi17ROSorterDepthPassEEvT_S4_T0_T1_
tCd:__ZN29InitialModulePropertyBindings13GetFloatValueERK14ParticleSystemi
a7c:__Z27Mesh_CUSTOM_MarkDynamicImplP12Il2CppObject
VRk:_Array_InternalArray__ICollection_Remove_TisKeyValuePair_2_t570708821_m3020740237_gshared
Tup:_Transform_TransformDirection_m3193513622
b3e:__ZN5physxL27PxcSweepAnyShapeHeightfieldERKNS_11PxsCCDShapeES2_PKNS_12PxsRigidBodyES5_RKNS_11PxTransformES8_fRNS_6PxVec3ESA_RNS_10PxcNpCacheERNS_18PxcNpThreadContextE
e9i:_TextMeshPro_SetActiveSubMeshes_m1862407695
osc:__ZN12CullingGroup10SendEventsEPK17CullingGroupEventj
W0j:_CustomInfo__ctor_m426096741
yej:_PointerInputModule__ctor_m3728889932
qoa:__ZThn32_NK8Renderer8GetLayerEv
pZk:_Array_InternalArray__IndexOf_TisUInt64_t4134040092_m1206929132_gshared
h_e:__ZN5physx3Scb5SceneD2Ev
Lba:__ZN17AudioClipPlayable12PrepareFrameERK19DirectorVisitorInfo
ZHf:_cff_parse_vsindex
Wom:_SecurityException_GetObjectData_m1968030344
eeq:__ZNSt3__26vectorIiNS_9allocatorIiEEEC2ERKS3_
jbm:_Int32_ValidDigit_m1059003769
Vcr:_emscripten_glTexParameterfv__wrapper
Eel:_FloatingObject3D_SetSoundPlayed_m2621975783
gop:_GUIUtility_Internal_GetNextControlID2_m800052281
ZZl:_PlayableOutputHandle_SetWeight_m3684270528
xvp:_UnitySynchronizationContext_Exec_m3359802660
vy:__ZNSt3__26__treeINS_12__value_typeIiN15HeightMeshQuery10HeightDataEEENS_19__map_value_compareIiS4_NS_4lessIiEELb1EEE13stl_allocatorIS4_L18MemLabelIdentifier76ELi16EEE7destroyEPNS_11__tree_nodeIS4_PvEE
q2k:_LayoutGroup_get_rectTransform_m442863741
jWb:__Z18Transfer_BlittableI14SafeBinaryReadLb1E9BoundsIntEvRK29SerializationCommandArgumentsR31RuntimeSerializationCommandInfo
QLo:_ReadOnlyCollection_1_System_Collections_IList_Clear_m3587137071_gshared
inq:_il2cpp_method_get_param_count
ORc:__ZN10systeminfo19ISOToSystemLanguageERN4core12basic_stringIcNS0_20StringStorageDefaultIcEEEE
C6i:_MaterialReferenceManager_AddFontMaterialInternal_m1196044829
Aiq:__ZNK15dense_hashtableINSt3__24pairIK10KeyWrapperINS1_IPK12PropertyInfoP11Il2CppClassEEEjEES9_17ReflectionMapHashIS8_EN14dense_hash_mapIS9_jSD_NS9_14EqualsComparerINS0_8equal_toIS8_EEEENS0_9allocatorISB_EEE9SelectKeyESI_SK_E3endEv
Pbk:_InternalEnumerator_1_System_Collections_IEnumerator_get_Current_m16058121_gshared
mXd:__ZN11Rigidbody2D8TransferI19StreamedBinaryWriteILb0EEEEvRT_
Brf:__Z16GetDynamicsScenev
pPf:_ps_dimension_done
NVf:__Z46Register_UnityEngine_TextGenerator_Dispose_cppv
$Gj:_MessageFormatter_GetExtraProperties_m305191653
T7m:_ValueCollection_System_Collections_Generic_ICollectionU3CTValueU3E_Contains_m2769438347_gshared
L7c:__Z48PlayableHandle_CUSTOM_SetScriptInstance_InjectedP9HPlayableP12Il2CppObject
e8l:_GregorianCalendar_GetYear_m854131864
rJb:__ZN14SubstanceInputD2Ev
rzb:__ZN16LightmapSettings8TransferI14SafeBinaryReadEEvRT_
iRa:__ZN17BufferManagerGLES13ReleaseBufferEP14DataBufferGLES
uIk:_CipherSuite_Write_m1172814058
Sie:__ZN5physx6shdfnd5ArrayIPvNS0_19ReflectionAllocatorINS_16NpConnectorArrayEEEE15growAndPushBackERKS2_
OMn:_ReadOnlyCollection_1_System_Collections_IList_Insert_m4220347015_gshared
JWj:_SynchronizedWriter_Write_m301917713
sBa:__ZN9profiling6MarkerC2EPKc13ProfilerGroupNS0_5FlagsE
rQe:__ZN5physx2Sc5Scene15prepareSimulateEv
hmd:__Z18Transfer_BlittableI8JSONReadLb1EjEvRK29SerializationCommandArgumentsR31RuntimeSerializationCommandInfo
wke:__ZN5physx6shdfnd5ArrayIPNS_2Sc11InteractionENS0_19ReflectionAllocatorIS4_EEE8recreateEj
Srj:_SerializationObjectManager_RaiseOnSerializedEvent_m272248422
lNl:_Debug_LogWarning_m3752629331
f0p:_MainModule_get_startSizeMultiplier_m1188945012_AdjustorThunk
Jro:_TimeUtility_RoundToFrame_m893367417
YLn:_ReadOnlyCollection_1_System_Collections_Generic_IListU3CTU3E_RemoveAt_m4037795630_gshared
onj:_Graphic_OnPopulateMesh_m767318148
HXg:__Z117RuntimeInvoker_Void_t1185182177_RuntimeObject_Int32_t2950945753_Int32_t2950945753_Int32_t2950945753_Int32_t2950945753PFvvEPK10MethodInfoPvPS4_
gmp:_TMP_UpdateRegistry_PerformUpdateForMeshRendererObjects_m3479648248
phj:_U3COnFinishSubmitU3Ec__Iterator0_Reset_m3632769946
gt:stackSave
A3q:dynCall_iiiiidii
ala:__ZN5Unity9rapidjson15GenericDocumentINS0_4UTF8IcEE13JSONAllocatorNS0_12CrtAllocatorEE6StringEPKcjb
KPf:_ps_dimension_end
b7c:__Z41Register_UnityEngine_Mesh_Internal_Createv
BHb:__ZN14SpriteRenderer23VirtualRedirectTransferER24GenerateTypeTreeTransfer
zfm:_Path_GetServerAndShare_m2640882202
iRd:__ZNSt3__27__sort3IRN18Overlap2DQueryBase29ColliderHitsByDepthComparitorEPP10Collider2DEEjT0_S7_S7_T_
W1p:__ZN6il2cpp2vm5Class14GetNestedTypesEP11Il2CppClassPPv
iEf:__Z63Register_UnityEngine_Physics_INTERNAL_CALL_Internal_RaycastTestv
Nqj:_SerializationCallbacks_RaiseOnSerialized_m2457587934
hQg:_ProCamera2DGeometryBoundaries_OnDestroy_m1290675046
Cvm:_Console_Open_m3077673205
uxg:_U3CStartU3Ec__Iterator0_MoveNext_m1995155061
Ntc:__ZN6Camera9SetAspectEf
YAg:_VertexZoom_ON_TEXT_CHANGED_m3073044939
Na:invoke_viiffiii
Syd:__ZN8UVModule8TransferI18StreamedBinaryReadILb0EEEEvRT_
Wbl:_ClipperBase_ProcessBound_m3771620465
Dzq:__ZN6il2cpp6icalls8mscorlib6System4Enum19get_underlying_typeEP20Il2CppReflectionType
aCm:_DateTime_ToString_m2992030064
w$m:_Enumerator_MoveNext_m1107569389_gshared
udp:_Parser_IsECMAScript_m674158805
dJk:_CipherSuiteCollection_get_Item_m3790183696
dib:__ZN9Transform37InitializeTransformHierarchyRecursiveER18TransformHierarchyRii
x8a:__ZN26SinglePassStereoSupportExt23SetupStereoMatrixParamsE21MonoOrStereoscopicEye24BuiltinShaderMatrixParamRK10Matrix4x4f
x8:__ZN14SafeBinaryRead21TransferSTLStyleArrayI13dynamic_arrayI4PPtrI18AudioMixerSnapshotELj4EEEEvRT_17TransferMetaFlags
wbo:_DefaultComparer_Equals_m3770904334_gshared
WGd:__ZN14ParticleSystem22UpdateAllTransformDataEv
bQq:_fscanf
yrp:_SliderHandler_VerticalThumbRect_m408727440_AdjustorThunk
J5f:__ZNK25UnityWebRequestJavaScript16GetUploadedBytesEv
lga:__Z46AudioListener_CUSTOM_GetNumExtensionPropertiesP12Il2CppObject
Hvf:__ZN14SphereCollider23VirtualRedirectTransferER24GenerateTypeTreeTransfer
TKo:_Collection_1_IsSynchronized_m3923495146_gshared
aCd:__ZN27ColorModulePropertyBindings13AddPropertiesER10vector_mapIi22ParticleModulePropertyNSt3__24lessIiEENS2_9allocatorINS2_4pairIiS1_EEEEE
Ejh:__Z141RuntimeInvoker_RuntimeObject_Int32_t2950945753_Single_t1397266774_Single_t1397266774_Single_t1397266774_Single_t1397266774_Single_t1397266774PFvvEPK10MethodInfoPvPS4_
zwj:_MD5CryptoServiceProvider_Dispose_m3502499818
G5m:_Enumerator_System_Collections_IEnumerator_Reset_m2313871153_gshared
bZk:_Array_InternalArray__IndexOf_TisMonoResource_t4103430009_m1351751258_gshared
pMb:__ZN10VRSettings8TransferI19StreamedBinaryWriteILb0EEEEvRT_
wPe:__ZN5physx2Sc9StaticSim21postActor2WorldChangeEv
Znq:__ZN13Il2CppHashMapINSt3__24pairIP11Il2CppClassjEES3_N6il2cpp8metadata14ArrayClassHashENS6_17ArrayClassCompareENS0_9allocatorINS1_IK10KeyWrapperIS4_ES3_EEEEEC2EjRKS7_RKS8_
b5l:_FieldAccessException__ctor_m3583219052
TDd:__ZL16ParticleGeomInitILb0EEvRK31ParticleSystemParticlesTempDatajRN4math8floatNx3ERK23ParticleSystemParticlesS5_S5_RKNS3_7_float4EPKfSB_SD_SB_RKNS3_5_int4EbSB_
E4c:__Z57Register_UnityEngine_Transform_INTERNAL_set_localPositionv
mVa:__ZN13GfxDeviceGLES26SetRandomWriteTargetBufferEi15ComputeBufferID
K_c:__Z38Register_UnityEngine_Input_GetButtonUpv
Jvk:_Array_Resize_TisUICharInfo_t75501106_m3903846016_gshared
tgc:__ZZ23InitPlayerLoopCallbacksvEN49EarlyUpdateResetFrameStatsAfterPresentRegistrator7ForwardEv
xve:__ZN5physx6shdfnd4sortIPvNS0_4LessIS2_EENS0_19ReflectionAllocatorINS_2Cm5BlockIhLj256EEEEEEEvPT_jRKT0_RKT1_j
t4n:_Array_qsort_TisConstantShakeLayer_t1896703246_m83041713_gshared
bGn:_ReadOnlyCollection_1_System_Collections_IEnumerable_GetEnumerator_m1671097018_gshared
cVm:_UInt64_ToString_m1529093114_AdjustorThunk
ZSj:_TypeLibImportClassAttribute__ctor_m2302178978
_fg:_TMP_InputField_SetToCustomIfContentTypeIsNot_m1429843882
uxn:_Escape_t3294788190_marshal_pinvoke
PRl:_Material__ctor_m1662457592
Bag:__ZN12VideoManager14AddVideoPlayerEP11VideoPlayer
M0k:_InputField_OnUpdateSelected_m1118869681
wmf:__ZN5physx20InternalTriangleMesh7releaseEv
I1e:__ZN5physx6shdfnd5ArrayINS_16PxsCCDBlockArrayINS_13PxsCCDOverlapELi128EE9BlockInfoENS0_19ReflectionAllocatorIS5_EEE15growAndPushBackERKS5_
Lle:__ZNK5physx7NpShape8getFlagsEv
l_a:__ZN4crnd12crn_unpacker11unpack_dxt1EPPhjjj
Yem:_BinaryWriter_Write_m3577537050
lRc:__ZNK11ICallString6ToUTF8Ev
Yfj:_TouchInputModule_UpdateModule_m2582897964
Z0p:__ZN15dense_hashtableINSt3__24pairIK10KeyWrapperIPK22Il2CppGenericParameterEP11Il2CppClassEES6_N6il2cpp5utils11PointerHashIS4_EEN14dense_hash_mapIS6_S9_SE_NS6_14EqualsComparerINS0_8equal_toIS5_EEEENS0_9allocatorISA_EEE9SelectKeyESJ_SL_E15insert_noresizeERKSA_
E3m:_Transform_1_Invoke_m2468053724_gshared
Ekc:__ZNSt3__211__sift_downIR17ROSorterDepthPassP15RODataDepthPassEEvT0_S5_T_NS_15iterator_traitsIS5_E15difference_typeES5_
jFe:__ZNK5physx7NpCloth16getContactOffsetEv
bxl:_ArgumentException__ctor_m3200406061
bW:__ZN8Animator17ApplyOnAnimatorIKEiRNS_11AnimatorJobE
aua:__ZN12FileAccessor4ReadEyyPvPy
Xsp:_Texture_get_filterMode_m3474837873
Mio:_AnimationPlayableAsset_GatherProperties_m173673781
S_o:_List_1_set_Capacity_m2777925136_gshared
pRc:__Z21GetSceneHierarchyPathPK6Object
y3c:__Z63Register_UnityEngine_RenderTexture_Internal_CreateRenderTexturev
iin:_KeyValuePair_2__ctor_m259423784_AdjustorThunk
otc:__ZN13RenderTexture9SetHeightEi
uSq:__ZNKSt3__27collateIcE7do_hashEPKcS3_
RP:__ZN7mecanim9animation17ClearMotionOutputEPNS0_18AnimationNodeStateE
gJk:_CipherSuiteCollection_get_IsFixedSize_m3127823890
Dzg:_TMP_TextSelector_A_OnPointerExit_m1409227044
Fqk:_InternalEnumerator_1_System_Collections_IEnumerator_get_Current_m3537550566_gshared
dcn:_Dictionary_2_Add_m1193299939_gshared
O5o:_PKCS12_get_Keys_m2165478388
Vrq:__ZN6il2cpp6icalls8mscorlib6System2IO6MonoIO17GetFileAttributesEP12Il2CppStringPi
Uvj:_HMACMD5__ctor_m3008609295
hDm:_DateTime_ToString_m2992030064_AdjustorThunk
fMf:_tt_cmap8_char_index
Mzc:__Z14tessMeshDeleteP8TESSmeshP12TESShalfEdge
PPl:_Gizmos_INTERNAL_CALL_DrawLine_m3022186612
Kra:__Z24scripting_class_get_name17ScriptingClassPtr
h3i:_DownSwordFish_Start_m3121703755
nnl:_Oid__ctor_m911618594
Lkk:_InternalEnumerator_1_System_Collections_IEnumerator_get_Current_m43297261_AdjustorThunk
iQj:_TypeDelegator_get_TypeHandle_m1498852405
TEa:__ZN13RuntimeStaticI15GUIEventManagerLb0EE13StaticDestroyEPv
rA:__ZNSt3__27__sort4IR17DetailNodeXSorterP16DetailMeshBVNodeEEjT0_S5_S5_S5_T_
GZj:_ShortComparer_Compare_m1881262465
aYb:__Z29Transfer_Blittable_ArrayFieldI14SafeBinaryReadjEvRT_R9ArrayInfoRK23StaticTransferFieldInfo
EVd:__ZN16CircleCollider2D13PrepareShapesER13dynamic_arrayIP7b2ShapeLj4EERK10Matrix4x4f
cg:_emscripten_set_keydown_callback
cJm:_EncoderReplacementFallback__ctor_m1483565116
Qsl:_Interpreter_IsWordChar_m2858055765
mwd:__ZN18ColorBySpeedModule8TransferI14SafeBinaryReadEEvRT_
iua:__ZN12FileAccessorC2Ev
JTq:__ZNSt3__29__num_getIwE19__stage2_float_loopEwRbRcPcRS4_wwRKNS_12basic_stringIcNS_11char_traitsIcEENS_9allocatorIcEEEEPjRSE_RjPw
oqe:__ZN5physx2Sc15ArticulationSim12applyImpulseERNS0_8BodyCoreERKNS_9PxcFsDataERKNS_6PxVec3ES9_
Gqm:_String_System_IConvertible_ToDouble_m3740733360
_sd:__Z15UpdateRandomTplIL27ParticleSystemCurveEvalMode0EEvRK11MinMaxCurveS3_S3_R5RandNR23ParticleSystemParticlesjjRKN4math8float3x3ERKNS8_7_float4E
K2m:_Transform_1_Invoke_m1062341206_gshared
VT:__ZThn152_NK26AnimatorControllerPlayable25GetStateMachineBehavioursEv
Ctf:__ZN5Unity5Joint18SetConnectedAnchorERK8Vector3f
WCp:_EventFunction_1_Invoke_m2429482587_gshared
zcj:_EventTrigger_OnDeselect_m1919608102
tjb:__ZN6Camera8TransferI19StreamedBinaryWriteILb0EEEEvRT_
KXd:__ZN23ColliderTilingExtensionC2Ev
RIj:_ModuleBuilder_set_wrappers_type_m2998401134
gqa:__ZN14StackAllocator10ReallocateEPvji
dKb:__ZNK12InputManager22GetTypeVirtualInternalEv
IBd:__ZN16CustomDataModuleD2Ev
hfa:__ZN12AudioManager9SetVolumeEf
Zkn:_Enumerator_MoveNext_m1177880931_AdjustorThunk
Jpe:__ZNK5physx14NpArticulation26getInternalDriveIterationsEv
G9k:_Slider_UpdateVisuals_m3662961057
uUp:_TextGenerator_Populate_m194003733
g5j:_DerivedType_get_FullName_m1025358827
_tj:_CryptoConfig_MapNameToOID_m2044758263
ewd:__ZN14VelocityModule8TransferI14SafeBinaryReadEEvRT_
uoi:__ZL70InputField_t3762917431_CustomAttributesCacheGenerator_m_OnValueChangedP21CustomAttributesCache
mVc:__Z45Application_Get_Custom_PropPersistentDataPathv
Lac:__Z39WriteQueueForTransferSignatureIntoCacheRK31TransferFunctionScriptingTraitsRK24TransferRequestSignature17ScriptingClassPtrR23CachedSerializationDataRb
oKm:_Encoding_get_UTF8UnmarkedUnsafe_m320312322
yOm:_Thread_Thread_free_internal_m333849022
WF:__ZN18AnimatorController19TransferRuntimeDataI18StreamedBinaryReadILb0EEEEvRT_
Csj:_RuntimeTypeHandle_GetObjectData_m1599302095
A8o:_CostDelegate_BeginInvoke_m2828452701
c0f:__ZN22BaseUnityConnectClient30OnEnteringStatePausedOrStoppedEv
ZTd:__ZN10ClipperLib7Clipper18SwapPositionsInAELEPNS_5TEdgeES2_
uUj:_ConfigHandler_ParseElement_m3124222564
LGo:_Collection_1_ConvertItem_m1556170494_gshared
dQ:__ZN7mecanim5human12HumanPoseAddERNS0_9HumanPoseERKS1_S4_
jxm:_DateTime_ToUniversalTime_m1945318289
eKg:_EditorPrefsX_ConvertBytesToFloat_m303673053
IDl:_ArrayList_ToArray_m3827492363
IEd:__Z20UpdateWholeSheet2TplIL27ParticleSystemCurveEvalMode2ELS0_2EEvfRK11MinMaxCurveS3_RK23ParticleSystemParticlesPf
l8i:_TextMeshPro_Rebuild_m3163249878
ZUm:_UInt64_Parse_m819899889
Rwq:__ZN6il2cpp8metadata15GenericMetadata15GetGenericClassEiPK17Il2CppGenericInst
Plm:_SymmetricAlgorithm_set_IV_m3196220308
U3l:_Screen_get_fullScreen_m2154041680
t7j:_GenericTypeParameterBuilder_GetHashCode_m852224381
HAm:_Convert_ToUInt32_m1453583008
g6l:_CompareInfo_Compare_m894311506
Nhb:__Z24MergeTransformComponentsR9TransformS0_b
Rqk:_InternalEnumerator_1_System_Collections_IEnumerator_get_Current_m3982010935_AdjustorThunk
ole:__ZThn24_N5physx2Sc20ArticulationJointSimD0Ev
Xro:_TrackAsset_get_outputs_m264338513
x9f:__ZN20BrowserVideoPlayback4PlayEv
kbj:_EventSystem_UpdateModules_m3643806022
Uwl:_ApplicationException__ctor_m2517758450
svf:__ZN14PhysicsManager32AddToTriggerStayStatesIfRequiredEPK9Rigidbody
ESp:_AnimationOffsetPlayable__cctor_m1029460816
N6q:___cxa_end_catch__wrapper
ufe:__ZN5physx14PxsAABBManager12createBPElemEv
Jhl:_Water2D_Ripple_CanGenerateRipple_m2317438485
jCe:__ZThn12_N5physx7NpShape14onRefCountZeroEv
o0d:__ZL26GeomMTDCallback_ConvexMeshRN5physx6PxVec3ERfRKNS_10PxGeometryERKNS_11PxTransformES5_S8_
IId:__ZN15AnchoredJoint2D16CheckConsistencyEv
$l:_emscripten_glVertexAttribPointer
Hmb:__ZNK20IntermediateRenderer12GetSceneMaskEv
ydc:__ZN14PreloadManager26UpdatePreloadingSingleStepENS_21UpdatePreloadingFlagsEi
yxk:_Array_swap_TisConstantShakeLayer_t1896703246_m3887111748_gshared
Lhf:__ZN18ScBeforeSolverTask11runInternalEv
Caq:__ZN6il2cpp2vm10ThreadPool4WaitEP17Il2CppAsyncResultPPv
Lkn:_Enumerator_VerifyState_m1661520664_AdjustorThunk
W0c:__Z57Register_UnityEngine_RectTransform_INTERNAL_set_anchorMinv
Yhe:__ZL33GeomOverlapCallback_CapsuleConvexRKN5physx10PxGeometryERKNS_11PxTransformES2_S5_PNS_2Gu12TriggerCacheE
yAm:_Convert_ToUInt16_m1480956416
K$a:__ZN6prcoreL25inner_stretch_i8_bilinearEPKNS_9InnerInfoE
z0:__ZN29AnimationClipPlayableBindings22GetApplyFootIKInternalER9HPlayable
sLn:_ReadOnlyCollection_1_System_Collections_Generic_IListU3CTU3E_RemoveAt_m3317217538_gshared
vai:__ZL54AudioSource_t3935305588_CustomAttributesCacheGeneratorP21CustomAttributesCache
Qdc:__Z19InitializeGfxDevicev
aja:__ZN11UnityEngine15CloudWebService16SessionContainer24GetSessionHeaderJsonDataERKN4core12basic_stringIcNS2_20StringStorageDefaultIcEEEERNS2_13StringBuilderE
L4j:_DerivedType_GetEvent_m4157575360
FEa:__ZN13RuntimeStaticI21AssetReferenceStorageLb0EE13StaticDestroyEPv
Dmf:__ZN5physx20InternalTriangleMesh9loadRTreeERNS_13PxInputStreamEj
HLh:__ZL56_MethodBuilder_t600455149_CustomAttributesCacheGeneratorP21CustomAttributesCache
lMg:_ProCamera2D_Awake_m404612135
sGj:_ObjectWriter_WriteObject_m3639703743
Z2n:_Array_InternalArray__set_Item_TisKeyValuePair_2_t2530217319_m258011711_gshared
A0:__ZN29AnimationClipPlayableBindings28GetRemoveStartOffsetInternalER9HPlayable
N_q:__ZNSt3__212basic_stringIwNS_11char_traitsIwEENS_9allocatorIwEEE9__grow_byEjjjjjj
cuo:_Enumerator_get_Current_m2282646120_AdjustorThunk
dCo:_Collection_1_System_Collections_IList_Contains_m3397768605_gshared
yKe:__ZN5physx2Sc18ParticleSystemCore16releaseParticlesEv
Q8d:__ZN5physx2Gu20intersectTriangleBoxERKNS_6shdfnd3aos5Vec3VES5_S5_S5_S5_
Gca:__ZN19AudioPlayableOutput19DeallocateResourcesEv
heb:__ZNK17FileSystemHandler10IsReadOnlyERK13FileEntryData
FBm:_DateTime__cctor_m1880035693
x0b:__Z18Transfer_BlittableI24GenerateTypeTreeTransferLb1EjEvRK29SerializationCommandArgumentsR31RuntimeSerializationCommandInfo
thn:_KeyValuePair_2_ToString_m3013572783_gshared
ych:__Z103RuntimeInvoker_Boolean_t97287965_Ray_t3785851493_Single_t1397266774_Int32_t2950945753_Int32_t2950945753PFvvEPK10MethodInfoPvPS4_
IEf:__Z49Register_UnityEngine_Collider_INTERNAL_get_boundsv
cEc:__ZNK28RectTransformPropertyBinding9BindValueER6ObjectRKN11UnityEngine9Animation14GenericBindingERNS3_10BoundCurveE
Mza:__ZN11ColorRGBA328TransferI14SafeBinaryReadEEvRT_
mIf:_cff_vstore_done
Oyf:__ZN5physx6shdfnd5ArrayIPvNS0_19ReflectionAllocatorINS_24NpPtrTableStorageManager8PtrBlockILi4EEEEEE15growAndPushBackERKS2_
Z3g:__Z68RuntimeInvoker_Void_t1185182177_UInt16_t2177724958_SByte_t1669577662PFvvEPK10MethodInfoPvPS4_
fek:_InternalEnumerator_1_get_Current_m3008260692_AdjustorThunk
$Tf:__ZN20TextRenderingPrivate8TextMesh8TransferI14SafeBinaryReadEEvRT_
rwj:_MACTripleDES_HashFinal_m3613553534
sUm:_UInt64_System_IConvertible_ToChar_m2074245892
f$a:__Z11IsHDRFormat13TextureFormat
AMm:_UTF8Encoding_InternalGetBytes_m1965760031
Ih:_emscripten_glClearDepth
jIc:__ZNK8GUILayer22GetTypeVirtualInternalEv
cng:_TMP_SubMeshUI_SetPivotDirty_m1180705611
xAb:__ZN14SafeBinaryRead21TransferSTLStyleArrayINSt3__26vectorIN15QualitySettings14QualitySettingENS1_9allocatorIS4_EEEEEEvRT_17TransferMetaFlags
lOn:_Comparison_1_Invoke_m3423206938_gshared
eLb:__ZNSt3__26vectorINS_4pairIPKN5Unity4TypeE7Hash128EENS_9allocatorIS7_EEE8__appendEj
mwc:__ZN14SafeBinaryRead17RegisterConverterEPKcS1_PFbPvRS_E
xCn:_ContentInfo__ctor_m1888388023
c6h:__ZL77RuntimePlatform_t4159857903_CustomAttributesCacheGenerator_OSXDashboardPlayerP21CustomAttributesCache
kXi:_ProCamera2DRails_GetPositionOnRailSegment_m2754972410
pIf:_cff_font_load
Ugp:_MobileInput_SetButtonUp_m157564634
sAq:__GLOBAL__sub_I_LibraryLoader_cpp
RSc:__Z13IsPathCreatedRKN4core12basic_stringIcNS_20StringStorageDefaultIcEEEE
w5e:__ZN5physx35solveContactPreBlock_ConcludeStaticEPKNS_23PxcSolverConstraintDescEjRNS_16PxcSolverContextE
Ijg:_TMP_MeshInfo_ResizeMeshInfo_m3721085097_AdjustorThunk
nNl:_Debug_LogWarningFormat_m2535776735
p$a:__ZL22stbir__encode_scanlineP11stbir__infoiPvPfiii
jSj:_ExternalException__ctor_m2877839282
gFf:__ZN20QuadTreeNodeRenderer13StaticDestroyEPv
Yja:__ZN11UnityEngine15CloudWebService20WebRequestRestClient5AbortEv
unj:_Graphic_PixelAdjustPoint_m2668101213
wng:_TMP_Text_set_fontMaterial_m3966689182
lEc:__ZN9Transform12CleanupClassEv
oUk:_PlayableHandle_IsPlayableOfType_TisAudioMixerPlayable_t3520548497_m2438815699_gshared
vni:__ZL57FontData_t746620069_CustomAttributesCacheGenerator_m_FontP21CustomAttributesCache
kke:__ZN5physx6shdfnd5ArrayIPvNS0_15InlineAllocatorILj256ENS0_19ReflectionAllocatorINS_2Cm5BlockIS2_Lj32EEEEEEEE15growAndPushBackERKS2_
Lgf:__ZN5physx18PxsSolverStartTask13setupDescTaskEv
vTf:_UNITY_FT_Set_Pixel_Sizes
j1j:_OperatingSystem_Clone_m1122165140
OAm:_Convert_ToUInt32_m1767593911
SMa:__ZNSt3__26vectorIN9ShaderLab19SerializedSubShaderENS_9allocatorIS2_EEE26__swap_out_circular_bufferERNS_14__split_bufferIS2_RS4_EE
IV:__ZN11UnityEngine9Animation33SetGenericTransformPropertyValuesERKNS0_30AnimatorGenericBindingConstantERKN7mecanim10ValueArrayEP9Transformy
GM:__ZN11UnityEngine9Animation28AnimationClipBindingConstant8TransferI24GenerateTypeTreeTransferEEvRT_
Q_d:__ZN5physx3Cct13BoxController6resizeEf
JSo:_List_1_RemoveAll_m3165362277_gshared
mRm:_Type_type_is_subtype_of_m1406623598
j7q:b104
Tdl:_FloatingObject2D_get_transform_m945761425
pif:__ZN5physx6shdfnd5ArrayINS_2Cm12DelegateTaskINS_2Sc5SceneEXadL_ZNS5_19updateCCDSinglePassEPNS_10PxBaseTaskEEEEENS0_19ReflectionAllocatorIS8_EEE8recreateEj
$Mm:_Thread_get_CurrentThread_m4142136012
Zmb:__Z30ProcessDynamicBatchGeometryJobP25DynamicVBOGeometryJobDataj
_kc:__ZNSt3__27__sort4IRNS_6__lessI11CulledLightS2_EEPS2_EEjT0_S6_S6_S6_T_
Fdq:__ZN6il2cpp2vm14TypeNameParser26ParseArrayModifierOptionalEv
upo:_TimelineAsset_get_clipCaps_m3121249769
Fqa:__Z26scripting_object_get_class18ScriptingObjectPtr
Xqq:__ZN6il2cpp6icalls8mscorlib6System10Reflection8Assembly13get_code_baseEP24Il2CppReflectionAssemblyb
RNb:__ZNSt3__26vectorIN4core12basic_stringIcNS1_20StringStorageDefaultIcEEEE13stl_allocatorIS5_L18MemLabelIdentifier13ELi16EEE7reserveEj
oSp:_AnimationOffsetPlayable_CreateHandle_m2427170463
lwe:__ZN5physx34NpShapeGetScRigidObjectFromScbSLOWERKNS_3Scb5ShapeE
gvj:_DSASignatureDeformatter__ctor_m2889130126
QDc:__ZNK28MonoBehaviourPropertyBinding15GenerateBindingERKN4core12basic_stringIcNS0_20StringStorageDefaultIcEEEEbRN11UnityEngine9Animation14GenericBindingE
F1l:_RectTransform_INTERNAL_set_pivot_m1160676233
V$o:_List_1_set_Item_m35836043_gshared
Czp:_WaterSettings_Start_m504795331
P3l:_Screen_get_resolutions_m1570439325
vql:_X509ChainElementCollection__ctor_m3424079155
gZk:_Array_InternalArray__IndexOf_TisResourceInfo_t2872965302_m262211955_gshared
H8o:_LinkStack_Push_m3081279930
VUq:__ZNKSt3__28time_getIcNS_19istreambuf_iteratorIcNS_11char_traitsIcEEEEE17__get_white_spaceERS4_S4_RjRKNS_5ctypeIcEE
JJb:__ZN14SubstanceValue8TransferI18StreamedBinaryReadILb0EEEEvRT_
QPm:_TimeSpan_get_Seconds_m1883479191_AdjustorThunk
UOm:_Timer_Init_m891735195
coe:__ZNK5physx21PxsBodyTransformVault12getTransformERKNS_11PxsBodyCoreE
aCq:__ZN6il2cpp6icalls8mscorlib6System11Environment15internalGetHomeEv
LTl:_Matrix4x4_GetHashCode_m4034747639_AdjustorThunk
kRj:_ResourceCacheItem_t51292791_marshal_pinvoke_cleanup
I7c:__Z69Register_UnityEngine_Playables_PlayableGraph_ConnectInternal_Injectedv
Wna:__ZNK5Unity9Component7GetNameEv
S8:__ZN10AudioMixer8TransferI18StreamedBinaryReadILb0EEEEvRT_
dun:_List_1_GetEnumerator_m232588170_gshared
L0d:__ZN44ConvexVsHeightfieldContactGenerationCallback7onEventEjPj
XAg:_VertexZoom_AnimateVertexColors_m3033224630
z5j:_DynamicMethod_ToString_m2710486086
BMl:_Native__cctor_m1435623442
f_o:_List_1_System_Collections_IList_Remove_m1070694895_gshared
tpp:_LayoutCache__ctor_m3885940174
_aq:__ZN6il2cpp6icalls8mscorlib6SystemL16CheckMemberMatchI9FieldInfoNS_5utils10functional6FilterINSt3__212basic_stringIcNS8_11char_traitsIcEENS8_9allocatorIcEEEENS5_13VmStringUtils23CaseInsensitiveComparerEEEEEbPKT_PK11Il2CppClassSN_iRKT0_
qUq:__ZNKSt3__27num_putIwNS_19ostreambuf_iteratorIwNS_11char_traitsIwEEEEE6do_putES4_RNS_8ios_baseEwd
PXq:__ZNKSt3__27codecvtIwc11__mbstate_tE5do_inERS1_PKcS5_RS5_PwS7_RS7_
nLd:__ZNK11b2RopeJoint16GetReactionForceEf
VW:__ZN7mecanim8skeleton26SkeletonPoseComputeGlobalQEPKNS0_8SkeletonEPKNS0_13SkeletonPoseTIN4math4trsXEEEPS7_ii
Kfo:_EqualityComparer_1__cctor_m1409222030_gshared
rUm:_UInt64_System_IConvertible_ToByte_m1501504925_AdjustorThunk
D8i:_TextMeshPro_OnDisable_m920370645
pDd:__ZN14ParticleSystem40OnTrailGeometryJobsScheduledRenderThreadERK8JobFence
ULk:_TlsClientHello_ProcessAsTls1_m2549285167
szh:__Z74RuntimeInvoker_Boolean_t97287965_UIVertex_t4057497605_UIVertex_t4057497605PFvvEPK10MethodInfoPvPS4_
xMo:_ReadOnlyCollection_1_System_Collections_IList_RemoveAt_m3006136027_gshared
Bd:invoke_viiiffii
t7k:_ScrollRect_set_decelerationRate_m723367336
Tzg:_TMP_UiFrameRateCounter_Update_m2632221777
Nzd:__ZN13TriggerModule8TransferI19StreamedBinaryWriteILb0EEEEvRT_
vW:__ZN9BlobWrite8TransferI22OffsetPtrArrayTransferIiEEEvRT_PKc17TransferMetaFlags
TIm:_EncoderExceptionFallback_Equals_m2760188920
S$i:_ProCamera2DZoomToFitTargets_Awake_m4145571154
Noe:__ZN5physx6shdfnd5ArrayIPvNS0_15InlineAllocatorILj256ENS0_19ReflectionAllocatorINS_11NpAggregateEEEEEE15growAndPushBackERKS2_
x6i:_MaterialReferenceManager_AddSpriteAsset_m2670870024
h6:__ZN4FMOD6System7releaseEv
C$e:__ZN5physx6shdfnd8PoolBaseINS_2Sc18TriggerInteractionENS0_19ReflectionAllocatorIS3_EEE15disposeElementsEv
Gad:__Z38HingeJoint2D_CUSTOM_set_motor_InjectedP12Il2CppObjectRK12JointMotor2D
xAl:_Boolean_CompareTo_m3665076258
$qm:_String_Split_m3580120853
DBn:_PrivateKeyInfo__ctor_m2811023496
Fta:__Z18PathToAbsolutePathRKN4core12basic_stringIcNS_20StringStorageDefaultIcEEEE
WPm:_TimeSpan_get_TotalMinutes_m3920401708
iK:__ZN13AnimationClip23VirtualRedirectTransferER17RemapPPtrTransfer
rvo:_Collection_1_Add_m4197121774_gshared
EWd:__ZThn160_N17PolygonCollider2D5ResetEv
G0d:__ZL31PointInConvexPolygon2D_OutCodesPKfjffffRh
T_a:__ZL13BlitImageImplR14ImageReferenceiiRKS_NS_10ColorSpaceENS_8BlitModeEb
hKc:__ZN15DirectorManager17AcquireOutputNodeEv
Rtd:__ZL15AccumulateNoiseILb1ELi1EEN4math8floatNx2ERKNS0_8floatNx3ERKfiS6_S6_
a1a:__ZN6prcoreL17RemapGenericFloatI18TexFormatRGBAFloat17TexFormatRGBFloatEEvPKNS_9InnerInfoE
mDk:_GameObject_GetComponentInChildren_TisRuntimeObject_m1310240902_gshared
NCf:__ZN9Rigidbody12MoveRotationERK11Quaternionf
I$c:__Z50Register_UnityEngine_Quaternion_INTERNAL_CALL_Lerpv
S7h:__ZL69PersistentCall_t3407714124_CustomAttributesCacheGenerator_m_ArgumentsP21CustomAttributesCache
O7a:__ZN16GeometryJobTasks20ScheduleGeometryJobsER9GfxDevicePFvP15GeometryJobDataEPK22GeometryJobInstructionjb
m4:__ZN12AudioManager29ShutdownReinitializeAndReloadEv
f8j:_Action_1_Invoke_m2143619325_gshared
Oqb:__ZN16ReflectionProbes28GetMinBakedCubemapResolutionEv
Vqq:__ZN6il2cpp6icalls8mscorlib6System10Reflection8Assembly22load_with_partial_nameEP12Il2CppStringP40mscorlib_System_Security_Policy_Evidence
zjf:__ZN5physx2Cm12DelegateTaskINS_2Sc5SceneEXadL_ZNS3_15postNarrowPhaseEPNS_10PxBaseTaskEEEE11runInternalEv
dBf:__Z20ConvertContactToMonoP9Collision
Fvd:__ZN17RemapPPtrTransfer8TransferI22ParticleSystemRendererEEvRT_PKc17TransferMetaFlags
W0p:__ZN15dense_hashtableINSt3__24pairIK10KeyWrapperIPK22Il2CppGenericParameterEP11Il2CppClassEES6_N6il2cpp5utils11PointerHashIS4_EEN14dense_hash_mapIS6_S9_SE_NS6_14EqualsComparerINS0_8equal_toIS5_EEEENS0_9allocatorISA_EEE9SelectKeyESJ_SL_E6insertERKSA_
V0k:_InputField_GenerateCaret_m1459647218
$Yh:__ZL49Camera_t4157153871_CustomAttributesCacheGeneratorP21CustomAttributesCache
__q:_abort_message
G5o:_X509CertificateEnumerator__ctor_m85694331
J1p:__ZN6il2cpp2vm5Class9GetFieldsEP11Il2CppClassPPv
OWa:__ZN14DataBufferGLES16RecreateWithDataEjPKv
zva:__Z29GetGlobalAllowNameConversionsv
F0d:__ZL17transformVerticesRfS_S_S_PfjPKN5physx6PxVec3EPKhRKNS1_7PxMat33E
Yzf:__ZNK5physx2Gu15HeightFieldUtil31getFaceIndexAtShapePointNoTest2Ejff
V0n:_Array_InternalArray__Insert_TisTableRange_t3332867892_m558285859_gshared
N9q:_emscripten_glBlendFunc__wrapper
Uuc:__ZN8Material8SetColorEN9ShaderLab16FastPropertyNameERK10ColorRGBAf
QCn:_StrongName_get_TokenAlgorithm_m1794722022
Lnn:_Enumerator_System_Collections_IEnumerator_Reset_m3754523291_gshared
Hcr:_glUniform3uiv__wrapper
Y9:__ZN11AudioSource23VirtualRedirectTransferER18StreamedBinaryReadILb0EE
lql:_X509CertificateEnumerator__ctor_m943731472
uUf:__ZN20TextRenderingPrivate8FontImplC2E10MemLabelIdPN13TextRendering4FontE
G$l:_RangeInt_get_end_m4128831787
D0e:__ZNK5physx2Sq10AABBPruner5sweepERKNS0_9ShapeDataERKNS_6PxVec3ERfRNS0_14PrunerCallbackE
f1q:dynCall_iiifiii
Ora:__ZL41AssemblyNameMatchesWithOrWithoutExtensionPKcS0_
btg:_LevelFade_OnTriggerEnter2D_m3989434154
PC:__ZN24NavMeshAgentScaleJobData3JobEPS_jPK23TransformAccessReadOnlyPKyj
VYo:_List_1_set_Item_m2082115010_gshared
GJm:_Encoding_GetBytes_m3735967069
LKd:__ZN23ColliderTilingExtension5ResetEv
o4a:__ZN14GfxContextGLES43AddRenderSurfaceToDeferredFBOInvalidateListEPK17RenderSurfaceGLES
h2e:__ZN5physx17PxsCCDAdvanceTask11runInternalEv
bta:__ZN14SerializedFile14SerializedTypeD2Ev
Sal:_Text_get_resizeTextMinSize_m1002355407
kTf:__ZNSt3__26vectorIN20TextRenderingPrivate8FontImpl13CharacterInfoE13stl_allocatorIS3_L18MemLabelIdentifier1ELi16EEE6insertENS_11__wrap_iterIPKS3_EERS9_
_bb:__ZN23PreloadManagerOperation6IsDoneEv
CB:__ZN34NavMeshAgentUpdateTransformJobData3JobEPS_j
nyl:_Array_CreateInstance_m1027597705
YTf:__ZN20TextRenderingPrivate8TextMesh23VirtualRedirectTransferER17RemapPPtrTransfer
R6k:_Selectable_get_navigation_m3508916916
SXd:__ZN10Effector2D10EndContactEP9b2Contact
JDq:__ZN6il2cpp5utils11StringUtils11Utf16ToUtf8ERKNSt3__212basic_stringIDsNS2_11char_traitsIDsEENS2_9allocatorIDsEEEE
iGk:_MD4Managed_Decode_m4273685594
Yae:__ZN5physx3Cct26CharacterControllerManagerD2Ev
yPb:__ZN21LightProbeProxyVolume18HasHardwareSupportEv
pQd:__ZNK20b2SeparationFunction17FindMinSeparationEPiS0_f
F$a:__ZN6prcoreL31inner_stretch_argb8888_bilinearEPKNS_9InnerInfoE
x4b:__Z18Transfer_BlittableI18StreamedBinaryReadILb1EELb1E8BitFieldEvRK29SerializationCommandArgumentsR31RuntimeSerializationCommandInfo
OMf:_UNITY_FT_Outline_Decompose
sin:_Enumerator_System_Collections_IEnumerator_get_Current_m3484854280_gshared
Acm:_Int64_System_IConvertible_ToChar_m1509243576_AdjustorThunk
S4o:_GeneralNames_get_IPAddresses_m4242915644
pIq:_GC_init_size_map
K1e:__ZN5physx6shdfnd8internal8HashBaseINS0_4PairIKNS3_IPKNS_12PxsRigidCoreEPKNS_12PxsShapeCoreEEEPNS_11PxsCCDShapeEEESA_NS0_4HashISA_EENS1_11HashMapBaseISA_SD_SG_NS0_9AllocatorEE6GetKeyESI_Lb1EE15reserveInternalEj
_jb:__Z20scripting_object_new17ScriptingClassPtr
uOi:__ZL73TransitionPoint_t4112241455_CustomAttributesCacheGenerator_transitionWhenP21CustomAttributesCache
b3q:dynCall_iiiiifi
QBn:_KeyGeneratedEventHandler_Invoke_m2527485594
p5c:__Z58Register_UnityEngine_Object_Internal_CloneSingleWithParentv
U0o:_List_1_get_Item_m200663048_gshared
jKo:_Collection_1_IsFixedSize_m3698021882_gshared
rYe:__ZN5physx2Sc5Scene21setDominanceGroupPairEhhRKNS_20PxDominanceGroupPairE
nEm:_Decimal__ctor_m1925875020_AdjustorThunk
bqj:_SerializationCallbacks__ctor_m3863304525
nu:__ZN14NavMeshManager23RemoveOffMeshConnectionEy
fzd:__ZN16CustomDataModule8TransferI18StreamedBinaryReadILb0EEEEvRT_
zno:_Extrapolation_CalculateExtrapolationTimes_m147705176
YEl:_SynchronizedArrayListWrapper_Clear_m2191301493
P:Math_exp
V5n:_Dictionary_2_ToTKey_m224697230_gshared
zs:FUNCTION_TABLE_iiifi
xzq:__ZN6il2cpp2os5posix13PosixAutoLockD2Ev
jYd:__ZN13BoxCollider2D15InitializeClassEv
_gl:_Water2D_PlanarReflection_OnWillRenderObject_m4272045912
eFp:_SymmetricTransform_OFB_m3690147804
fac:__ZN13MonoBehaviour9SetScriptERK4PPtrI10MonoScriptE18ScriptingObjectPtr
CWp:_Rigidbody2D_AddForceAtPosition_Injected_m220971265
t_f:__Z43CanvasRenderer_Get_Custom_PropAbsoluteDepthP12Il2CppObject
iUm:_UInt32_ToString_m4293943134
Wpq:__ZN6il2cpp2vm6Thread8RegisterEP12Il2CppThread
Vyk:_Dictionary_2_Do_CopyTo_TisKeyValuePair_2_t727985506_TisKeyValuePair_2_t727985506_m1839692500_gshared
lol:_X500DistinguishedName_GetSeparator_m1336760642
A7j:_ILGenerator_target_len_m542103396
SPe:__ZN5physx7NpScene12loadFromDescERKNS_11PxSceneDescE
rdb:__ZNK10FileSystem16LastErrorMessageEv
B2n:_Array_InternalArray__Insert_TisVector3_t3722313464_m3862657277_gshared
hfg:_TMP_InputField_set_verticalScrollbar_m1138634110
XCn:_ReadOnlyCollection_1_System_Collections_Generic_IListU3CTU3E_get_Item_m1659090079_gshared
aom:_SecurityException__ctor_m1631242336
tjo:_AnimationTrack_get_openClipTimeOffset_m2671532741
W2p:__ZN15dense_hashtableINSt3__24pairIK10KeyWrapperIPK11Il2CppClassEPKcEES6_N6il2cpp5utils11PointerHashIS3_EEN14dense_hash_mapIS6_S9_SE_NS6_14EqualsComparerINS0_8equal_toIS5_EEEENS0_9allocatorISA_EEE9SelectKeyESJ_SL_E14squash_deletedEv
SQq:_fputc
jcj:_EventSystem_Update_m1662072334
LPc:__ZN11TimeManager16HasFixedTimeStepEv
m6f:__ZN22UnityWebRequestManager10InitializeEv
W$p:_MainModule_set_startSpeed_m3763022313
w9b:__ZN13MonoBehaviour13AwakeFromLoadE17AwakeFromLoadMode
jJq:__ZN6il2cpp6icalls8mscorlib6System10Reflection4Emit13ModuleBuilder20create_modified_typeEP27Il2CppReflectionTypeBuilderP12Il2CppString
E_b:__ZL26Transfer_SimpleNativeClassI17RemapPPtrTransfer8GradientLb1EEvRK29SerializationCommandArgumentsR31RuntimeSerializationCommandInfo
Nbj:_RaycasterManager_RemoveRaycasters_m3057093063
AVn:_TMP_XmlTagStack_1__ctor_m2322234492_gshared
wMc:__ZN12CachedWriter9InitWriteER15CacheWriterBase
XJc:__Z21UnsignedInt64ToStringy
G5k:_GetRaycastNonAllocCallback_BeginInvoke_m3984885848
J9o:_PatternCompiler_BeginLink_m1295557963
yib:__ZN14SafeBinaryRead21TransferSTLStyleArrayI13dynamic_arrayI17SortingLayerEntryLj4EEEEvRT_17TransferMetaFlags
Whl:_Water2D_Ripple_OnTriggerExit_m3629545956
pYe:__ZN5physx14PxsAABBManager15createAggregateEPvb
ddp:_Group_GetAnchorInfo_m3730312864
ZYl:_PlayableHandle_SetPropagateSetTime_Injected_m513187038
Jni:__ZL50Graphic_t1660335611_CustomAttributesCacheGeneratorP21CustomAttributesCache
$$c:__Z36MonoBehaviour_CUSTOM_InvokeRepeatingP12Il2CppObjectP12Il2CppStringff
pug:_PearlUI1_Update_m3970725590
Ekg:_TMP_Settings_get_enableEmojiSupport_m2957179123
$7q:_emscripten_glTexCoordPointer__wrapper
S4c:__Z66Register_UnityEngine_Transform_INTERNAL_CALL_InverseTransformPointv
DRn:_Nullable_1_GetHashCode_m1030690889_gshared
DGa:__ZZN15DirectorManager15InitializeClassEvEN41FixedUpdateDirectorFixedUpdateRegistrator7ForwardEv
ucl:_ClipperOffset_FixOrientations_m4230390589
Phm:_MemoryStream_get_Position_m3733941202
Y6j:_GenericTypeParameterBuilder_InvokeMember_m1647304778
bro:_TimelineClip_UnityEngine_ISerializationCallbackReceiver_OnBeforeSerialize_m993546170
Doj:_HorizontalOrVerticalLayoutGroup_set_childControlWidth_m3261460516
Bar:_glLinkProgram__wrapper
qYp:_BoxCollider_INTERNAL_get_size_m3071281718
uSb:__ZN18ScriptingArguments8AddInt64Ex
n0a:__ZN6prcoreL12RemapGenericI17TexFormatARGB888815TexFormatBGR888EEvPKNS_9InnerInfoE
DId:__Z73Register_UnityEngine_ParticleCollisionEvent_InstanceIDToColliderComponentv
$Sb:__ZN12HandlerChain4LockER13FileEntryData12FileLockMode
l9l:_TextInfo_get_ListSeparator_m1628160079
psd:__Z20UpdateCustomCurveTplIL27ParticleSystemCurveEvalMode1EEvRK11MinMaxCurveR23ParticleSystemParticlesiijjRKN4math5_int4E
l9k:_Selectable_OnCanvasGroupChanged_m472903475
jNm:_EventWaitHandle_Reset_m3348053200
Oug:_PlayerInteractibles__ctor_m2515507300
xqd:__ZNK10SizeModule6UpdateER23ParticleSystemParticlesjj
Ndp:_UriFormatException__ctor_m3083316541
eCe:__ZN5physx7NpShape8requiresERNS_23PxProcessPxBaseCallbackE
Veq:__ZN6il2cpp2vm10Reflection17GetAssemblyObjectEPK14Il2CppAssembly
M0b:__ZL22Transfer_ManagedObjectI24GenerateTypeTreeTransferLb1EEvRK29SerializationCommandArgumentsR31RuntimeSerializationCommandInfo
Eic:__ZN15RenderNodeQueueC2E10MemLabelId
R4n:_Array_qsort_TisParticleCollisionEvent_t4055032941_m191896654_gshared
hRj:_ResourceEnumerator_FillCache_m1661715061
M6m:_Enumerator_get_Current_m951237497_gshared
_Ph:__ZL72SecuritySafeCriticalAttribute_t3505979402_CustomAttributesCacheGeneratorP21CustomAttributesCache
lm:_emscripten_set_main_loop_timing
va:invoke_iiifffi
HYk:_Array_InternalArray__IndexOf_TisKeyValuePair_2_t2245450819_m1517102824_gshared
rAm:_Convert_ToUInt16_m3523269149
iYa:__ZN14DataBufferGLES12RecordRenderEv
idj:_ExecuteEvents_get_endDragHandler_m2879610446
G8e:__ZNK5physx20SingleAABBUpdateTask7getNameEv
Buc:__ZN14ImageReference10FlipImageYEv
usl:_Interpreter_GetLastDefined_m4107643411
X9i:_TextMeshProUGUI_EnableMasking_m616112738
syd:__ZN21InheritVelocityModule8TransferI17RemapPPtrTransferEEvRT_
Jgm:_FileStream_RefillBuffer_m4186945278
y1:__ZN4FMOD3DSP9setBypassEb
lud:__Z9StartConeILN11ShapeModule14MultiModeValueE1EEvRS0_R23ParticleSystemParticlesRK19ParticleSystemStateRK27ParticleSystemEmissionStateRKN4math8float3x3ERKNSB_8float4x4Ejbj
hyc:__Z19NormalizeWheelInputf
hnj:_Graphic_DoMeshGeneration_m3548487693
Hhl:_Water2D_Ripple_PlayerInteraction_m1757131721
Xap:_Repetition__ctor_m1672362629
iod:__Z29Transfer_Blittable_ArrayFieldI8JSONReadhEvRT_R9ArrayInfoRK23StaticTransferFieldInfo
Sch:__Z126RuntimeInvoker_Void_t1185182177_Single_t1397266774_Vector3_t3722313464_Single_t1397266774_Single_t1397266774_Int32_t2950945753PFvvEPK10MethodInfoPvPS4_
PKj:_TypeBuilder_create_runtime_class_m2581270900
aek:_InternalEnumerator_1_get_Current_m3008260692_gshared
FGe:__ZN5physx2Sc9ClothCore17addCollisionPlaneERKNS_21PxClothCollisionPlaneE
Ckb:__ZN22RenderingCommandBuffer20CleanupCommandBufferEv
iym:_Decimal_op_Implicit_m2299919277
Akn:_Enumerator_MoveNext_m3275886745_gshared
Zid:__Z18Transfer_BlittableI9JSONWriteLb1EtEvRK29SerializationCommandArgumentsR31RuntimeSerializationCommandInfo
aag:__ZN16VideoPlaybackMgr18DestroyPlaybackJobEP17VideoClipPlayback
$Bm:_DateTime_System_IConvertible_ToType_m1242864300
yrm:_String_IndexOf_m1298810678
Hm:___syscall85
kzk:_Dictionary_2_Do_ICollectionCopyTo_TisRuntimeObject_m2206321454_gshared
Qlf:__ZNK5physx13PxHeightField8isKindOfEPKc
Jic:__ZNSt3__26__sortIRPFbP10GUIElementS2_EPS2_EEvT0_S7_T_
oTf:__Z14ValidateFormatR13dynamic_arrayIN20TextRenderingPrivate16TextFormatChangeELj4EE
A4j:_ConstructorBuilder_GetILGenerator_m1750792206
eJm:_EncoderFallback_get_ReplacementFallback_m818398284
QKg:_ManlySwordFish_Start_m723567579
Ecj:_EventTrigger_OnBeginDrag_m4203438710
hUj:_ClientActivatedIdentity_OnLifetimeExpired_m635240647
mVb:__ZN11MonoManager23VirtualRedirectTransferER24GenerateTypeTreeTransfer
dyd:__ZN24GenerateTypeTreeTransfer8TransferI13dynamic_arrayIN8UVModule10SpriteDataELj4EEEEvRT_PKc17TransferMetaFlags
vao:_Dictionary_2_InitArrays_m848145584_gshared
Xpb:__ZN19StreamedBinaryWriteILb0EE8TransferI13dynamic_arrayI8Vector3fLj4EEEEvRT_PKc17TransferMetaFlags
WU:__ZN23AnimationPlayableOutput17SetSourcePlayableEP8Playable
sDd:__ZL24BuildParticleLineSegmentILb1EEvjRPhRKN4math8float4x4EPK15LineBuilderDataRKfSA_11ColorRGBA32
eQm:_TimeSpan_CompareTo_m3633415627_AdjustorThunk
mlk:_InternalEnumerator_1_get_Current_m1900477722_gshared
tcm:_Int32_ToString_m2507389746_AdjustorThunk
cPo:_List_1_System_Collections_IList_Contains_m3829146114_gshared
Pcj:_ExecuteEvents_Execute_m3613826831
D9d:__ZN16ControllerFilter9preFilterERKN5physx12PxFilterDataEPKNS0_7PxShapeEPKNS0_12PxRigidActorERNS0_7PxFlagsINS0_9PxHitFlag4EnumEtEE
Yia:__ZN11UnityEngine15CloudWebService14DataDispatcher15SetupWebRequestEv
FCo:_Collection_1_ConvertItem_m492501417_gshared
l1f:__ZN11UnityEngine15PlatformWrapper13GetShaderCapsEv
r7:__ZN10AudioMixer14OnExitPlayModeEv
C7e:__ZN16MBPOS_TmpBuffers16allocateSleepingEjj
NAn:_KeyPairPersistence_get_MachinePath_m3812267291
qvm:_Stack_Peek_m2216191248
Grg:_TMP_Text_GetSpecialCharacters_m1333908639
$sf:__ZN19CharacterController23VirtualRedirectTransferER19StreamedBinaryWriteILb0EE
cJc:__ZN21FixedBehaviourManager6UpdateEv
vSc:__ZN9Transform9SetParentEPS_NS_15SetParentOptionE
lro:_U3CGenerateUniqueActorNameU3Ec__AnonStorey0_U3CU3Em__1_m1368161241
vip:_WaterHoseParticles_Start_m1169804003
JJp:_GameObject_GetComponentsInChildren_TisRuntimeObject_m2621777305_gshared
azd:__ZN15CollisionModule8TransferI18StreamedBinaryReadILb0EEEEvRT_
VSp:_AnimatorControllerPlayable_SetHandle_m2260644454_AdjustorThunk
xxa:__ZN19ShaderPropertySheet8SetFloatEN9ShaderLab16FastPropertyNameEfNS_8SetFlagsE
Ahg:_TMP_InputField_MoveUp_m317381059
bZp:_Physics_Raycast_m952690504
pOb:__ZN19RuntimeSceneManager24BeginIntegrateMainThreadEP10UnityScene
Kpe:__ZN5physx14NpArticulation26setExternalDriveIterationsEj
h1d:__ZN16RayRTreeCallbackILi0ELb0EED0Ev
_cf:__ZN5physx20PxsParticleSystemSim23scheduleCollisionUpdateERNS_10PxBaseTaskE
_Aq:__ZNSt3__2plIcNS_11char_traitsIcEENS_9allocatorIcEEEENS_12basic_stringIT_T0_T1_EERKS9_S6_
sWj:_StringReader_CheckObjectDisposedException_m3796163530
fNc:__Z27ComputeTriangleTangentBasisPK8Vector3fPK8Vector2fP11TangentInfo
tMa:__ZN9ShaderLab20SerializedSubProgramaSERKS0_
r0q:_roundf
Y5i:_KerningPair__ctor_m2877156192
hBl:_Byte_System_IConvertible_ToSingle_m324484566_AdjustorThunk
fwm:_Decimal_op_Explicit_m2848387298
jhn:_KeyValuePair_2_ToString_m1238786018_gshared
AO:__ZN8Animator15SetPrepareStageEv
pmg:_TMP_Text_get_isUsingBold_m220107498
H$:__ZN8AnimatorC2E10MemLabelId18ObjectCreationMode
Pfl:_OldReflectionMethod__ctor_m2843560034
r1p:__ZN6il2cpp2vmL24SetupTypeHierarchyLockedEP11Il2CppClassRKNS_2os12FastAutoLockE
H$k:_InputField_set_selectionAnchorPosition_m68980541
pyc:__ZL11TextHandleriPK23EmscriptenKeyboardEventPv
Inc:__Z20CalculateLightMatrixRK15SharedLightDataP10Matrix4x4f
HSf:_destroy_face
rHj:_SerializableTypeMetadata_WriteTypeData_m1099030367
W6c:__Z31Mesh_CUSTOM_get_bounds_InjectedP12Il2CppObjectR4AABB
QJq:__ZN6il2cpp6icalls8mscorlib6System8Security12Cryptography24RNGCryptoServiceProvider13RngInitializeEP11Il2CppArray
eHj:_CodeGenerator__cctor_m3167429173
wBd:__ZN21RotationBySpeedModuleD0Ev
faa:__ZN20SoundChannelInstance7setMuteEb
Rae:__ZN5physx3Cct26CharacterControllerManager21createObstacleContextEv
Nkg:_TMP_Settings_GetSettings_m74900336
bCm:_DateTimeUtils_ToString_m1782212840
H6i:_MaterialReferenceManager_TryGetFontAsset_m742565225
ivn:_List_1_CheckCollection_m877307232_gshared
R0j:_NumberFormatter_NumberToString_m3906556024
w5b:__Z19TransferField_ArrayI18StreamedBinaryReadILb1EE27Converter_SimpleNativeClassI17AnimationCurveTplIfEEEvRK23StaticTransferFieldInfoR31RuntimeSerializationCommandInfoRT0_
PYd:__ZN7b2World18SetContactListenerEP17b2ContactListener
$Ed:__Z19UpdateSingleRow2TplIL27ParticleSystemCurveEvalMode1ELS0_1EEvfRK11MinMaxCurveS3_RK23ParticleSystemParticlesPfbiii
KQd:__ZN14PhysicsQuery2D11LinecastAllERK8Vector2fS2_RKN10Collider2D13ContactFilterEPKS3_bP13dynamic_arrayI12RaycastHit2DLj4EE
NYa:__ZN18GfxFramebufferGLES22MakeCurrentFramebufferENS_7BuiltinE
cSe:__ZN5physx6shdfnd5ArrayIPNS_2Sc19ShapeInstancePairLLENS0_19ReflectionAllocatorIS4_EEE15growAndPushBackERKS4_
hJp:_VertexHelper_FillMesh_m1654068917
Nmo:_DiscreteTime_ToFloat_m1510751078
Yza:__ZN12CachedReader4ReadEPvj
wfe:__ZN5physx14PxsAABBManager19createAggregateElemEv
Yte:__ZN5physx2Sc8BodyCore24clearSpatialAccelerationEbb
Hgl:_Water2D_Mesh_AddVertex_m2052742623
YKg:_MoveInColliderBoundaries_UpdateRaycastOrigins_m3913159267
X7f:__ZNK17VideoClipPlayback12GetNumFramesEv
IJb:__ZN14SubstanceInput8TransferI18StreamedBinaryReadILb0EEEEvRT_
fsd:__ZNK14RotationModule6UpdateERK27ParticleSystemReadOnlyStateRK19ParticleSystemStateR23ParticleSystemParticlesRKN4math7_float4Ejj
lDa:__ZN19RuntimeSceneManagerD2Ev
n6c:__Z57Register_UnityEngine_QualitySettings_get_activeColorSpacev
B5l:_CCGregorianCalendar_GetMonth_m1547203696
mka:__ZN11UnityEngine15CloudWebService25WebRequestDownloadHandler17OnCompleteContentEv
E$a:__ZN6prcore17GetIntegerBlitterE13TextureFormatS0_N14ImageReference8BlitModeE
QHq:_GC_print_block_descr
XRe:__ZN5physx10PxsContext20createContactManagerERKNS_24PxvManagerDescRigidRigidEPNS_18PxsMaterialManagerE
pSd:__ZN13BoxCollider2DD0Ev
Tje:__ZN5physx2Sc5Scene31removeActiveBreakableConstraintEPNS0_13ConstraintSimE
xbn:_Dictionary_2_ToTKey_m59443895_gshared
fVc:__ZN9BlobWrite14ReduceCopyImplERK14ReduceCopyDataj
NBa:__ZNSt3__26__treeI19RepeatingLogMessageNS_4lessIS1_EE13stl_allocatorIS1_L18MemLabelIdentifier73ELi16EEE12__find_equalIS1_EERPNS_16__tree_node_baseIPvEESD_RKT_
wfa:__ZN11AudioSource18IsPlayingScriptingEv
v3a:__Z18IsCompressedFormat14GraphicsFormat
ULd:__ZNK12b2WheelJoint10GetAnchorAEv
sWe:__ZN5physx6shdfnd5ArrayINS_12PxActorShapeENS0_19ReflectionAllocatorIS2_EEE15growAndPushBackERKS2_
jfb:__ZN25MultiBlocksMemoryFileData17AdjustBlocksCountEj
irq:__ZNSt3__214__split_bufferIN6il2cpp2vm22EmbeddedResourceRecordERNS_9allocatorIS3_EEED2Ev
NTd:__ZN10ClipperLib14PointInPolygonERKNS_8IntPointEPNS_5OutPtE
Qzp:_WaterSettings_OnSliderSimulationSpeed_m2850732250
aRf:__ZN13TextRendering4Font8TransferI24GenerateTypeTreeTransferEEvRT_
s$j:_NumberFormatter_InitialFloatingPrecision_m2468520485
$Xc:__Z27CullingGroup_CUSTOM_DisposeP12Il2CppObject
t1n:_Array_InternalArray__Insert_TisInt32_t2950945753_m4073217122_gshared
mEd:__Z18UpdateSingleRowTplIL27ParticleSystemCurveEvalMode0EEvfRK11MinMaxCurveS3_RK23ParticleSystemParticlesPfbiii
y4f:__ZNSt3__26vectorIP19BaseConnectSettings13stl_allocatorIS2_L18MemLabelIdentifier6ELi16EEE21__push_back_slow_pathIKS2_EEvRT_
EKd:__ZN10Effector2D23VirtualRedirectTransferER18StreamedBinaryReadILb0EE
yu:__ZN20NavMeshBuildSettingsC2Ev
oic:__ZN13ComputeShader15SetTextureParamEjRKN9ShaderLab16FastPropertyNameE9TextureID16TextureDimension
Gye:__ZN5physx2Sc14ConstraintCore8setFlagsENS_7PxFlagsINS_16PxConstraintFlag4EnumEtEE
To:_glStencilMask
Kkf:__ZNK5physx2Sc15ClothFabricCore20getNbParticleIndicesEv
jyc:__ZN15GUIEventManager10QueueEventERK10InputEvent
aRj:_ResourceReader_ReadNonPredefinedValue_m2638853518
YKl:_Camera_FireOnPreRender_m3450823610
nei:__ZL62EventType_t3528516131_CustomAttributesCacheGenerator_mouseMoveP21CustomAttributesCache
TRj:_DecimalConstantAttribute__ctor_m3583301917
BM:__ZN24GenerateTypeTreeTransfer21TransferSTLStyleArrayINSt3__26vectorI24CompressedAnimationCurve13stl_allocatorIS3_L18MemLabelIdentifier26ELi16EEEEEEvRT_17TransferMetaFlags
HCg:_Clipper_FixupFirstLefts2_m3016878698
qHq:_GC_push_conditional_with_exclusions
TZm:_Enumerator_System_Collections_IDictionaryEnumerator_get_Entry_m2772123357_AdjustorThunk
M0e:__ZN5physx2Sq8AABBTree11shiftOriginERKNS_6PxVec3E
qwq:__GLOBAL__sub_I_GenericMetadata_cpp
G3c:__Z44Register_UnityEngine_RenderTexture_set_depthv
WGq:_GC_make_disappearing_links_disappear
jje:__ZN5physx2Sc7BodySim6wakeUpEv
vYl:_PlayableHandle_CheckInputBounds_m1638244290_AdjustorThunk
q6i:_MaterialReference_Contains_m1537447478
i9i:_TextMeshProUGUI__ctor_m3459675255
H4n:_Array_qsort_TisSpriteData_t3048397587_m2161552423_gshared
qgj:_UIBehaviour_IsDestroyed_m3033055982
NRe:__ZN5physx6shdfnd8PoolBaseINS_2Gu30LargePersistentContactManifoldENS0_19ReflectionAllocatorIS3_EEE17releaseEmptySlabsEv
Gje:__ZN5physx2Sc21ConstraintInteraction7destroyEv
Jvf:__ZN14SphereCollider6CreateEPK9Rigidbody
rJg:_EditorPrefsX_GetQuaternion_m3273921690
C0c:__Z33Register_UnityEngine_Random_Rangev
g6p:__ZN14dense_hash_mapI10KeyWrapperIN6il2cpp5utils13dynamic_arrayIPK10Il2CppTypeLj4EEEEPFvvENS1_8metadata19Il2CppSignatureHashENS8_14EqualsComparerINSB_22Il2CppSignatureCompareEEENSt3__29allocatorINSG_4pairIKS8_SA_EEEEE15set_deleted_keyERSJ_
u$k:_InputField_get_readOnly_m3111985574
jXq:__ZNSt3__211__money_putIwE8__formatEPwRS2_S3_jPKwS5_RKNS_5ctypeIwEEbRKNS_10money_base7patternEwwRKNS_12basic_stringIcNS_11char_traitsIcEENS_9allocatorIcEEEERKNSE_IwNSF_IwEENSH_IwEEEESQ_i
Zqb:__ZN14RenderSettings27UpdateIndirectSpecularColorEv
AQj:_TypeDelegator_IsByRefImpl_m613197127
fMb:__ZN14PlayerSettings8TransferI18StreamedBinaryReadILb0EEEEvRT_
qbq:__ZN6il2cpp6icalls8mscorlib6System8MonoType16GetMethodsByNameEP20Il2CppReflectionTypeP12Il2CppStringibS5_
Tch:__Z143RuntimeInvoker_Void_t1185182177_RuntimeObject_Single_t1397266774_Vector3U26_t3464235976_Single_t1397266774_Single_t1397266774_Int32_t2950945753PFvvEPK10MethodInfoPvPS4_
HXl:_PlayableGraph_GetRootPlayable_m756479827_AdjustorThunk
rTe:__ZNK5physx7NpScene16getNbConstraintsEv
fmo:_ControlTrack__ctor_m2308511996
WNc:__ZN8Renderer20SetShadowCastingModeE17ShadowCastingMode
sAg:_VertexShakeA__ctor_m1957129449
oFe:__ZN5physx7NpCloth14setWakeCounterEf
FWm:_Enumerator_System_Collections_IDictionaryEnumerator_get_Value_m4281776304_gshared
Gec:__ZNSt3__27__sort3IRNS_4lessIN22BuiltinResourceManager8ResourceEEEPS3_EEjT0_S7_S7_T_
xPf:_ps_hints_t2mask
lBk:_LayoutGroup_SetProperty_TisVector2_t2156229523_m2721164497_gshared
kSk:_Array_InternalArray__ICollection_Remove_TisMonoResource_t4103430009_m238733686_gshared
Odm:_IntPtr_ToString_m1831665121
gal:_Slider_Set_m1476104429
Uoj:_Image_set_fillClockwise_m2210525152
t9p:_NavMeshAgent_CalculatePathInternal_m2587419883
ZFb:__ZN10BlendShape8TransferI19StreamedBinaryWriteILb0EEEEvRT_
PBf:__ZN14PhysicsManagerC2E10MemLabelId18ObjectCreationMode
BBk:_Array_InternalArray__get_Item_TisKeyValuePair_2_t625878672_m751890403_gshared
JMl:__Z21il2cpp_codegen_sizeofP11Il2CppClass
x3a:__Z19GetTimeSinceStartupv
spj:_Image_AddQuad_m2161647989
oDk:_Object_FindObjectOfType_TisRuntimeObject_m2612646359_gshared
TOf:_TT_Load_Composite_Glyph
dHb:__Z33MultiplyMatrixArrayWithBase4x4REFPK10Matrix4x4fS1_S1_PS_j
$wm:_DateTime_FromTicks_m4059645178
rvk:_Array_Resize_TisTMP_WordInfo_t3331066303_m2364034418_gshared
Ptk:_Comparer_1__cctor_m1715283026_gshared
bub:__ZN9ShaderLab11shaderprops9GetTexEnvEPK19ShaderPropertySheetS3_NS_16FastPropertyNameE16TextureDimensionb
uy:__ZN15HeightMeshQueryD0Ev
rlc:__ZN29RenderNodeQueuePrepareContextC2Ev
KTp:_GUIText_set_text_m2265981083
ZHj:_MethodBuilder_GetParameters_m3527753207
FNa:__ZN9ShaderLab20SerializedSubProgram16TextureParameter8TransferI24GenerateTypeTreeTransferEEvRT_
ivj:_DSASignatureDeformatter_SetKey_m2999549245
oKq:__ZN6il2cpp2os11MutexHandle4WaitEb
YRa:__ZN9GfxDevice19SaveStereoConstantsEv
nKq:__ZN6il2cpp2os11MutexHandle4WaitEj
KTc:__ZL34GetComponentsImplementationRecurseILb1ELi1ELi1EEbR10GameObjectbRK17CompareParametersRK39GetComponentsImplementation_ReturnValue
$Vg:__Z114RuntimeInvoker_Boolean_t97287965_RuntimeObject_RuntimeObject_Int32_t2950945753_Int32_t2950945753_Int32_t2950945753PFvvEPK10MethodInfoPvPS4_
V3j:_AssemblyBuilder_GetTypes_m3415680380
x1a:__ZN6prcoreL17RemapGenericFloatI15TexFormatRGHalf18TexFormatARGBFloatEEvPKNS_9InnerInfoE
Lcc:__Z18SimulateMouseInputi
Fhc:__ZN13RenderManager23AddRemoveCamerasDelayedEv
ckd:__ZN9JSONWrite8TransferI13dynamic_arrayIdLj8EEEEvRT_PKc17TransferMetaFlags
t1j:_OverflowException__ctor_m4029085969
o4f:__ZN11UnityEngine15PlatformWrapper20SetPlayerPrefsUInt64ERKN4core12basic_stringIcNS1_20StringStorageDefaultIcEEEEy
_Do:_Collection_1_CheckWritable_m899405946_gshared
Ovm:_Decimal_Compare_m3062820418
p8o:_IntervalCollection_GetMetaCollection_m4029522214
$Af:__ZNK5Unity5Joint16GetCurrentForcesER8Vector3fS2_
OYi:_ProCamera2DShake_ConstantShakeRoutine_m3717420282
fUp:_TextGenerator_get_characterCount_m864136654
ntc:__ZN13RenderTexture8SetWidthEi
gBd:__ZN11ColorModuleD0Ev
kEa:__ZN22BuiltinResourceManager16StaticInitializeEPv
Cnc:__Z25SetupObjectBakedOcclusionbRK15SharedLightDataRK26SharedLightmapSettingsDataRK15LightmapIndicesR17ShaderPassContext
pXi:_ProCamera2DRails_AddRailsTarget_m2565460421
Kq:FUNCTION_TABLE_fiffifi
Eyo:_Collection_1_System_Collections_ICollection_CopyTo_m1516601228_gshared
vVp:_Physics2D_Raycast_m2082490717
zam:_Int16_System_IConvertible_ToDouble_m1661805412
nBe:__ZNK5physx9NpFactory11getNbShapesEv
u_p:_SphereCollider_INTERNAL_get_center_m2092209095
RNg:_U3CAdjustTargetInfluenceRoutineU3Ec__Iterator2_Reset_m2157358413
nxk:_Array_Sort_TisVector3_t3722313464_m1030213405_gshared
Fxa:__ZN9ShaderLab16FastPropertyName4InitEPKc
jDc:__Z13RegisterClassIN2UI13RectTransformEEvv
Np:FUNCTION_TABLE_iiiii
n8c:__Z68Register_UnityEngine_Playables_PlayableHandle_GetInputCount_Injectedv
WGc:__ZL31MeshRendererTransformChangedJobP13BoundsJobDatajPK23TransformAccessReadOnlyPKyj
T0f:__ZN11UnityEngine15PlatformWrapper19GetPhysicalMemoryMBEv
Rzn:_BitConverterLE_ToDouble_m1601000678
OBl:_Char_System_IConvertible_ToByte_m2347554595_AdjustorThunk
REd:__Z20UpdateWholeSheet2TplIL27ParticleSystemCurveEvalMode0ELS0_2EEvfRK11MinMaxCurveS3_RK23ParticleSystemParticlesPf
ATq:__ZNKSt3__27num_getIwNS_19istreambuf_iteratorIwNS_11char_traitsIwEEEEE6do_getES4_S4_RNS_8ios_baseERjRm
Bsm:_String_CreateString_m860434552
vTq:__ZNKSt3__27num_getIwNS_19istreambuf_iteratorIwNS_11char_traitsIwEEEEE6do_getES4_S4_RNS_8ios_baseERjRb
ZGa:__Z18GetDirectorManagerv
I9f:__ZThn48_N20BrowserVideoPlaybackD1Ev
CTq:__ZNKSt3__27num_getIwNS_19istreambuf_iteratorIwNS_11char_traitsIwEEEEE6do_getES4_S4_RNS_8ios_baseERjRf
S5m:_Enumerator_System_Collections_IEnumerator_Reset_m278261807_AdjustorThunk
e4c:__Z38Transform_CUSTOM_INTERNAL_get_rotationP12Il2CppObjectP11Quaternionf
yTq:__ZNKSt3__27num_getIwNS_19istreambuf_iteratorIwNS_11char_traitsIwEEEEE6do_getES4_S4_RNS_8ios_baseERjRt
Ooq:__ZNK15dense_hashtableINSt3__24pairIK10KeyWrapperIP11Il2CppClassES4_EES5_N6il2cpp8metadata16SZArrayClassHashEN14dense_hash_mapIS5_S4_SA_NS5_14EqualsComparerINS9_19SZArrayClassCompareEEENS0_9allocatorIS7_EEE9SelectKeyESE_SG_E3endEv
WRd:__ZN16b2StackAllocator4FreeEPv
Tjh:__Z67RuntimeInvoker_Void_t1185182177_Double_t594665363_Double_t594665363PFvvEPK10MethodInfoPvPS4_
lhq:__ZNK15dense_hashtableINSt3__24pairIK10KeyWrapperINS1_IPK10MethodInfoP11Il2CppClassEEEjEES9_17ReflectionMapHashIS8_EN14dense_hash_mapIS9_jSD_NS9_14EqualsComparerINS0_8equal_toIS8_EEEENS0_9allocatorISB_EEE9SelectKeyESI_SK_E5beginEv
PWa:__ZN7ApiGLES19UploadBufferSubDataEjN2gl12BufferTargetEllPKv
VXl:_PlayableGraph_GetRootPlayableCount_Injected_m3260326306
t1e:__ZN5physx2Sc5Scene17createClothSolverEv
jJa:__ZNSt3__216__rotate_forwardINS_11__wrap_iterIPN4core12basic_stringIcNS2_20StringStorageDefaultIcEEEEEEEET_S9_S9_S9_
Npg:_TMP_Text_ReplaceOpeningStyleTag_m493987522
i4l:_SendMouseEvents_HitTestLegacyGUI_m579942228
TE:__ZN7mecanim12statemachine20StateMachineConstant8TransferI14SafeBinaryReadEEvRT_
N_j:_MulticastDelegate_Equals_m2502840627
Tlm:_SymmetricAlgorithm_set_KeySize_m3805756466
A2c:__Z40SpriteRenderer_CUSTOM_INTERNAL_get_colorP12Il2CppObjectP10ColorRGBAf
C$f:__Z44Register_UnityEngine_Canvas_get_pixelPerfectv
R6e:__ZN15MBP_PairManager17removeMarkedPairsEPK10MBP_ObjectPN5physx16PxsBroadPhaseMBPERK8BitArrayS8_
lBl:_Byte_System_IConvertible_ToUInt32_m1049546902_AdjustorThunk
$tq:__ZN6il2cpp6icalls8mscorlib6System10Reflection10MonoMethod19GetGenericArgumentsEP22Il2CppReflectionMethod
N3g:__Z53RuntimeInvoker_Double_t594665363_Interval_t1802865632PFvvEPK10MethodInfoPvPS4_
Rec:__Z21InitializeBatchedJobsv
qXp:_CanvasGroup_get_blocksRaycasts_m1805542303
Bkm:_SHA1Internal_ProcessBlock_m1991889327
GXb:__Z19TransferField_ArrayI14SafeBinaryRead27Converter_SimpleNativeClassI8GUIStyleEEvRK23StaticTransferFieldInfoR31RuntimeSerializationCommandInfoRT0_
o9b:__ZN9TextAsset23VirtualRedirectTransferER19StreamedBinaryWriteILb0EE
Geg:_TMP_FontUtilities_SearchForGlyph_m1138317341
KCg:_Clipper_GetOutRec_m1837896022
jPm:_TimerCallback_Invoke_m1938221087
N$p:_MainModule_get_startLifetime_m2343501481
uqb:__ZN14RenderSettings5ResetEv
EBc:__ZN6Sprite9BindAtlasERK4PPtrI11SpriteAtlasE
Mgd:__ZN5Unity9rapidjson12GenericValueINS0_4UTF8IcEE13JSONAllocatorE10FindMemberIS4_EENS0_21GenericMemberIteratorILb0ES3_S4_EERKNS1_IS3_T_EE
MAe:__ZN5physx9NpPhysics33unregisterDeletionListenerObjectsERNS_18PxDeletionListenerEPKPKNS_6PxBaseEj
Xhk:_InternalEnumerator_1_System_Collections_IEnumerator_get_Current_m3892960115_AdjustorThunk
QHg:_U3CTrophyCoroutineU3Ec__Iterator0_Reset_m2954983630
mHe:__ZNK5physx2Sc9ClothCore22getAngularInertiaScaleEv
YUq:__ZNKSt3__28time_getIcNS_19istreambuf_iteratorIcNS_11char_traitsIcEEEEE13__get_weekdayERiRS4_S4_RjRKNS_5ctypeIcEE
Ovj:_HMAC_HashCore_m3684104066
ywq:__ZN15dense_hashtableI10KeyWrapperIP18Il2CppGenericClassES3_N6il2cpp8metadata22Il2CppGenericClassHashEN14dense_hash_setIS3_S6_NS3_14EqualsComparerINS5_25Il2CppGenericClassCompareEEENSt3__29allocatorIS3_EEE8IdentityESA_SD_EC2ERKSG_j
kDp:_ScriptPlayable_1_Create_m234094962_gshared
khd:__ZN5Unity9rapidjson13GenericReaderINS0_4UTF8IcEES3_13JSONAllocatorE11ParseNumberILj1ENS0_25GenericInsituStringStreamIS3_EENS0_15GenericDocumentIS3_S4_S4_EEEEvRT0_RT1_
vse:__ZN5physx20NpRigidActorTemplateINS_18PxArticulationLinkEE12setActorFlagENS_11PxActorFlag4EnumEb
k0f:__ZN22BaseUnityConnectClient20StartEventDispatcherEv
FHb:__ZN14SpriteRenderer14OnChangeSpriteEv
yAq:__ZN6il2cpp2os10ThreadImplD2Ev
XGd:__ZN14ParticleSystem18MarkAllSubEmittersEPS_
fid:__ZN8Gradient8TransferI9JSONWriteEEvRT_
Pfh:__Z90RuntimeInvoker_Boolean_t97287965_Vector3_t3722313464_Vector3_t3722313464_Int32_t2950945753PFvvEPK10MethodInfoPvPS4_
lXi:_ProCamera2DRails_OnDestroy_m854363424
xCg:_Clipper_ProcessHorizontals_m4201028052
Ibb:__ZNK12TLSAllocatorI14StackAllocatorE22GetAllocatedMemorySizeEv
FH:__ZN7mecanim6memory16ChainedAllocator8AllocateEjj
qRc:__Z32GetSceneHierarchyPathDescriptivePK6Object
VUn:_TMP_ObjectPool_1_Release_m73171780_gshared
_fo:_EqualityComparer_1_System_Collections_IEqualityComparer_GetHashCode_m2138064395_gshared
MSb:__ZN12HandlerChain4NameEv
iQc:__ZN17AnimationCurveTplIfE15SetPostInfinityE8WrapMode
q3n:_Array_InternalArray__set_Item_TisMonoWin32Resource_t1904229483_m4042549565_gshared
ZWk:__ZN21InterfaceFuncInvoker2Ii30ConstantShakeLayer_t1896703246S0_E6InvokeEjP11Il2CppClassP12Il2CppObjectS0_S0_
kp:FUNCTION_TABLE_fiiiiiifiiiiiif
Tbm:_Int32_System_IConvertible_ToType_m3009233912_AdjustorThunk
rbm:_Int16_ToString_m2013897809
egf:__ZN5physx37setupFinalizeSolverConstraintsCoulombERNS_13PxcNpWorkUnitERKNS_2Gu13ContactBufferERKNS_27PxcCorrelationBufferCoulombERKNS_11PxTransformESB_bPhRKNS_13PxcSolverBodyESF_RKNS_17PxcSolverBodyDataESI_ffjffff
N_f:__Z44Register_UnityEngine_CanvasRenderer_get_cullv
xJp:_ScriptableObject_CreateInstance_TisRuntimeObject_m1552711675_gshared
$8:__ZN10AudioMixer8TransferI19StreamedBinaryWriteILb0EEEEvRT_
fpq:__ZNSt3__214__split_bufferIN6il2cpp8metadata18GenericArrayMethodERNS_9allocatorIS3_EEEC2EjjS6_
w0f:__ZN11UnityEngine7Connect17XRDeviceInfoEvent12XRDeviceInfoD2Ev
IVb:__Z44InitializeTransferFunctionScriptingTraitsForI17RemapPPtrTransferEvR31TransferFunctionScriptingTraits
Lfl:_MoveObjects_OnMouseUp_m1136271486
Wup:_Transform_TransformPoint_m4024714202
ILo:_ReadOnlyCollection_1_System_Collections_Generic_ICollectionU3CTU3E_Remove_m404422008_gshared
SDc:__ZNSt3__26vectorI16MessageForwarder13stl_allocatorIS1_L18MemLabelIdentifier7ELi8EEE6resizeEj
Spl:_X509Chain_SelectBestFromCollection_m1068759221
hFp:_SymmetricTransform_TransformBlock_m851059707
erd:__Z19UpdateProceduralTplIL27ParticleSystemCurveEvalMode4EEvRK20DualMinMaxPolyCurvesR23ParticleSystemParticlesPfRKN4math7_float4E
QXl:_PlayableGraph_GetResolver_m756755842_AdjustorThunk
rbp:_Regex_System_Runtime_Serialization_ISerializable_GetObjectData_m4061390789
Xto:_Enumerator_System_Collections_IEnumerator_Reset_m2261065994_AdjustorThunk
Y7k:_ScrollRect_get_verticalNormalizedPosition_m3693218937
S5e:__ZN5physx31ComputeCreatedDeletedPairsListsEPKjS1_jRPNS_17PxcBroadPhasePairERjS5_S4_S5_S5_RNS_14SapPairManagerE
nOb:__ZN18LoadSceneOperation21MustCompleteNextFrameEv
y7c:__Z53PlayableGraph_CUSTOM_GetRootPlayableInternal_InjectedP14HPlayableGraphiR9HPlayable
FOj:_MonoMethodInfo_get_method_info_m88651774
gaa:__ZNK12AudioManager16GetAudioListenerEv
RAq:__ZN6il2cpp2osL23CleanupThreadIfCanceledEPv
Asj:_RuntimeTypeHandle__ctor_m3315980708_AdjustorThunk
Jdn:_Dictionary_2_Resize_m536405636_gshared
KPl:_GameObject_BroadcastMessage_m217296818
Usc:__ZNSt3__26vectorI11CameraStackNS_9allocatorIS1_EEE8__appendEj
vJd:__ZNK11Rigidbody2D20GetAttachedCollidersER13dynamic_arrayIP10Collider2DLj4EE
Uaf:__ZN5physx2Gu16pcmContactBoxBoxERKNS0_13GeometryUnionES3_RKNS_11PxTransformES6_RKfRNS0_5CacheERNS0_13ContactBufferE
XP:__ZN7mecanim9animation12GetHumanPoseERKNS0_18ClipMuscleConstantEPKNS0_10ValueDeltaERNS_5human9HumanPoseE
biq:__ZN6il2cpp2vm10Reflection17GetPropertyObjectEP11Il2CppClassPK12PropertyInfo
NR:__ZN22AnimationMixerPlayable17ProcessRootMotionEP35AnimationPlayableEvaluationConstantP32AnimationPlayableEvaluationInputP33AnimationPlayableEvaluationOutput
Lta:__Z13GetFileSystemv
QHc:__ZZL23RegisterLightPropertiesR22GenericPropertyBindingEN29Wrapper_LightColorTemperature13SetFloatValueEPvf
ZDa:__ZNK5Unity4Type21FindAllDerivedClassesER13dynamic_arrayIPKS0_Lj4EENS0_17TypeFilterOptionsE
SEa:__ZN13RuntimeStaticI15GUIEventManagerLb0EE16StaticInitializeEPv
zIb:__ZN14SafeBinaryRead8TransferIfEEvRT_PKc17TransferMetaFlags
fEg:_Clipper_MinkowskiSum_m2507795351
WQd:__ZNSt3__27__sort5IR24RayHitsByDepthComparitorP12RaycastHit2DEEjT0_S5_S5_S5_S5_T_
Vsk:_Comparer_1__cctor_m2209434164_gshared
zgl:_ShaderDebug__ctor_m2944618340
cWm:_Version_CompareTo_m3146217210
gOd:__ZN24RigidbodyMovementState2D21ResetAngularMoveStateEv
JHb:__ZThn32_N14SpriteRenderer15AddAsRenderNodeER15RenderNodeQueueRK20DeprecatedSourceData
s$n:_Array_InternalArray__ICollection_CopyTo_TisKeyValuePair_2_t71524366_m1056941380_gshared
mnf:__ZN5physx2Gu5RTree15exportExtraDataERNS_22PxSerializationContextE
$Qm:_Type_get_IsClass_m589177581
A3c:__Z51Register_UnityEngine_RenderTexture_ReleaseTemporaryv
Xrm:_String_ReplaceUnchecked_m1381393810
Bia:__ZN11UnityEngine15CloudWebService14DataDispatcher19OnDataBlockConsumedEv
aVb:__ZN19ShaderPropertySheet9SetMatrixEN9ShaderLab16FastPropertyNameERK10Matrix4x4fNS_8SetFlagsE
ohg:_TMP_InputField_OnDrag_m810129667
xkg:_TMP_Settings_get_defaultTextMeshProTextContainerSize_m1967432441
uyb:__Z29GetTextureSizeAllowedMultiple13TextureFormat
iXq:__ZNSt3__211__money_putIwE13__gather_infoEbbRKNS_6localeERNS_10money_base7patternERwS8_RNS_12basic_stringIcNS_11char_traitsIcEENS_9allocatorIcEEEERNS9_IwNSA_IwEENSC_IwEEEESJ_Ri
C0e:__ZNK5physx2Sq10AABBPruner7overlapERKNS0_9ShapeDataERNS0_14PrunerCallbackE
YEm:_Decimal_Subtract_m835601464
vZn:_Array_InternalArray__ICollection_Add_TisBoolean_t97287965_m1361760099_gshared
X_l:_Quaternion_Internal_ToEulerRad_m1503250752
EJc:__ZN21IntermediateRenderers3AddEP20IntermediateRenderer
gZc:__Z46Register_UnityEngine_Gizmos_INTERNAL_set_colorv
ORe:__ZN5physx6shdfnd5ArrayIPvNS0_19ReflectionAllocatorINS_2Gu30LargePersistentContactManifoldEEEE4copyINS0_15InlineAllocatorILj256ES6_EEEEvRKNS1_IS2_T_EE
DYj:_MissingMemberException__ctor_m2571045846
GSp:_AnimationPlayableGraphExtensions_InternalCreateAnimationOutput_m28371369
uBh:__ZL62ComVisibleAttribute_t1362837655_CustomAttributesCacheGeneratorP21CustomAttributesCache
B1l:_RectTransform_INTERNAL_set_sizeDelta_m188783163
Vh:_glCheckFramebufferStatus
uJq:__ZN6il2cpp2os11EventHandle4WaitEv
b0m:_Enumerator_VerifyCurrent_m3846048470_AdjustorThunk
tUk:_PlayableOutputHandle_IsPlayableOutputOfType_TisAnimationPlayableOutput_t1918618239_m3383247624_AdjustorThunk
Ela:__ZN19CloudServiceHandler20StartEventDispatcherERKN11UnityEngine15CloudWebService18CloudServiceConfigERNS1_23WebRequestRestHeaderMapE
q5o:_PKCS12_GetSymmetricAlgorithm_m3480654844
Hnj:_GraphicRaycaster__ctor_m646559428
Eif:__ZN5physx2Cm12DelegateTaskINS_2Sc5SceneEXadL_ZNS3_19updateCCDSinglePassEPNS_10PxBaseTaskEEEE11runInternalEv
Ice:__ZN5physx6string9sprintf_sEPcjPKcz
gqf:__ZThn8_N5physx19TriangleMeshBuilderD1Ev
Zfa:__ZN25AudioClipPlayableBindings21SetPauseDelayInternalER9HPlayabled
FFl:_BitArrayEnumerator_get_Current_m4220391712
g2j:__Z37il2cpp_codegen_get_executing_assemblyPK10MethodInfo
pll:_HttpWebRequest_GetServicePoint_m2640244283
wup:_Transform_get_parent_m835071599
M5d:__ZN5physx2Gu16intersectRayAABBERKNS_6PxVec3ES3_S3_S3_RfS4_
y4i:_U3CMove1U3Ec__Iterator0_MoveNext_m3199319546
Qll:_IPAddress_get_ScopeId_m4237202723
efl:_Lever_Start_m3094209605
tH:__ZN4core8hash_mapIN11UnityEngine9Animation14GenericBindingENS2_10BoundIndexENS2_25GenericBindingHashFunctorENS2_30GenericBindingValueArrayUniqueEE4growEi
iP:__ZN21AnimationClipPlayable7SetTimeEd
$ap:_ExpressionCollection_get_Item_m3510736379
Bni:__ZL62FontData_t746620069_CustomAttributesCacheGenerator_m_AlignmentP21CustomAttributesCache
pfj:_StandaloneInputModule_get_inputActionsPerSecond_m3946624274
FMm:_UTF8Encoding_InternalGetCharCount_m82458470
swp:_Vector2__cctor_m2108982652
zhp:_TouchPad_OnPointerUp_m2465142363
BHc:__ZZL23RegisterLightPropertiesR22GenericPropertyBindingEN22Wrapper_LightIntensity13GetFloatValueEPv
xup:_Transform_get_parentInternal_m1494967989
sH:__ZN4core8hash_mapIN11UnityEngine9Animation14GenericBindingENS2_10BoundIndexENS2_25GenericBindingHashFunctorENS2_30GenericBindingValueArrayUniqueEE4growEv
mgf:__ZN5physx30setupFinalizeSolverConstraintsERNS_13PxcNpWorkUnitERKNS_2Gu13ContactBufferERKNS_20PxcCorrelationBufferERKNS_11PxTransformESB_bPhRKNS_13PxcSolverBodyESF_RKNS_17PxcSolverBodyDataESI_ffffff
wJq:__ZN6il2cpp2os11EventHandle4WaitEb
iuq:__ZN14dense_hash_mapI10KeyWrapperIP14Il2CppIUnknownEjN6il2cpp5utils11PointerHashIS1_EENS3_14EqualsComparerINSt3__28equal_toIS2_EEEENS9_9allocatorINS9_4pairIKS3_jEEEEE15set_deleted_keyERSF_
$Ac:__ZN19SpriteMeshGenerator12path_segment12max_distanceENSt3__26vectorINS_6vertexENS1_9allocatorIS3_EEEEii
UN:__ZN7mecanim4hand8HandPose8TransferI19StreamedBinaryWriteILb0EEEEvRT_
Bxe:__ZN5physx7NpScene17releaseBatchQueryEPNS_12PxBatchQueryE
qRo:_List_1_AddEnumerable_m782179552_gshared
Rjq:__ZN13Il2CppHashMapIPK14Il2CppAssemblyPK22Il2CppMonoAssemblyNameN6il2cpp5utils11PointerHashIS1_EENSt3__28equal_toIS2_EENSA_9allocatorINSA_4pairIK10KeyWrapperIS2_ES5_EEEEEC2EjRKS9_RKSC_
nSc:__ZN9Scripting39GetScriptingArrayStringElementNoRefImplE17ScriptingArrayPtri
Fff:__ZN5physx26solveVBlockDefaultFrictionEPNS_13PxsSolverCoreEfjjPNS_13PxcSolverBodyEPNS_17PxcSolverBodyDataEjjPNS_25PxcArticulationSolverDescEjPNS_23PxcSolverConstraintDescEjS9_jRNS_6shdfnd5ArrayINS_24PxsConstraintBatchHeaderENSA_19ReflectionAllocatorISC_EEEESG_PNS_2Cm13SpatialVectorEPNS_25PxcThresholdStreamElementEjRj
Nwl:_DelegatePInvokeWrapper_AppDomainInitializer_t682969308
ISd:__ZN13BoxCollider2D13PrepareShapesER13dynamic_arrayIP7b2ShapeLj4EERK10Matrix4x4f
IK:__ZN14AnimationEvent8TransferI14SafeBinaryReadEEvRT_
F_l:_QualitySettings_get_vSyncCount_m1170877849
Ssa:__ZN8Remapper6RemoveEi
Uvo:_Collection_1_System_Collections_IList_IndexOf_m3538466904_gshared
N4e:__ZN5physx11writeBack1DERKNS_23PxcSolverConstraintDescERNS_16PxcSolverContextERNS_17PxcSolverBodyDataES6_
FJm:_Encoding_GetBytes_m3148649984
rTf:__ZL36CleanupTextRenderingScriptingClassesv
m1d:__ZThn4_N16RayRTreeCallbackILi0ELb0EED0Ev
ktc:__ZN15ReflectionProbe17UseRendererResultEP13ProbeRenderer
S6c:__Z34Mesh_CUSTOM_SetArrayForChannelImplP12Il2CppObject30InternalScriptingShaderChannel34InternalScriptingVertexChannelTypeiP11Il2CppArrayi
Rko:_AudioTrack_OnCreatePlayableGraph_m2007718089
Jra:__Z32scripting_class_get_nested_types17ScriptingClassPtrRNSt3__26vectorIS_13stl_allocatorIS_L18MemLabelIdentifier1ELi16EEEE
ieg:_TMP_Settings_get_warningsDisabled_m2027124047
xUm:_UInt64_System_IConvertible_ToDecimal_m806594027_AdjustorThunk
OZm:_Enumerator_System_Collections_IEnumerator_get_Current_m361750367_AdjustorThunk
W_m:_Enumerator_get_CurrentValue_m3103267885_gshared
X4n:_Array_qsort_TisWeightInfo_t1982677921_TisWeightInfo_t1982677921_m1533305790_gshared
dDp:_IntervalTree_1__ctor_m4064574865_gshared
ytn:_List_1__ctor_m3395838871_gshared
x$e:__ZN5physx2Sc10NPhaseCoreD2Ev
nmg:_TMP_SubMesh_GetSharedMaterial_m3786775384
g5o:_PKCS12__ctor_m1854440921
Zuk:_Array_Resize_TisCustomAttributeNamedArgument_t287865710_m885566878_gshared
i$c:__Z37Quaternion_CUSTOM_INTERNAL_CALL_SlerpRK11QuaternionfS1_fRS_
TZ:__ZN11UnityEngine9Animation28GenericAnimationBindingCache25RegisterIAnimationBindingEPKN5Unity4TypeEiP17IAnimationBinding
yle:__ZN5physx6shdfnd8PoolBaseINS_15PxsArticulationENS0_16AlignedAllocatorILj64ENS0_9AllocatorEEEE17releaseEmptySlabsEv
Lfm:_DirectoryInfo__ctor_m481305441
j1q:dynCall_viiffiii
gCa:__ZN10MemoryPoolC2E10MemLabelIdbPKciii
Mrc:__Z40ProcessCameraIndexListIsNodeVisibleInOutRK22SceneCullingParametersPK9SceneNodePK4AABBR9IndexList
oqp:_GUIScrollGroup_SetHorizontal_m291416666
omb:__ZN16GraphicsSettings8TransferI17RemapPPtrTransferEEvRT_
nYf:__ZN2UI6Canvas13UpdateBatchesEb
Onl:_X509BasicConstraintsExtension_Decode_m120598446
TU:__ZNK23AnimationPlayableOutput11DerivesFromE17ScriptingClassPtr
IVd:__ZN17PolygonCollider2D15TransformPointsERK13dynamic_arrayI8Vector2fLj4EERK10Matrix4x4fRKS1_fP6b2Vec2
mxl:_ArgumentOutOfRangeException_GetObjectData_m1344552880
w7q:_glGetShaderInfoLog__wrapper
v7n:_Dictionary_2_GetObjectData_m2556964510_gshared
Xcn:_Dictionary_2_ContainsKey_m736102892_gshared
tCe:__ZN5physx2Gu5Debug9visualizeERKNS_13PxBoxGeometryERNS_2Cm12RenderOutputERKNS5_8Matrix34ERKNS_9PxBounds3Eyfj
mQg:_ProCamera2DLetterbox__ctor_m3947693346
Kw:__ZN15SerializeTraitsINSt3__26vectorIN22NavMeshProjectSettings15NavMeshAreaDataENS0_9allocatorIS3_EEEEE8TransferI24GenerateTypeTreeTransferEEvRS6_RT_
GZn:_Array_InternalArray__ICollection_Add_TisKeyValuePair_2_t2245450819_m3591771797_gshared
M1f:__ZN11UnityEngine7Connect13ConfigHandler12GetListenersERKN4core12basic_stringIcNS2_20StringStorageDefaultIcEEEE
tTa:__ZN9GfxDevice18AllocRenderSurfaceEb
HBl:_Char__cctor_m2787437263
sgf:__ZN5physx31setupFinalizeSolverConstraints4EPNS_21PxcSolverContact4DescERNS_18PxcNpThreadContextEPhffRKNS_6shdfnd3aos5Vec4VES9_S9_S9_
aUe:__ZN5physx7NpScene5flushEb
wBc:__ZN10TagManager32GetSortingLayerUniqueIDFromValueEi
o0f:__ZN11UnityEngine7Connect15DeviceInfoEvent7GFXInfoD2Ev
Egj:_AspectRatioFitter_get_rectTransform_m2996235303
wra:__ZL27CleanupCoreScriptingClassesv
GSk:_Array_InternalArray__ICollection_Remove_TisContentType_t1128941285_m2281326462_gshared
JKg:_KDTree_FindSplitPoint_m2904137828
eFd:__Z19UpdateSingleRow2TplIL27ParticleSystemCurveEvalMode2ELS0_1EEvfRK11MinMaxCurveS3_RK23ParticleSystemParticlesPfbiii
q0d:__ZN5physx2Gu13GeometryUnion3setERKNS_10PxGeometryE
d$m:_Enumerator_VerifyCurrent_m3071620407_AdjustorThunk
uuk:_Comparer_1_System_Collections_IComparer_Compare_m1313384821_gshared
D$c:__Z26AnimationCurve_CUSTOM_InitP12Il2CppObjectP11Il2CppArray
TYl:_PlayableHandle_SetTime_Injected_m830236558
Bcr:_glUniform1uiv__wrapper
jPd:__ZNK14b2PolygonShape5CloneEP16b2BlockAllocator
Cjq:__ZN6il2cpp2vm10Reflection7IsEventEP12Il2CppObject
qUk:_PlayableOutputHandle_IsPlayableOutputOfType_TisRuntimeObject_m1213926423_gshared
jqa:__ZN17PersistentManager26GetStreamNameSpaceInternalEi
Hvg:_SecretBlock_Start_m2213286864
F0:__ZN31AnimationOffsetPlayableBindings20CreateHandleInternalERK14HPlayableGraphRK8Vector3fRK11QuaternionfR9HPlayable
l2:__ZN4FMOD6System11createSoundEPKcjP22FMOD_CREATESOUNDEXINFOPPNS_5SoundE
Rdn:_Dictionary_2_Remove_m269894292_gshared
vr:FUNCTION_TABLE_iiifiiii
nFf:__ZN13SpeedTreeWind20AdvanceWithoutUpdateEd
Ign:_KeyValuePair_2_ToString_m823870646_AdjustorThunk
NBm:_DateTime_System_IConvertible_ToDecimal_m1044850612
Cpl:_X509Store_get_Factory_m3282910266
Uxf:__ZThn128_N5physx7profile8ZoneImplINS_28PxProfileNameProviderForwardEED1Ev
LCa:__ZN9ShaderLab19CommonPropertyNames13StaticCleanupEPv
ksa:__Z31scripting_method_get_returntype18ScriptingMethodPtr
Y0e:__ZN5physx2Sq17AABBTreeUpdateMap10invalidateEjjRNS0_8AABBTreeE
Pzb:__ZN15SerializeTraitsI12LightmapDataE8TransferI24GenerateTypeTreeTransferEEvRS0_RT_
Q$p:_MainModule_get_startLifetimeMultiplier_m1798732576
Hff:__ZN5physx28solveParallelDefaultFrictionERNS_18PxsDynamicsContextEjjPNS_13PxcSolverBodyEPNS_17PxcSolverBodyDataEjjPNS_25PxcArticulationSolverDescEjPNS_23PxcSolverConstraintDescEjS9_jPiSA_SA_SA_SA_SA_PNS_25PxcThresholdStreamElementEjSA_PNS_2Cm13SpatialVectorEPKPNS_11PxsBodyCoreERNSD_10BitMapBaseINS_6shdfnd9AllocatorEEEPKPNS_15PxsArticulationEjPViRNSL_5ArrayINS_24PxsConstraintBatchHeaderENSL_19ReflectionAllocatorISW_EEEES10_RNSV_IjNSX_IjEEEES13_PPNS_12PxsRigidBodyEj
C7q:_glStencilOpSeparate__wrapper
wTq:__ZNKSt3__27num_getIwNS_19istreambuf_iteratorIwNS_11char_traitsIwEEEEE6do_getES4_S4_RNS_8ios_baseERjRl
JOc:__ZN4Mesh5SetUvEiPKfjj
QAb:__ZN7Texture13SetAnisoLimitENS_20AnisotropicFilteringE
qda:__ZN11AudioModule16SetListenerPauseEb
qar:_glDeleteShader__wrapper
xzl:_Attribute_IsDefined_m4069052474
Wj:_emscripten_glCompressedTexSubImage2D
d4a:__ZN13GfxDeviceGLES22MemoryBarrierImmediateEyN2gl17MemoryBarrierTypeE
TVp:_Physics2D_get_gravity_m3148949717
io:_abort
L1a:__ZN6prcoreL26RemapGenericFloatToIntegerI18TexFormatARGBFloat17TexFormatARGB8888EEvPKNS_9InnerInfoE
S0o:_List_1_set_Capacity_m1977188119_gshared
oDq:__ZN6il2cpp6icalls8mscorlib6System10Reflection9MonoField16GetValueInternalEP21Il2CppReflectionFieldP12Il2CppObject
BTc:__Z46GetShaderModelNumericValueFromRequirementsMask18ShaderRequirements
fMm:_UTF7Encoding_InternalGetBytes_m797138468
aJf:_cff_ps_has_glyph_names
lqf:__ZN5physx15writeWordBufferEPKtjbRNS_14PxOutputStreamE
LQp:_Animation_Play_m2798573761
L9n:_Dictionary_2_Resize_m3287623642_gshared
UFq:_GC_write
Aeh:__Z68RuntimeInvoker_Void_t1185182177_Single_t1397266774_SByte_t1669577662PFvvEPK10MethodInfoPvPS4_
D_:__ZN13ProduceHelperI9AnimationLb0EE7ProduceE10MemLabelId18ObjectCreationMode
S5n:_Dictionary_2_Remove_m4193450060_gshared
rAc:__Z13tessTesselateP14TESStesselatoriiiiPKf
M_j:_MulticastDelegate_GetObjectData_m3957553424
ndm:_Int64_TryParse_m3606398488
iCj:_RemotingServices_IsTransparentProxy_m1535738947
z3n:_Array_InternalArray__set_Item_TisMark_t3471605523_m1299772331_gshared
sgd:__Z44Register_UnityEngine_GUIStyle_SetDefaultFontv
FAc:__ZN19SpriteMeshGenerator9MakeShapeEP11ColorRGBA32iifhbjfi
F3b:__Z18Transfer_BlittableI18StreamedBinaryReadILb1EELb1EiEvRK29SerializationCommandArgumentsR31RuntimeSerializationCommandInfo
tW:__ZN9BlobWrite8TransferI22OffsetPtrArrayTransferIKN4math7_float3EEEEvRT_PKc17TransferMetaFlags
TGb:__ZN16MeshSkinningData14GetBoneWeightsEi
fWg:__Z173RuntimeInvoker_Int32_t2950945753_RuntimeObject_Int32_t2950945753_Int32_t2950945753_Int32_t2950945753_RuntimeObject_Int32_t2950945753_SByte_t1669577662_ContextU26_t3937453398PFvvEPK10MethodInfoPvPS4_
YRo:_List_1__ctor_m2576108087_gshared
qiq:__ZN15dense_hashtableINSt3__24pairIK10KeyWrapperINS1_IPK12PropertyInfoP11Il2CppClassEEEjEES9_17ReflectionMapHashIS8_EN14dense_hash_mapIS9_jSD_NS9_14EqualsComparerINS0_8equal_toIS8_EEEENS0_9allocatorISB_EEE9SelectKeyESI_SK_E12maybe_shrinkEv
woo:_TimelineClip_EvaluateMixOut_m1486237829
cYk:_Array_IndexOf_TisColor_t2555686324_m1067017992_gshared
lje:__ZN5physx2Sc7BodySim37checkSleepReadinessBesidesWakeCounterEv
D5o:_X509Certificate_get_DSA_m565099499
e4b:__Z18Transfer_BlittableI18StreamedBinaryReadILb1EELb1EsEvRK29SerializationCommandArgumentsR31RuntimeSerializationCommandInfo
u9p:_NavMeshAgent_set_updateRotation_m333199218
XKm:_StringBuilder_Remove_m940064945
Iem:_BinaryWriter__ctor_m2439641268
_Ed:__Z19UpdateSingleRow2TplIL27ParticleSystemCurveEvalMode1ELS0_2EEvfRK11MinMaxCurveS3_RK23ParticleSystemParticlesPfbiii
$Uj:_Context_NotifyDynamicSinks_m1841702879
UAb:__ZL21SetAnisoLimitEnumImplN7Texture20AnisotropicFilteringEb
$$f:__ZN22BaseUnityConnectClient17OnEnterStateReadyEv
zRm:_Type_GetTypeHandle_m1526957577
kRe:__ZN5physx2Sc10NPhaseCore24createTriggerInteractionERNS0_8ShapeSimES3_NS_7PxFlagsINS_10PxPairFlag4EnumEtEE
_al:_Text_get_fontSize_m1677872538
Mrn:_List_1_System_Collections_IList_get_Item_m995551621_gshared
POk:_SslStreamBase_get_KeyExchangeStrength_m217695965
zkb:__ZN14GrowableBufferD2Ev
l_c:__Z29Input_CUSTOM_GetMouseButtonUpi
p2d:__ZN5physx2Gu12selectNormalEhff
Qbq:__ZN6il2cpp6icalls8mscorlib6System8MonoType16InternalGetEventEP20Il2CppReflectionTypeP12Il2CppStringi
Oep:_UriScheme_t722425697_marshal_pinvoke_back
UKf:_UNITY_tt_face_load_maxp
xfd:__Z39Register_UnityEngine_Event_Internal_Usev
C_c:__Z46Input_CUSTOM_INTERNAL_set_compositionCursorPosRK13Vector2fIcall
bP:__ZN7mecanim5human12FullBodyMaskEv
zKe:__ZN5physx3Scb14ParticleSystem16releaseParticlesEjRKNS_16PxStrideIteratorIKjEE
Yxn:_BigInteger_ToString_m3475000413
mIb:__ZN19ShaderPropertySheet11ComputeHashEv
U4p:__ZN30dense_hashtable_const_iteratorI10KeyWrapperIPK19Il2CppGenericMethodES4_N6il2cpp8metadata23Il2CppGenericMethodHashEN14dense_hash_setIS4_S7_NS4_14EqualsComparerINS6_26Il2CppGenericMethodCompareEEENSt3__29allocatorIS4_EEE8IdentityESB_SE_EppEv
jXe:__ZN5physx2Sc5Scene21processLostTouchPairsEv
QPd:__ZN12b2EPCollider24ComputePolygonSeparationEv
Xja:__ZN11UnityEngine15CloudWebService20WebRequestRestClient6IsDoneEv
TZi:_ProCamera2DSpeedBasedZoom_Awake_m836709642
gQg:_ProCamera2DGeometryBoundaries_Awake_m3084799776
a4o:_X509CertificateCollection_get_Item_m1033426577
Wk:_llvm_fabs_f32
Aja:__ZN11UnityEngine15CloudWebService16SessionContainer16GetJsonDataBlockEjRKN4core12basic_stringIcNS2_20StringStorageDefaultIcEEEERS6_PjSA_
tfg:_TMP_InputField_set_onSubmit_m1243482771
aYf:__ZN2UI6Canvas17EmitWorldGeometryEP6CameraRtb
nzn:_ASN1_Decode_m1695284166
XK:__ZN7mecanim9animation18ClipMuscleConstant8TransferI14SafeBinaryReadEEvRT_
G1m:_ShimEnumerator_Reset_m2749805163_gshared
A9e:__ZN5physx22PxcContactConvexConvexERKNS_2Gu13GeometryUnionES3_RKNS_11PxTransformES6_RKfRNS_10PxcNpCacheERNS0_13ContactBufferE
dIm:_Enum_ToString_m3248653065
H1d:__ZNK5physx2Gu11ConvexHullV12HillClimbingERKNS_6shdfnd3aos5Vec3VE
cXq:__ZNSt3__211__money_putIcE13__gather_infoEbbRKNS_6localeERNS_10money_base7patternERcS8_RNS_12basic_stringIcNS_11char_traitsIcEENS_9allocatorIcEEEESF_SF_Ri
zqa:__ZN14SafeBinaryReadD2Ev
wol:_X509BasicConstraintsExtension_CopyFrom_m1931463033
nKe:__ZN5physx2Sc18ParticleSystemCore10setDampingEf
cDc:__Z13RegisterClassI7TextureEvv
Gnn:_Enumerator_MoveNext_m3859993671_gshared
JYi:_ProCamera2DShake_Awake_m1052252955
u5b:__ZN8Gradient8TransferI18StreamedBinaryReadILb1EEEEvRT_
zrl:_Capture__ctor_m3103117740
dKl:_Camera_set_cullingMask_m1402455777
Sb:invoke_iiiffffii
SCb:__ZN4core8hash_mapINS_12basic_stringIcNS_20StringStorageDefaultIcEEEE13dynamic_arrayI4PPtrI6SpriteELj4EENS_4hashIS4_EENSt3__28equal_toIS4_EEEixERKS4_
qyn:_Kernel_RightShift_m2207393597
Gkg:_TMP_Settings_get_defaultStyleSheet_m1139423710
P8j:_U3CGetEnumeratorU3Ec__Iterator0_Reset_m1192421843_gshared
Xfe:__ZN5physx2Sc10NPhaseCore16deleteFilterPairEPNS0_10FilterPairE
ESk:_Array_InternalArray__ICollection_Remove_TisTMP_CharacterInfo_t3185626797_m1831411579_gshared
RAd:__ZN14ParticleSystem15ThreadedCleanupEv
H$l:_RangeInt_get_end_m4128831787_AdjustorThunk
Gtq:__ZN6il2cpp6icalls8mscorlib6System4Type15MakeGenericTypeEP20Il2CppReflectionTypeP11Il2CppArray
yzf:_PxCreateBasePhysics
Trp:_Shader__ctor_m837260462
xl:_SDL_PauseAudio
Wmh:__Z72RuntimeInvoker_Boolean_t97287965_Int64_t3736567304_ObjectU26_t2146539884PFvvEPK10MethodInfoPvPS4_
sHl:_Hashtable_Clone_m3078962909
Bmq:_il2cpp_class_from_type
Ezg:_TMP_TextSelector_B__ctor_m619334773
$Kc:__ZN14HPlayableGraph26CreateScriptOutputInternalEPKcR15HPlayableOutput
ARp:_AnimationLayerMixerPlayable__ctor_m860721801
Xje:__ZN5physx2Sc5Scene28addActiveBreakableConstraintEPNS0_13ConstraintSimE
KCa:__ZN9ShaderLab19CommonPropertyNames16StaticInitializeEPv
Vye:__ZN5physx6shdfnd8PoolBaseINS_16NpParticleSystemENS0_19ReflectionAllocatorIS2_EEE15disposeElementsEv
yY:__ZN7mecanim9animation18CreateAvatarOutputEPKNS0_14AvatarConstantEbbRNS_6memory9AllocatorE
oyf:__ZN5physx7profile11EventBufferINS_24PxDefaultContextProviderENS_6shdfnd6MutexTINS0_26WrapperReflectionAllocatorIhEEEENS0_14ScopedLockImplIS7_EENS_24PxProfileNullEventFilterEE10eventValueEtyx
fMk:_TlsServerCertificateRequest_Update_m2763887540
Ztd:__Z14UpdateSpeedTplIL27ParticleSystemCurveEvalMode1EEvRK11MinMaxCurveR23ParticleSystemParticlesjj
Q9k:_Slider_set_maxValue_m2251404465
_9:__ZN11AudioSource23VirtualRedirectTransferER24GenerateTypeTreeTransfer
aOc:__ZN7Texture11SetWrapModeE15TextureWrapMode
tSl:_Material_CopyPropertiesFromMaterial_m2896226580
okp:_TimedObjectActivator_ReloadLevel_m3297458802
nDb:__ZN14Texture2DArray23VirtualRedirectTransferER14SafeBinaryRead
GYj:_MissingMemberException__ctor_m1220732369
Umc:__ZNK6Camera21CalculateCanDoShadowsEv
KVe:__ZNK5physx2Sc5Scene17getBroadPhaseCapsERNS_16PxBroadPhaseCapsE
Jve:__ZN5physx9NpFactory14onActorReleaseEPNS_7PxActorE
zIl:_Application_InvokeOnBeforeRender_m2875673833
jvj:_DSASignatureDeformatter_VerifySignature_m4260177023
Zle:__ZN5physx2Sc5Actor15onElementAttachERNS0_7ElementE
VBk:_Array_InternalArray__get_Item_TisRuntimeObject_m3347010206_gshared
oLj:_TypeBuilder_IsSubclassOf_m3458909121
RNc:__ZNK8Renderer16IsVisibleInSceneEv
a3j:_Default_check_arguments_with_score_m3467814020
Zpa:__Z13VFormatBufferPciPKcz
_Je:__ZN5physx2Sc18ParticleSystemCore23setSimulationFilterDataERKNS_12PxFilterDataE
A6b:__Z18Transfer_BlittableI18StreamedBinaryReadILb0EELb1EhEvRK29SerializationCommandArgumentsR31RuntimeSerializationCommandInfo
Eul:_X509Certificate__cctor_m198658613
j6l:_CompareInfo_Equals_m1257808801
LBc:__ZL24GenerateTilingJobCombineP22GenerateTilingAreaInfo
zGj:_MemberTypeMetadata__ctor_m2376841411
P1a:__ZN6prcoreL27StretchGenericFloatBilinearI15TexFormatRFloatEEvPKNS_9InnerInfoE
VEk:_PrimalityTests_GetSPPRounds_m2558073743
S$e:__ZN5physx6shdfnd8internal8HashBaseINS0_4PairIKNS_2Sq13PrunerPayloadEjEES5_NS0_4HashIS5_EENS1_11HashMapBaseIS5_jS9_NS0_9AllocatorEE6GetKeyESB_Lb1EE15reserveInternalEj
WVp:_PolygonCollider2D_get_points_m1044802763
EWh:__ZL139ServicePointManager_t170559685_CustomAttributesCacheGenerator_ServicePointManager_t170559685____CheckCertificateRevocationList_PropertyInfoP21CustomAttributesCache
hTf:__ZNSt3__23mapIN20TextRenderingPrivate7FontRefENS1_6OSFontENS_4lessIS2_EENS_9allocatorINS_4pairIKS2_S3_EEEEEixERS8_
pIm:_Enum_ToObject_m1628250250
QR:__Z24ProcessAnimationMixBeginP35AnimationPlayableEvaluationConstantP32AnimationPlayableEvaluationInputP33AnimationPlayableEvaluationOutput
iWj:_StreamWriter_LowLevelWrite_m1081676583
OSq:__ZNKSt3__26locale9use_facetERNS0_2idE
S_a:__Z14PadImageBorderR14ImageReferenceii
Sgq:__ZN15dense_hashtableINSt3__24pairIK10KeyWrapperINS1_IPK10MethodInfoP11Il2CppClassEEEjEES9_17ReflectionMapHashIS8_EN14dense_hash_mapIS9_jSD_NS9_14EqualsComparerINS0_8equal_toIS8_EEEENS0_9allocatorISB_EEE9SelectKeyESI_SK_E4findERSA_
c8p:__ZN6il2cpp2vm13MetadataCache28GetFieldDefaultValueForFieldEPK9FieldInfo
WJp:_Enumerable_Last_TisRuntimeObject_m4023307269_gshared
lYk:_Array_IndexOf_TisUIVertex_t4057497605_m3336763564_gshared
Rgp:_MobileInput_AddAxes_m488652706
sS:__ZN27AnimationLayerMixerPlayableD2Ev
Tij:_ColorBlock_Equals_m518833916_AdjustorThunk
D3e:__ZN5physx2Gu22gjkRelativePenetrationINS0_9TriangleVENS0_8CapsuleVEEEjRKT_RKT0_RKNS_6shdfnd3aos15PsMatTransformVERKNSB_6FloatVERNSB_5Vec3VESJ_SJ_RSF_PhSL_Rh
PLq:__ZN6il2cpp2os9FastMutexC2Ev
Frf:__ZN9Rigidbody14SetIsKinematicEb
bek:_InternalEnumerator_1_System_Collections_IEnumerator_get_Current_m1514266661_AdjustorThunk
s4:__ZN12AudioManager39HandlePendingAudioConfigurationCallbackEv
LDp:_IndexedSet_1_RemoveAt_m3002732320_gshared
zm:_emscripten_glIsFramebuffer
VBn:_RSAManaged_EncryptValue_m799827583
Fua:__ZN12_GLOBAL__N_16qAtan2Eff
DCf:__Z13RegisterClassI9RigidbodyEvv
dTq:__ZNSt3__215__num_get_floatIfEET_PKcS3_Rj
Em:_JS_Sound_SetLoopPoints
wFa:__ZN15dense_hashtableINSt3__24pairIKyP17VertexDeclarationEEy14GfxGenericHashIyEN14GfxDoubleCacheIyS4_S7_NS0_8equal_toIyEEN31GfxDoubleCacheConcurrencyPolicy11LocklessGetE42GfxDoubleCacheDefaultEmptyDeletedGeneratorIyEE9SelectKeyESA_13stl_allocatorIS5_L18MemLabelIdentifier24ELi16EEE14squash_deletedEv
mba:__ZN12AudioManager17ShouldSourcePauseEb
yKq:__ZN6il2cpp2vm26MetadataAllocGenericMethodEv
wSk:_Array_InternalArray__ICollection_Remove_TisUInt16_t2177724958_m1766181761_gshared
P7a:__ZN19ConstantBuffersGLES12RecordRenderEv
u$e:__ZN5physx13ActorAABBTaskD2Ev
Xjd:__ZN9JSONWrite8TransferI10RectOffsetEEvRT_PKc17TransferMetaFlags
x_a:__ZN4crnd12symbol_codec11decode_bitsEj
e6c:__Z46QualitySettings_Get_Custom_PropPixelLightCountv
kQd:__ZN15b2CircleContact8EvaluateEP10b2ManifoldRK11b2TransformS4_
BFp:_AesManaged_GenerateIV_m1368817386
Gpb:__ZN10Matrix3x4f8TransferI24GenerateTypeTreeTransferEEvRT_
hDc:__Z13RegisterClassI15QualitySettingsEvv
cfl:_GoBackToMainMenu_Update_m819667906
IWm:_Enumerator_MoveNext_m3199881490_gshared
w4:__ZN4FMOD6System12createReverbEPPNS_6ReverbE
rDq:__ZN6il2cpp2vm6String21InitializeEmptyStringEP11Il2CppClass
EGh:__ZL48Queue_t3637523393_CustomAttributesCacheGeneratorP21CustomAttributesCache
jS:__ZN7mecanim19ValueArrayBlendNodeILb1EEEvRKNS_10ValueArrayERKNS_14ValueArrayMaskERS1_RS4_RNS_16ValueArrayWeightEf
Jfq:__ZN15dense_hashtableINSt3__24pairIK10KeyWrapperINS1_IPK9FieldInfoP11Il2CppClassEEEjEES9_17ReflectionMapHashIS8_EN14dense_hash_mapIS9_jSD_NS9_14EqualsComparerINS0_8equal_toIS8_EEEENS0_9allocatorISB_EEE9SelectKeyESI_SK_E12resize_deltaEjj
uQb:__Z16MarkDependenciesR27GarbageCollectorThreadStatej
qQj:_TypeDelegator_GetEvent_m3148520673
DDj:_RemotingServices_DisposeIdentity_m2605848806
Rua:__ZNK9Transform11GetPositionEv
cHd:__ZNSt3__211__sift_downIRNS_4lessI23TransformAccessReadOnlyEEPS2_EEvT0_S6_T_NS_15iterator_traitsIS6_E15difference_typeES6_
xJl:_Bounds_set_size_m4127623202
C9l:_GuidParser_Reset_m2640004655
aaj:_TextMeshProUGUI_GetSharedMaterials_m286415928
rnb:__ZN23SharedMeshRenderingData18UnloadVertexStreamEi
Bbe:__ZN5physx3Cct13HandleManager3AddEPv
DJc:__ZN31CanvasBatchIntermediateRenderer11AddSubBatchERK16DrawBuffersRangePK19ShaderPropertySheet
WHc:__ZN19RenderEventsContextC2Ei
Gha:__Z6simd4fRKf
Dsj:_RuntimeTypeHandle_GetObjectData_m1599302095_AdjustorThunk
jn:_emscripten_glEnable
jGd:__ZNK14ParticleSystem16GetParticleCountEv
tib:__ZN10TagManager23VirtualRedirectTransferER14SafeBinaryRead
fpi:__ZL51RawImage_t3182918964_CustomAttributesCacheGeneratorP21CustomAttributesCache
Lkf:__ZNK5physx2Sc15ClothFabricCore9getNbSetsEv
yee:__ZThn12_N5physx3Ext5JointINS_15PxDistanceJointENS_30PxDistanceJointGeneratedValuesEE15getSerializableEv
e7i:_SpriteFrame_ToString_m3147671235_AdjustorThunk
Dpc:__Z15InitLightMeshesv
iNj:_MonoCMethod_ToString_m3992577062
RUe:__ZNK5physx7NpScene26getNbContactDataBlocksUsedEv
zq:FUNCTION_TABLE_iifiii
l7d:__ZN5physx2Gu29computeCapsule_HeightFieldMTDERKNS_21PxHeightFieldGeometryERKNS_11PxTransformERNS0_8CapsuleVEffbjRNS_10PxSweepHitE
M$m:_Enumerator_Reset_m2830090014_gshared
Zuo:_Stack_1_Push_m1669856732_gshared
AJc:__ZN6Camera21ResetProjectionMatrixEv
cmf:__ZN5physx2Gu11HeightField15exportExtraDataERNS_22PxSerializationContextE
LAb:__ZN15QualitySettings8TransferI19StreamedBinaryWriteILb0EEEEvRT_
UWi:_ProCamera2DPixelPerfectSprite_Step_m2860410427
yGf:_cf2_arrstack_init
dCk:_Array_InternalArray__get_Item_TisResourceCacheItem_t51292791_m1306056717_gshared
bfq:__ZN15dense_hashtableINSt3__24pairIK10KeyWrapperINS1_IPK14Il2CppAssemblyP11Il2CppClassEEEjEES9_17ReflectionMapHashIS8_EN14dense_hash_mapIS9_jSD_NS9_14EqualsComparerINS0_8equal_toIS8_EEEENS0_9allocatorISB_EEE9SelectKeyESI_SK_E15insert_noresizeERKSB_
pvk:_Array_Resize_TisTMP_PageInfo_t2608430633_m3712126464_gshared
Pna:__Z15CleanLogHandler7LogTypePKcz
Y$j:_NumberFormatter_NumberToString_m2481532188
mOa:__ZN9ShaderLab19SerializedSubShader8TransferI19StreamedBinaryWriteILb0EEEEvRT_
WAe:__ZN5physx10NpMaterialC2ERKNS_2Sc12MaterialCoreE
$7k:_ScrollRect_InternalGetBounds_m599803667
vcf:__ZN5physx9PxTaskMgr10resolveRowEjb
$Zp:_Rigidbody_set_angularVelocity_m4254006699
VQk:_Array_InternalArray__ICollection_Contains_TisTMP_LinkInfo_t1092083476_m1569125747_gshared
S9b:__ZN6Camera17RemoveImageFilterERK11ImageFilter
TPa:__ZNSt3__218__insertion_sort_3IR25ValueParameterArraySorterPN20GpuProgramParameters14ValueParameterEEEvT0_S6_T_
$5c:__Z40Register_UnityEngine_Skybox_get_materialv
ITd:__ZN10ClipperLib7Clipper27ProcessEdgesAtTopOfScanbeamEx
ird:__ZN14EmissionModule15AccumulateBurstER27ParticleSystemEmissionStateRK11MinMaxCurvef
PAd:__ZN11ShapeModule17MainThreadCleanupEv
xAd:__ZN9SubModule5ResetEv
Nx:__ZN12NavMeshAgent13SetBaseOffsetEf
lep:_Uri__ctor_m3040793867
FC:__ZN12NavMeshQuery20UpdateSlicedFindPathEiPi
Dip:_ReplacementList__ctor_m786158475
v6c:__Z40Renderer_Set_Custom_PropSortingLayerNameP12Il2CppObjectP12Il2CppString
lfk:_InternalEnumerator_1_get_Current_m3500427238_AdjustorThunk
VYf:__ZN2UI26InitializeDeviceForOverlayEi
fkf:__ZNK5physx13NpClothFabric13getRestvaluesEPfj
LBa:__Z27LogRepeatingStringWithFlagsRKN4core12basic_stringIcNS_20StringStorageDefaultIcEEEE15LogMessageFlagsi
C4d:__ZN5physx2Gu16_gjkLocalRayCastINS0_9TriangleVENS0_11ConvexHullVEEEbRT_RT0_RKNS_6shdfnd3aos6FloatVERKNS9_5Vec3VESF_RSA_RSD_SH_f
pZn:_Array_ForEach_TisRuntimeObject_m599801986_gshared
qIm:_Enum_IsDefined_m1442314461
dOm:_Thread__cctor_m817723615
iHp:_AudioExtensionManager_RegisterBuiltinDefinitions_m2742744104
CP:__ZN17AnimationPlayable28ComputeNeedsBindingRebuildedEv
JO:__ZN17AnimationPlayable23RequestAllocateBindingsEv
kcn:_Dictionary_2_Remove_m3047710788_gshared
gke:__ZN5physx6shdfnd8PoolBaseINS_2Cm5BlockIPvLj32EEENS0_19ReflectionAllocatorIS5_EEE17releaseEmptySlabsEv
y3j:_CustomAttributeNamedArgument_GetHashCode_m2317130892
Ylp:_TMP_UpdateManager_UnRegisterTextElementForRebuild_m4176443683
I5e:__ZN5physx23PxsBroadPhaseContextSap21batchUpdateFewUpdatesEjRPNS_17PxcBroadPhasePairERjS4_
MIm:_DecoderReplacementFallbackBuffer_Fallback_m1261056214
S7d:__ZN5physx3Cct17getSceneTimestampEPKNS0_30InternalCBData_FindTouchedGeomE
QZj:_Binder_get_DefaultBinder_m950908649
BVj:_StreamReader__ctor_m1616861391
Abh:__Z86RuntimeInvoker_Void_t1185182177_Single_t1397266774_SByte_t1669577662_SByte_t1669577662PFvvEPK10MethodInfoPvPS4_
S2f:__ZN18UnityConnectClient33OnPlayerSessionStateChangedStaticEPS_jyy
XYi:_ProCamera2DShake_Shake_m344230255
Ltk:_Comparer_1__cctor_m298632577_gshared
Kjm:_RSA_ToXmlString_m2922661427
Hka:__ZNK11UnityEngine15CloudWebService23WebRequestUploadHandler11GetProgressEv
n0c:__Z25PlayerPrefs_CUSTOM_GetIntP12Il2CppStringi
xXa:__ZN7ApiGLES4LoadE16GfxDeviceLevelGL
aAb:__ZN18StreamedBinaryReadILb0EE21TransferSTLStyleArrayI13dynamic_arrayI31EnlightenSystemAtlasInformationLj8EEEEvRT_17TransferMetaFlags
Zln:_Enumerator_System_Collections_IEnumerator_Reset_m1420519084_AdjustorThunk
dAe:__ZN5physx9NpPhysics15createAggregateEjb
r_a:__ZN4crnd12crn_unpacker22decode_color_endpointsEv
tv:__ZL19ProjectToPolyDetailPK11NavMeshTilePK11NavMeshPolyRK8Vector3fPf
Wwq:__ZN15dense_hashtableI10KeyWrapperIP18Il2CppGenericClassES3_N6il2cpp8metadata22Il2CppGenericClassHashEN14dense_hash_setIS3_S6_NS3_14EqualsComparerINS5_25Il2CppGenericClassCompareEEENSt3__29allocatorIS3_EEE8IdentityESA_SD_E15insert_noresizeERKS3_
sDp:_ScriptPlayable_1_GetBehaviour_m3817690859_AdjustorThunk
nGc:__ZZL31RegisterOtherRendererPropertiesR22GenericPropertyBindingEN30Wrapper_RendererReceiveShadows13GetFloatValueEPv
hvf:__ZN9Rigidbody5ResetEv
tyb:__ZN17SharedTextureDataC2E10MemLabelIdii13TextureFormatjiibb
Ueh:__Z114RuntimeInvoker_RuntimeObject_RuntimeObject_Int32_t2950945753_Int32_t2950945753_Int32_t2950945753_Int32_t2950945753PFvvEPK10MethodInfoPvPS4_
M$q:__ZNK10__cxxabiv121__vmi_class_type_info16search_below_dstEPNS_19__dynamic_cast_infoEPKvib
zTq:__ZNKSt3__27num_getIwNS_19istreambuf_iteratorIwNS_11char_traitsIwEEEEE6do_getES4_S4_RNS_8ios_baseERjS8_
Zcc:__ZN8Material11SetPassFastEPN9ShaderLab4PassER17ShaderPassContextP6Shaderib
s6c:__Z31Renderer_Set_Custom_PropEnabledP12Il2CppObjectb
Q2f:__ZN11UnityEngine7Connect20BasePersistentValues10SaveValuesER9JSONWrite
_9i:_TextMeshProUGUI_GetMaterials_m3711645389
PBm:_DateTime_System_IConvertible_ToDouble_m2116720007
q8f:__ZNK17VideoClipPlayback10CanReleaseEv
stj:_SByte_Parse_m2899090751
cAd:__ZN11ShapeModule18MultiModeParameterIN25IParticleSystemProperties8PropertyIfNS1_5ClampILi0ELi360EEEEEE8TransferI19StreamedBinaryWriteILb0EEEEvRT_
gJb:__ZN14SafeBinaryRead21TransferSTLStyleArrayINSt3__26vectorI17SubstanceEnumItemNS1_9allocatorIS3_EEEEEEvRT_17TransferMetaFlags
_8j:_ArrayReadOnlyList_1_GetEnumerator_m1835926958_gshared
mcf:__ZN5physx9PxTaskMgr12addReferenceEj
VQd:__ZNSt3__27__sort4IR24RayHitsByDepthComparitorP12RaycastHit2DEEjT0_S5_S5_S5_T_
cQc:__Z14ScaleCurveTimeR17AnimationCurveTplIfEf
YEa:__ZN22VirtualJoystickManagerC2Ev
yEa:__ZN20GlobalCachingManager7DisposeEv
Sjc:__Z12SetupLODFadeR9GfxDeviceR17ShaderPassContextf
dwb:__ZNK14PlayableOutput7GetTypeEv
WOd:__ZN26b2PolygonAndCapsuleContact6CreateEP9b2FixtureiS1_iP16b2BlockAllocator
jA:__ZNSt3__27__sort4IR17DetailNodeZSorterP16DetailMeshBVNodeEEjT0_S5_S5_S5_T_
qpc:__ZL24CollectForwardObjectsJobP27CollectForwardObjectsHeader
U$o:_List_1_get_Item_m1378751541_gshared
lrc:__Z13IsNodeVisibleRK9SceneNodeRK4AABBRK22SceneCullingParameters
xNd:__ZN12HingeJoint2D23VirtualRedirectTransferER17RemapPPtrTransfer
Lwn:_SortKeyBuffer_AppendCJKExtension_m2591091991
_6m:_ValueCollection_GetEnumerator_m3946707082_gshared
zMm:_UTF8Encoding_GetByteCount_m4153686982
lsc:__Z24ScheduleCullingAllGroupsR8JobFenceRK22SceneCullingParametersiRK13CullingOutputRK13dynamic_arrayIP12CullingGroupLj4EERKS_
dbr:_emscripten_glStencilMask__wrapper
RTg:__Z49RuntimeInvoker_Void_t1185182177_Double_t594665363PFvvEPK10MethodInfoPvPS4_
CGd:__Z33GetParticleSystemScriptingClassesv
k6p:__ZN15dense_hashtableINSt3__24pairIK10KeyWrapperIN6il2cpp5utils13dynamic_arrayIPK10Il2CppTypeLj4EEEEPFvvEEESA_NS3_8metadata19Il2CppSignatureHashEN14dense_hash_mapISA_SD_SG_NSA_14EqualsComparerINSF_22Il2CppSignatureCompareEEENS0_9allocatorISE_EEE9SelectKeyESK_SM_EC2EjRKSG_RKSK_RKSO_
U2l:_RenderTextureDescriptor_get_depthBufferBits_m2160829816_AdjustorThunk
tkb:__ZN15RenderNodeQueue7CleanupEv
e6h:__ZL66RuntimePlatform_t4159857903_CustomAttributesCacheGenerator_XBOX360P21CustomAttributesCache
Uce:__ZN16NovodexAllocator8allocateEjPKcS1_i
Wub:__ZN39DeprecatedFastPropertyNameSerialization8TransferI14SafeBinaryReadEEvRT_
u5o:_DeriveBytes_DeriveIV_m973925711
Obm:_Int32_System_IConvertible_ToSByte_m3133688512
zap:_Regex_GetGroupNamesArray_m3575729002
iEg:_Clipper_AddPolyNodeToPaths_m1592049623
npc:__ZN9ShaderLab10GrabPassesD2Ev
i8k:_ScrollRect_CalculateOffset_m927043599
yDb:__ZN14Texture2DArray13UploadTextureEv
l4k:_MaskableGraphic_UpdateCull_m2805101913
Xlp:_TMP_UpdateManager_OnCameraPreCull_m869771841
BLf:_tt_cmap14_done
qOb:__ZN18AwakeFromLoadQueue25RegisterObjectInstanceIDsEv
g8n:_Dictionary_2_Add_m4262304220_gshared
YIq:_GC_disable
irg:_TMP_Text_GetRenderedHeight_m2325014963
iKl:_Camera_INTERNAL_set_backgroundColor_m1542486218
xS:__ZNK27AnimationLayerMixerPlayable11DerivesFromE17ScriptingClassPtr
NRf:__ZN20TextRenderingPrivate19NativeTextGenerator15InsertCharacterEiPj
CVe:__ZN5physx2Sc5Scene22removeBroadPhaseRegionEj
Tbe:__ZN5physx2Cm12RenderBuffer5clearEv
$Xm:_Enumerator_get_CurrentValue_m3438280969_gshared
z2l:_RenderTexture_Internal_SetWidth_m1838533947
oHe:__ZNK5physx2Sc9ClothCore21getStiffnessFrequencyEv
sLd:__ZN11b2RopeJoint24SolveVelocityConstraintsERK12b2SolverData
Ipp:_GUIContent_ClearStaticCache_m1205116045
wwd:__ZN24OptimizedPolynomialCurve19BuildOptimizedCurveERK17AnimationCurveTplIfEf
T1e:__ZN5physx13PxsCCDContext14postCCDAdvanceEPNS_10PxBaseTaskE
yom:_WindowsIdentity_Dispose_m3466258450
sFj:_BinaryCommon__cctor_m2978407547
NBl:_Char_System_IConvertible_ToByte_m2347554595
T2q:dynCall_viiffffffi
Vvp:_Vector2_Normalize_m1906922873_AdjustorThunk
fsq:__ZN6il2cpp6icalls8mscorlib6System2IO6MonoIO20GetFileSystemEntriesEP12Il2CppStringS6_iiPi
uTf:__ZN20TextRenderingPrivate15DynamicFontData21GetFontMetricsForFaceERK13dynamic_arrayIN4core17string_with_labelILi35EEELj4EEiRKS1_I4PPtrIN13TextRendering4FontEELj4EEPfSF_
kTm:_UInt16_TryParse_m4139137016
YIi:__ZL53PlayerInput_t175567789_CustomAttributesCacheGeneratorP21CustomAttributesCache
I2l:_RenderTextureDescriptor__ctor_m505960146
huk:_Comparer_1__cctor_m2071822335_gshared
NRl:_ManagedStreamHelpers_ManagedStreamSeek_m3158782053
bAi:__ZL53AudioTrack_t1549411460_CustomAttributesCacheGeneratorP21CustomAttributesCache
Zcp:_ExpressionAssertion_Compile_m2166597834
j9b:__ZN16ScriptingManagerD0Ev
Mpm:_Single_System_IConvertible_ToSByte_m1208276900_AdjustorThunk
ELk:_TlsClientCertificate_ProcessAsSsl3_m3265529850
JEq:__ZN6il2cpp6icalls8mscorlib6System7Convert24InternalFromBase64StringEP12Il2CppStringb
h8e:__ZNK5physx10BPWorkTask7getNameEv
pwe:__ZN5physx2Sc8ShapeSim16onResetFilteringEv
jsj:_RuntimeFieldHandle_GetObjectData_m95767031_AdjustorThunk
Cvq:__ZN30dense_hashtable_const_iteratorINSt3__24pairIK10KeyWrapperINS1_IPKcS4_EEEiEES6_24NamespaceAndNamePairHashN14dense_hash_mapIS6_iS9_NS6_14EqualsComparerI26NamespaceAndNamePairEqualsEENS0_9allocatorIS8_EEE9SelectKeyESD_SF_EppEv
VXc:__Z44Register_UnityEngine_Component_get_transformv
xX:__ZN12_GLOBAL__N_120ProcessPlayableGraphERN8Animator11AnimatorJobER35AnimationPlayableEvaluationConstantR32AnimationPlayableEvaluationInputR33AnimationPlayableEvaluationOutputPFvS4_R17AnimationPlayableEPFvS4_S6_S8_EPFvS8_S4_S6_S8_fESE_MS9_FvPS3_PS5_PS7_E
B_i:_ProCamera2DTriggerBoundaries_set_POOrder_m4270082187
p9l:_TextInfo_ToLower_m2744057472
Wfc:__ZN17ArchiveFileSystem12MountArchiveEPKcS1_
uho:_EqualityComparer_1_System_Collections_IEqualityComparer_Equals_m3977314386_gshared
ajd:__Z18Transfer_BlittableI9JSONWriteLb1E8Vector4fEvRK29SerializationCommandArgumentsR31RuntimeSerializationCommandInfo
tq:FUNCTION_TABLE_viififiii
u5l:_CCGregorianCalendar_year_from_fixed_m463929682
$Wf:__ZN2UI13CanvasManagerD0Ev
toa:__ZThn32_NK8Renderer14GetSubsetIndexEi
UMl:_Debug_get_unityLogger_m2239795986
ZFk:_MD2Managed_Initialize_m2341076836
UKn:_ReadOnlyCollection_1_System_Collections_IList_Add_m4240023232_gshared
mUa:__ZN9GfxDevice15ImmediateVertexEfff
_qk:_InternalEnumerator_1_get_Current_m2761059085_gshared
LCc:__Z13RegisterClassI8MaterialEvv
lzb:__ZNK16LightmapSettings22GetTypeVirtualInternalEv
Kmg:_TMP_SubMeshUI_get_materialForRendering_m2331438068
B9c:__Z56Register_UnityEngine_Playables_PlayableDirector_set_timev
ERa:__ZN13GfxDeviceGLES15SetStencilStateEPK18DeviceStencilStatei
MAl:_Buffer_BlockCopyInternal_m418318694
hPq:_cycle
zEq:__ZN6il2cpp2vm8Profiler7GCEventE13Il2CppGCEvent
Zwj:_Rijndael_Create_m3053077028
Bf:_emscripten_glUniform1iv
qzk:_Dictionary_2_Do_ICollectionCopyTo_TisRuntimeObject_m1855083806_gshared
zOd:__ZN15b2DistanceProxy3SetEPK7b2Shapei
CYk:_Array_InternalArray__IndexOf_TisKeyValuePair_2_t1383673463_m3347832327_gshared
gUb:__ZN16MemoryFileSystemD2Ev
WVg:__Z150RuntimeInvoker_Int32_t2950945753_RuntimeObject_Int32_t2950945753_Int32_t2950945753_RuntimeObject_Int32_t2950945753_Int32_t2950945753_Int32_t2950945753PFvvEPK10MethodInfoPvPS4_
Kzl:_BitConverter_DoubleToInt64Bits_m3574395137
Kwm:_DateTime_Parse_m3729096069
RYl:_PlayableHandle_GetTime_m478640909_AdjustorThunk
y8f:__ZNK17VideoClipPlayback15GetPlaybackRateEv
bSo:_List_1_System_Collections_IList_Add_m1540114404_gshared
bXc:__Z37Register_UnityEngine_Camera_get_depthv
I_:__ZN13AnimationClip24SetDidModifyClipCallbackEPFvPS_R4ListI8ListNodeI14AnimationStateEEE
tWj:_StringReader_Read_m3322058819
TTj:_CrossAppDomainChannel_get_ChannelPriority_m3418073750
h1k:_Selectable_StartColorTween_m3618813981
sbj:_BaseInputModule_HandlePointerExitAndEnter_m1705532066
qxf:__ZN5physx7profile8ZoneImplINS_28PxProfileNameProviderForwardEE10startEventEty
l2e:__ZN5physx10PxsCCDPair17sweepAdvanceToToiEfb
Ixc:__Z23ConvertIntegerToTypePtrItEbPvR14SafeBinaryRead
Ttl:_Array_get_swapper_m3428716670
umo:_DiscreteTime_DoubleToDiscreteTime_m1059541406
Z$j:_NumberFormatter_IntegerToString_m1679294587
VZl:_PlayableOutputHandle_GetSourceInputPort_m515096985_AdjustorThunk
EFn:_ReadOnlyCollection_1_System_Collections_IList_RemoveAt_m422909114_gshared
cY:__ZN7mecanim5human29HumanGetGoalOrientationOffsetENS0_4GoalE
Sf:_emscripten_glStencilFunc
rve:__ZN5physx6shdfnd8PoolBaseINS_2Cm5BlockIhLj384EEENS0_19ReflectionAllocatorIS4_EEE17releaseEmptySlabsEv
mif:__ZN5physx16PxsIslandManager11freeBuffersEv
tMo:_ReadOnlyCollection_1_System_Collections_IList_Contains_m1942059508_gshared
zCf:__ZN5Unity12PhysicsQuery21OverlapBoxUserCollectERK8Vector3fS3_RK11Quaternionfi23QueryTriggerInteractionRN8IPhysics12IUserCollectE
Qbg:__Z46il2cpp_codegen_get_marshal_directive_exceptionPKc
fQa:__ZN9ShaderLab20SerializedSubProgram14AddMatrixParamEPKcii15ShaderParamTypei
Fpb:__ZN24GenerateTypeTreeTransfer8TransferI13dynamic_arrayI8Vector3fLj4EEEEvRT_PKc17TransferMetaFlags
Zf:_glGetActiveUniformBlockName
Aee:__ZThn12_N5physx3Ext13DistanceJointD0Ev
CR:__ZN7mecanim13CopyValueMaskILb0EEEvPKNS_14ValueArrayMaskEPS1_
Sil:_Water2D_Simulation_GetBottomLeftVertexLocalPosition_m622792228
Y3i:_PerfectPixelCamera__ctor_m2501928796
TFo:__ZN23InterfaceActionInvoker2Ii22WeightInfo_t1982677921E6InvokeEjP11Il2CppClassP12Il2CppObjectiS0_
Wdn:_Dictionary_2_ContainsKeyValuePair_m2547312947_gshared
jer:b181
XBd:__ZN31CollisionModulePropertyBindings13GetFloatValueERK14ParticleSystemi
lnm:_SecurityPermission_IsSubsetOf_m545000671
tNq:__ZN6il2cpp2os9EventImpl3SetEv
k$c:__Z39Quaternion_CUSTOM_INTERNAL_CALL_InverseRK11QuaternionfRS_
oer:b186
r5:__ZN4FMOD7Channel20set3DConeOrientationEP11FMOD_VECTOR
CJj:_OpCode_get_Name_m149707431
jq:FUNCTION_TABLE_iiifii
Q3j:_AssemblyBuilder_not_supported_m1735277432
mer:b184
azq:__ZN6il2cpp2vm12GenericClass11SetupEventsEP11Il2CppClass
k5:__ZN4FMOD7Channel7setModeEj
ZLf:_tt_cmap12_get_info
Muq:__ZN6il2cpp2vm15ReboxIReferenceEP14Il2CppIUnknownP11Il2CppClass
szq:__ZN6il2cpp2os5posix15PosixWaitObjectD2Ev
dRg:_ProCamera2DPanAndZoom_PreMove_m1795271051
MDg:_Clipper_IntersectNodeSort_m1779920021
qer:b188
M_p:__ZN6il2cpp6icalls8mscorlib6System7Decimal14decimalCompareEP19il2cpp_decimal_reprS5_
R5n:_Dictionary_2_OnDeserialization_m4209543208_gshared
eFq:__ZThn4_N6il2cpp2vm13CachedCCWBaseINS0_13ManagedObjectEE7ReleaseEv
zqe:__ZN5physx26PxcFsComputeJointLoadsSimdERKNS_9PxcFsDataEPKNS_12PxcFsInertiaEPNS_6shdfnd3aos6Mat33VEPKfjjNS_21PxcFsScratchAllocatorE
O_:__ZN29AnimationStateNetworkProvider24GetNetworkAnimationStateER9AnimationP24AnimationStateForNetworki
fQe:__ZN5physx6shdfnd8SyncImpl7getSizeEv
Djm:_RNGCryptoServiceProvider_GetNonZeroBytes_m1918423726
sbr:_glCopyTexImage2D__wrapper
VYd:__ZN16PhysicsManager2D11CreateWorldERK8Vector2f
fRp:_AnimationEvent__ctor_m234009954
AAa:__GLOBAL__sub_I_runtime_graphics_billboard_0_cpp
Vjj:_FloatTween_TweenValue_m52237061
uId:__Z61Register_UnityEngine_ParticleSystem_EmissionModule_SetEnabledv
idc:__Z18ClearByDrawingQuad13GfxClearFlagsRK10ColorRGBAffjR17ShaderPassContext
m1a:__ZN6prcoreL17RemapGenericFloatI14TexFormatRHalf15TexFormatRFloatEEvPKNS_9InnerInfoE
zro:_TimelinePlayable_PrepareFrame_m805759583
v0j:_NumberFormatter_FormatExponential_m2139559983
Hjc:__Z16ShouldUseShadowsb
VGa:__ZN15DirectorManager21RebuildStageCallbacksEv
vdc:__ZN19RuntimeSceneManager9LoadSceneERKN4core12basic_stringIcNS0_20StringStorageDefaultIcEEEES6_S6_RK9UnityGUIDiNS_11LoadingModeE
gXi:_ProCamera2DRails__ctor_m638646370
EWa:__ZN7ApiGLES10DrawArraysE16GfxPrimitiveTypejjj
O2:__ZN10SampleClip13LoadBaseSoundEv
k5d:__ZN5physx2Gu22gjkRelativePenetrationINS0_17ShrunkConvexHullVES2_EEjRKT_RKT0_RKNS_6shdfnd3aos15PsMatTransformVERKNSA_6FloatVERNSA_5Vec3VESI_SI_RSE_PhSK_Rh
h2q:dynCall_iiddi
wvl:_SmallXmlParser_SkipWhitespaces_m4243606597
o6l:_CompareInfo_IndexOf_m2631915198
x4j:_ConstructorBuilder_GetCustomAttributes_m2495332786
oBl:_Byte_CompareTo_m4285128861
Jcj:_TriggerEvent__ctor_m87299207
Ega:__Z57AudioSource_CUSTOM_INTERNAL_CALL_ClearExtensionPropertiesP12Il2CppObjectRK12PropertyName
QN:__ZN7mecanim9animation4Clip8TransferI19StreamedBinaryWriteILb0EEEEvRT_
oyq:__ZN15dense_hashtableINSt3__24pairIK10KeyWrapperIP12Il2CppObjectEN6il2cpp2gc9CachedCCWEEES5_NS7_5utils11PointerHashIS3_EEN14dense_hash_mapIS5_S9_SD_NS5_14EqualsComparerINS0_8equal_toIS4_EEEENS0_9allocatorISA_EEE9SelectKeyESI_SK_E15insert_noresizeERKSA_
c3m:_Transform_1_Invoke_m2167534993_gshared
kjf:__ZN5physx2Sc19ParticlePacketShapeC2ERNS0_17ParticleSystemSimEjPNS_16PxvParticleShapeE
HVp:_Physics2D_OverlapCircle_m2858772865
Sdo:_EqualityComparer_1__cctor_m3962593840_gshared
_vb:__ZN22DeviceMVPMatricesStateC2ER9GfxDevice
gtd:__Z9UpdateTplIL27ParticleSystemCurveEvalMode1EEvRK11MinMaxCurveS3_S3_R23ParticleSystemParticlesjjRKN4math8float3x3ERKNS6_7_float4E
fAe:__ZN5physx9NpPhysics18createTriangleMeshERNS_13PxInputStreamE
Dq:FUNCTION_TABLE_iiiiifiiiif
Kp:FUNCTION_TABLE_iifii
TUj:_Context_get_ContextProperties_m3283598326
PLg:_ProCamera2DCinematics_GoToNextTarget_m3895252479
UBb:__ZNSt3__26vectorI13dynamic_arrayI8Vector2fLj4EENS_9allocatorIS3_EEE6assignINS_11__wrap_iterIPS3_EEEENS_9enable_ifIXaasr21__is_forward_iteratorIT_EE5valuesr16is_constructibleIS3_NS_15iterator_traitsISC_E9referenceEEE5valueEvE4typeESC_SC_
szb:__ZN21EnlightenSceneMapping8TransferI14SafeBinaryReadEEvRT_
Rlq:__ZN6il2cpp2vm10Reflection12HasAttributeEP9FieldInfoP11Il2CppClass
Ytq:__ZN6il2cpp6icalls8mscorlib6System10Reflection10MonoMethod19get_IsGenericMethodEP22Il2CppReflectionMethod
rp:FUNCTION_TABLE_iiffi
Pd:invoke_viiifi
sQg:_U3CTweenToRoutineU3Ec__Iterator0_MoveNext_m2518568931
ynf:__ZN5physx6shdfnd5ArrayIPNS_7PxActorENS0_19ReflectionAllocatorIS3_EEE8recreateEj
aBj:_MethodDictionary_System_Collections_IEnumerable_GetEnumerator_m4169036899
Lcb:__ZNK11AssetBundle14GetPreloadDataEiR13dynamic_arrayIiLj4EE
kjm:_RIPEMD160Managed_JJJ_m4161373884
hbo:_DefaultComparer_Equals_m3257444875_gshared
fVo:_List_1_System_Collections_IList_Remove_m1747039913_gshared
ih:_JS_Sound_SetPosition
Nrb:__ZN19RenderBufferManager13GetTempBufferEii17DepthBufferFormat19RenderTextureFormatj22RenderTextureReadWrite14VRTextureUsagei23RenderTextureMemoryless
E7p:__ZL13GetSharedInstPK17Il2CppGenericInst
Qno:_HashUtility_CombineHash_m3569051132
h0f:__ZN22BaseUnityConnectClient17SaveSessionValuesEv
edk:_InternalEnumerator_1_get_Current_m476140818_gshared
DDe:__ZNK5physx7NpCloth14getNbParticlesEv
Qfg:_TMP_InputField_get_restoreOriginalTextOnEscape_m4265853411
bge:__ZN5physx2Sc10NPhaseCore24releaseShapeInstancePairEPNS0_19ShapeInstancePairLLEjj
osp:_SpriteRenderer_set_sprite_m1286893786
tpc:__Z24SetupActiveLightsContextR21ActiveLightingContextRK12ActiveLightsRK11CullResultsP14ShadowMapCacheRK10MinMaxAABB
v2c:__Z38Sprite_CUSTOM_INTERNAL_get_textureRectP12Il2CppObjectP5RectTIfE
Dkq:__ZNK15dense_hashtableINSt3__24pairIK10KeyWrapperIPK22Il2CppGenericParameterEPK24MonoGenericParameterInfoEES6_N6il2cpp5utils11PointerHashIS4_EEN14dense_hash_mapIS6_SA_SF_NS6_14EqualsComparerINS0_8equal_toIS5_EEEENS0_9allocatorISB_EEE9SelectKeyESK_SM_E3endEv
yTc:__ZN9TextAsset7SetTextERKN4core12basic_stringIcNS0_20StringStorageDefaultIcEEEE
qjb:__ZN6Camera8TransferI24GenerateTypeTreeTransferEEvRT_
gb:invoke_iiiiiiif
Za:invoke_iiiiiiii
X_g:__Z194RuntimeInvoker_Int32_t2950945753_RuntimeObject_Int32_t2950945753_Int32_t2950945753_RuntimeObject_Int32_t2950945753_SByte_t1669577662_Int32U26_t1369213839_BooleanU26_t4125257963_SByte_t1669577662PFvvEPK10MethodInfoPvPS4_
Y5o:_PKCS12_GetBytes_m415958948
Lsc:__ZN8Renderer17PendingAddToSceneEv
_ve:__ZN5physx7NpActor18releaseConstraintsERNS_12PxRigidActorE
Zbe:__ZN5physx6shdfnd5ArrayINS_11PxDebugLineENS0_19ReflectionAllocatorIS2_EEE8recreateEj
car:b125
ear:b127
dar:b126
gar:b129
U0c:__Z52Register_UnityEngine_RectTransform_INTERNAL_get_rectv
c6n:_Dictionary_2_System_Collections_IDictionary_get_Item_m2163779460_gshared
ira:__Z21PostprocessStacktracePKcRN4core12basic_stringIcNS1_20StringStorageDefaultIcEEEE
ORl:_ManagedStreamHelpers_ManagedStreamLength_m2930872960
lMb:__ZN18StreamedBinaryReadILb0EE21TransferSTLStyleArrayI13dynamic_arrayI16SplashScreenLogoLj4EEEEvRT_17TransferMetaFlags
nhg:_TMP_InputField_OnBeginDrag_m976956008
SNe:__ZNK5physx14NpRigidDynamic25getContactReportThresholdEv
vhm:_FileStreamAsyncResult_CBWrapper_m1670848754
HXc:__Z47Register_UnityEngine_Camera_get_allCamerasCountv
LZ:__ZN16MecanimAnimation25RegisterIAnimationBindingEPKN5Unity4TypeEiP17IAnimationBinding
SOc:__ZNSt3__26vectorIj13stl_allocatorIjL18MemLabelIdentifier1ELi16EEE6assignIPKtEENS_9enable_ifIXaasr21__is_forward_iteratorIT_EE5valuesr16is_constructibleIjNS_15iterator_traitsIS9_E9referenceEEE5valueEvE4typeES9_S9_
PW:__ZN7mecanim9animation16EvaluateAvatarIKEPKNS0_14AvatarConstantEPKNS0_11AvatarInputEPNS0_12AvatarOutputEPNS0_12AvatarMemoryEPNS0_15AvatarWorkspaceEb
JT:__ZN26AnimatorControllerPlayable10GetIntegerEiRi
Oef:__Z22updateIslandsToProcessRKN5physx2Cm10BitMapBaseINS_6shdfnd9AllocatorEEEPKjRKNS_11NodeManagerERS4_
ghc:__ZN12InputManager13InputEndFrameEv
uMd:__ZN15b2RevoluteJointC2EPK18b2RevoluteJointDef
PUl:_Object_get_name_m4211327027
l1q:dynCall_viififfii
Upq:__ZN6il2cpp2vm6Thread5SetupEP12Il2CppThread
orf:__ZN8Collider30GetRelativePositionAndRotationERK9TransformR10Matrix4x4f
_8c:__Z69AnimationLayerMixerPlayable_CUSTOM_SetLayerMaskFromAvatarMaskInternalR9HPlayablejP12Il2CppObject
r2e:__ZN5physx35PxcSweepEstimateAnyShapeHeightfieldERKNS_11PxsCCDShapeES2_PKNS_12PxsRigidBodyES5_RKNS_11PxTransformES8_f
q$m:_Enumerator_System_Collections_IDictionaryEnumerator_get_Key_m2500634048_gshared
Uso:_List_1_System_Collections_IList_IndexOf_m260849151_gshared
sce:__ZN5physx3Cct13BoxControllerC2ERKNS_16PxControllerDescERNS_9PxPhysicsEPNS_7PxSceneE
wQq:___munmap
san:_Dictionary_2_CopyToCheck_m4247642535_gshared
SBn:_RSAManaged_get_PublicOnly_m595121416
$h:_localtime_r
mic:__ZN22RenderingCommandBuffer13GetAndCheckRTE24BuiltinRenderTextureTypeRKN9ShaderLab16FastPropertyNameEPKcPP13RenderTexture
csd:__ZN14ParticleSystem13KillParticlesILb1EEEvRjbR24ParticleSystemUpdateDataR23ParticleSystemParticlesjPj
vFa:__ZN14GfxDoubleCacheIyP17VertexDeclaration14GfxGenericHashIyENSt3__28equal_toIyEEN31GfxDoubleCacheConcurrencyPolicy11LocklessGetE42GfxDoubleCacheDefaultEmptyDeletedGeneratorIyEEC2Ev
iEd:__Z16UpdateSpritesTplIL27ParticleSystemCurveEvalMode3EEvfRK11MinMaxCurveS3_RK23ParticleSystemParticlesPf
M6f:__ZN12VideoManager11VideoUpdateEv
gca:__ZN4FMOD5Sound11getDefaultsEPfS1_S1_Pi
lIl:_AnimationCurve_get_length_m1548433259
$Lm:_UTF32Decoder_GetChars_m1925558948
di:_strftime
L5a:__ZN7Texture33SetStoredColorSpaceNoDirtyNoApplyE17TextureColorSpace
zRj:_ResourceSet__ctor_m3618395942
Neg:_SelectionEvent__ctor_m4240449874
jua:__ZN12FileAccessorD2Ev
Enb:__ZN14VertexDataInfoC2Ev
FBq:__ZN6il2cpp2gc16GarbageCollector14CollectALittleEv
Y9j:_InternalEnumerator_1_get_Current_m3419440285_gshared
qRf:__ZN13sorted_vectorIN20TextRenderingPrivate8FontImpl13CharacterInfoENSt3__24lessIS2_EE13stl_allocatorIS2_L18MemLabelIdentifier35ELi16EEE10insert_oneERKS2_
jKc:__ZNK9HPlayable15GetPlayableTypeEv
T4b:__ZL17Transfer_GUIStyleI18StreamedBinaryReadILb1EELb1EEvRK29SerializationCommandArgumentsR31RuntimeSerializationCommandInfo
_rd:__ZNSt3__227__insertion_sort_incompleteIR31SortCollisionEventsByGameObjectP22ParticleCollisionEventEEbT0_S5_T_
x5k:_RectMask2D_IsRaycastLocationValid_m1652308696
TUp:_Collider2D_set_isTrigger_m2923405871
Gbq:__ZN6il2cpp6icalls8mscorlib6SystemL9IsPrivateEPK12PropertyInfo
kQl:_Graphics_Internal_BlitMaterial_m1736695369
$Tk:_PlayableGraph_Connect_TisPlayable_t459825607_TisPlayable_t459825607_m3864861759_AdjustorThunk
x2e:__ZNK5physx18PxcConvexTriangles16getPolygonNormalEj
rpg:_TMP_Text_set_autoSizeTextContainer_m2473128938
G1l:_RectTransform_add_reapplyDrivenProperties_m1374850920
YQg:_ProCamera2DPanAndZoom_Awake_m429715320
BKc:__ZN9HPlayable7SetTimeEd
ICa:__ZN9shadertag10InitializeEv
Ujc:__ZN13BatchRenderer20RenderSingleWithPassER17ShaderPassContextPK18SharedMaterialDataP6ShaderPN9ShaderLab4PassEiPKNS7_10GrabPassesEjib15BatchBreakCause
Iyf:__ZN5physx24NpPtrTableStorageManager8canReuseEjj
IAb:__ZN15QualitySettings14QualitySetting8TransferI24GenerateTypeTreeTransferEEvRT_
bbd:__Z52Register_UnityEngine_BoxCollider2D_set_size_Injectedv
ISe:__ZN5physx2Sc27ConstraintProjectionManager33processConstraintForGroupBuildingEPNS0_13ConstraintSimERNS0_20ScratchAllocatorListIS3_Lj64EEE
Xvf:__ZN5Unity11SpringJoint5ResetEv
mVf:__Z28Font_Get_Custom_PropMaterialP12Il2CppObject
V2o:_List_1_set_Item_m3287575113_gshared
$zm:_Convert_ToSingle_m835189399
L6q:_glFlush__wrapper
EMc:__ZN22BlockMemoryCacheWriter14LockCacheBlockEjPPhS1_
MMg:_ProCamera2D_AdjustTargetInfluenceRoutine_m2026458133
NQe:__ZN5physx2Cm29ConstraintImmediateVisualizer19visualizeDoubleConeERKNS_11PxTransformEfb
fVm:_UInt64_ToString_m2177233542
Mmd:__Z22TransferField_NonArrayI8JSONRead27Converter_SimpleNativeClassI8GUIStyleEEvRK23StaticTransferFieldInfoR31RuntimeSerializationCommandInfoRT0_
M$d:__ZN5physx6shdfnd5ArrayINS_13PxExtendedBoxENS0_19ReflectionAllocatorIS2_EEE8recreateEj
$7e:__ZN5physx20ProcessBPResultsTask11runInternalEv
lke:__ZN5physx6shdfnd5ArrayIPvNS0_19ReflectionAllocatorINS_2Cm5BlockIS2_Lj16EEEEEE4copyINS0_15InlineAllocatorILj256ES7_EEEEvRKNS1_IS2_T_EE
Oi:_llvm_eh_typeid_for
ACc:__Z13RegisterClassI10GameObjectEvv
kko:_TrackAsset_GetSequenceTime_m1032822887
IAj:_RemotingServices_FindInterfaceMethod_m2125212568
Uuo:_Stack_1_System_Collections_ICollection_CopyTo_m1056090330_gshared
SU:__ZNK23AnimationPlayableOutput7GetTypeEv
oTe:__ZN5physx7NpScene19getActiveTransformsERjh
_Vj:_StreamWriter__cctor_m1229272693
cge:__ZN5physx2Sc10NPhaseCore39pool_deleteParticleElementRbElementPairEPNS0_35ParticleElementRbElementInteractionEjj
qfh:__Z109RuntimeInvoker_RuntimeObject_Ray_t3785851493_Single_t1397266774_Int32_t2950945753_RuntimeObject_RuntimeObjectPFvvEPK10MethodInfoPvPS4_
Tja:__Z7ToUpperIN4core12basic_stringIcNS0_20StringStorageDefaultIcEEEEET_RKS5_
f7b:__Z18Transfer_BlittableI18StreamedBinaryReadILb0EELb1E8Vector4fEvRK29SerializationCommandArgumentsR31RuntimeSerializationCommandInfo
Z9n:_Dictionary_2_U3CCopyToU3Em__0_m2023886030_gshared
XWc:__Z45Register_UnityEngine_Camera_set_renderingPathv
s0m:_ShimEnumerator_MoveNext_m1353453605_gshared
Far:_glBindVertexArray__wrapper
Wpf:__ZN5physx6shdfnd5ArrayINS_11RTreeNodeNQENS0_19ReflectionAllocatorIS2_EEE19resizeUninitializedEj
Zge:__ZNK5physx2Sc16InteractionScene18getLLIslandManagerEv
erj:_SerializationInfo__ctor_m2923079689
Kie:__ZN5physx2Gu21intersectSphereConvexERKNS0_6SphereERKNS0_10ConvexMeshERKNS_11PxMeshScaleERKNS_11PxTransformEPNS_6PxVec3E
Bub:__ZN8Material8TransferI14SafeBinaryReadEEvRT_
W1e:__ZN5physx17PxcNpMemBlockPool34acquireExceptionalConstraintMemoryEj
Vwb:__ZN12CubemapArray17UploadToGfxDeviceEv
gbm:_Int32_JumpOverWhite_m208298144
g3e:__ZN5physxL23PxcSweepConvexTrianglesERKNS_11PxsCCDShapeES2_RKNS_11PxTransformES5_S5_S5_fRNS_6PxVec3ES7_RNS_10PxcNpCacheERNS_18PxcNpThreadContextERKNS_2Cm23FastVertex2ShapeScalingERNS_2Gu9TriangleVEf
HBe:__ZNK5physx7NpShape16getPlaneGeometryERNS_15PxPlaneGeometryE
prh:__Z53RuntimeInvoker_Int32_t2950945753_UIVertex_t4057497605PFvvEPK10MethodInfoPvPS4_
_cr:_emscripten_glGetUniformiv__wrapper
HDo:_Collection_1_Add_m1269373195_gshared
lM:__ZNSt3__26vectorI24CompressedAnimationCurve13stl_allocatorIS1_L18MemLabelIdentifier26ELi16EEE6assignINS_11__wrap_iterIPS1_EEEENS_9enable_ifIXaasr21__is_forward_iteratorIT_EE5valuesr16is_constructibleIS1_NS_15iterator_traitsISB_E9referenceEEE5valueEvE4typeESB_SB_
eqf:__ZN5physx27InternalTriangleMeshBuilder14fillRemapTableEv
k3:__ZN11AudioSource4StopEb
yoe:__ZN5physx6shdfnd8PoolBaseINS_13NpRigidStaticENS0_19ReflectionAllocatorIS2_EEE17releaseEmptySlabsEv
NYb:__ZN14SafeBinaryRead21TransferSTLStyleArrayI13dynamic_arrayI10Matrix4x4fLj4EEEEvRT_17TransferMetaFlags
dkb:__ZN15LODGroupManager26CollectAllLODGroupManagersERK16CoreCameraValuesR13dynamic_arrayIPS_Lj4EEb
Tem:_BinaryWriter_Write_m340679106
Wlm:_SymmetricAlgorithm_set_Mode_m4060916368
k8a:__ZN18GlslGpuProgramGLESD2Ev
_uc:__ZN13RenderTexture14SetVolumeDepthEi
IWn:_TMP_XmlTagStack_1_PreviousItem_m3642481301_AdjustorThunk
Bxf:__ZThn116_NK5physx7profile8ZoneImplINS_28PxProfileNameProviderForwardEE10hasClientsEv
pbf:__ZN5physx2Gu20pcmContactCapsuleBoxERKNS0_13GeometryUnionES3_RKNS_11PxTransformES6_RKfRNS0_5CacheERNS0_13ContactBufferE
s3g:__Z86RuntimeInvoker_Void_t1185182177_UInt16_t2177724958_SByte_t1669577662_SByte_t1669577662PFvvEPK10MethodInfoPvPS4_
HPa:__Z22LoadGpuProgramFromDataPKhS0_Rj
qnd:__ZN10Matrix4x4f8TransferI8JSONReadEEvRT_
JQf:__ZN14SafeBinaryRead21TransferSTLStyleArrayI13dynamic_arrayIN4core17string_with_labelILi35EEELj4EEEEvRT_17TransferMetaFlags
hSn:_Nullable_1__ctor_m680179424_gshared
dr:FUNCTION_TABLE_viidd
h5k:_PositionAsUV1_ModifyMesh_m4231919476
TGl:_Hashtable__ctor_m1941859523
J7k:_ScrollRect_set_horizontalScrollbarSpacing_m2209919081
Ry:__Z21CleanupNavMeshManagerv
HD:__Z55Register_UnityEngine_AI_NavMeshAgent_set_updateRotationv
Bpa:__ZN17PersistentManager18ReadObjectThreadedEi
a5a:__ZN25TransformFeedbackSkinning31CleanupTransformFeedbackShadersEv
Tjb:__Z22scripting_object_unbox18ScriptingObjectPtr
PRf:__ZNK20TextRenderingPrivate8FontImpl19GetCharacterAdvanceEjijfPj
HLq:__ZN6il2cpp6icalls8mscorlib4Mono8Security12Cryptography18KeyPairPersistence16_IsUserProtectedEP12Il2CppString
p_n:_Array_InternalArray__ICollection_Add_TisUriScheme_t722425697_m3142345403_gshared
FOq:_fmt_u
YOc:__Z16CalculateNormals14StrideIteratorI8Vector3fEPKjiiS1_
vCb:__ZN10VertexData8TransferI18StreamedBinaryReadILb0EEEEvRT_
moe:__ZN5physx2Sc5Scene9addStaticERNS0_10StaticCoreEPKPvjj
IZi:_U3CShakeRoutineU3Ec__Iterator0_MoveNext_m1637920915
cYl:_PlayableHandle_GetInput_m2797573993
F4i:_HorizontalSwordfishLeft_StartCo_m2858109421
BQa:__ZN9ShaderLab7ProgramC2E10MemLabelIdi10ShaderType
kvc:__ZN14PreloadManager16UpdatePreloadingEv
jpb:__ZN14SafeBinaryRead21TransferSTLStyleArrayI19StaticArrayTransferIiLi4EEEEvRT_17TransferMetaFlags
jwd:__ZN11NoiseModule8TransferI14SafeBinaryReadEEvRT_
WZe:__ZN5physx2Sc5Scene9addShapesEPKPvjjRNS0_8RigidSimEPNS_12PxsRigidBodyERPNS0_8ShapeSimEPNS_9PxBounds3E
g$c:__Z46Quaternion_CUSTOM_INTERNAL_CALL_FromToRotationRK8Vector3fS1_R11Quaternionf
k4n:_Array_InternalArray__set_Item_TisUILineInfo_t4195266810_m2313892078_gshared
nOg:_ProCamera2DCameraWindow_OnDestroy_m3237211224
ilg:_TMP_SpriteAsset_UpdateLookupTables_m3683662481
t_k:_InputField_SendOnValueChanged_m2560301445
faf:__ZN5physx23PxcPCMContactConvexMeshERKNS_2Gu13GeometryUnionES3_RKNS_11PxTransformES6_RKfRNS_10PxcNpCacheERNS0_13ContactBufferE
t9:__ZN15AudioMixerGroup8TransferI14SafeBinaryReadEEvRT_
Cnp:_GUI_DoToggle_m3162987340
Dma:__ZNK21UnityDefaultAllocatorI17LowLevelAllocatorE8ContainsEPKv
Esj:_RuntimeTypeHandle_Equals_m2857439487
$j:_emscripten_get_main_loop_timing
Yyj:_LeaseManager_TrackLifetime_m1859704813
CUo:_List_1_GetEnumerator_m3345352722_gshared
YSj:_SafeHandle_Finalize_m3866180675
HAb:__ZN24GenerateTypeTreeTransfer21TransferSTLStyleArrayINSt3__26vectorIN15QualitySettings14QualitySettingENS1_9allocatorIS4_EEEEEEvRT_17TransferMetaFlags
qJb:__ZNSt3__26vectorI14SubstanceInputNS_9allocatorIS1_EEE8__appendEj
Zhm:_MemoryStream_ToArray_m3911744835
zbh:__Z104RuntimeInvoker_Void_t1185182177_Single_t1397266774_SByte_t1669577662_SByte_t1669577662_SByte_t1669577662PFvvEPK10MethodInfoPvPS4_
xmo:_DiscreteTime_FloatToDiscreteTime_m2738681203
Qtg:_Pause_Update_m575169827
GRm:_Type_GetHashCode_m1947148725
Tpo:_TimelinePlayable_Compile_m1932334977
z_g:__Z91RuntimeInvoker_Void_t1185182177_RuntimeObject_RuntimeObject_RuntimeObject_SByte_t1669577662PFvvEPK10MethodInfoPvPS4_
vRb:__ZNK2UI13RectTransform22GetTypeVirtualInternalEv
Cpd:__ZNK15PolynomialCurve18EvaluateIntegratedERKN4math7_float4E
lt:getTempRet0
kCg:_Clipper_set_ReverseSolution_m2778402769
TCd:__ZN26SizeModulePropertyBindings13GetFloatValueERK14ParticleSystemi
sjn:_Enumerator_System_Collections_IEnumerator_Reset_m2394182378_AdjustorThunk
Kbj:_BaseRaycaster_OnEnable_m2678466030
b_m:_Enumerator_get_CurrentKey_m627428048_AdjustorThunk
NOl:_UnityEventBase__ctor_m1851535676
qxk:_Array_Sort_TisVector4_t3319028937_m2797285308_gshared
zLk:_HandshakeMessage_Update_m2417837686
R7j:_ILGenerator_EmitCall_m2478864924
Dmp:_TMPro_ExtensionMethods_Compare_m3778011310
Drq:__ZN6il2cpp6icalls8mscorlib6System9ThreadingL21lookup_cached_cultureEP12Il2CppThreadi
sJq:__ZN6il2cpp2os11EventHandleD2Ev
cyp:_NetFxCoreExtensions_CreateDelegate_m751211712
kqc:__ZN18DeferredRenderLoopD2Ev
vva:__ZNK16TypeTreeIterator4NameEv
dio:_ActivationTrack_UpdateTrackMode_m800998448
Jta:__ZN15FileSystemEntry3SetEPKc
ihf:__ZN5physx6shdfnd5ArrayIPNS_13PxcNpMemBlockENS0_19ReflectionAllocatorIS3_EEE6resizeEjRKS3_
ler:b183
uVc:__Z52Register_UnityEngine_Application_set_targetFrameRatev
NMo:_ReadOnlyCollection_1_System_Collections_Generic_IListU3CTU3E_Insert_m568455025_gshared
a5:__ZN20SoundChannelInstance15ParameterBuffer5ApplyEPN4FMOD7ChannelE
vwo:_Collection_1_CheckWritable_m2727304722_gshared
SZl:_PlayableOutputHandle_SetSourcePlayable_m3441604258_AdjustorThunk
Jll:_IPv6Address__ctor_m4117281080
opp:_GUIUtility_Internal_GetPixelsPerPoint_m290411053
MRf:__ZN20TextRenderingPrivate19NativeTextGenerator9InsertTabEv
fUm:_UInt32_TryParse_m2819179361
Vsd:__Z13DragUpdateTplIL27ParticleSystemCurveEvalMode2EEvRK11MinMaxCurvebbR23ParticleSystemParticlesjjRKN4math7_float4E
ker:b182
mrd:__ZN14ParticleSystem12StartModulesER24ParticleSystemUpdateDataRK27ParticleSystemEmissionStatebRK8Vector3fRK10Matrix4x4fR23ParticleSystemParticlesjRKffjfjRjb
Rnn:_Enumerator_VerifyState_m3474272061_AdjustorThunk
b$p:_ParticleCollisionEvent_get_velocity_m1941659151
hxf:__ZN5physx7profile8ZoneImplINS_28PxProfileNameProviderForwardEE21setProfileZoneManagerEPNS_20PxProfileZoneManagerE
Jjn:_Enumerator_MoveNext_m1131351993_AdjustorThunk
N0f:__ZN11UnityEngine15PlatformWrapper24GetRuntimePlatformStringEv
Nk:_glIsEnabled
rXk:_Array_compare_TisPlayable_t459825607_m2096089165_gshared
U9d:__ZN5physx3Cct17CapsuleController15setFootPositionERKNS_14PxExtendedVec3E
q7d:__ZN5physx2Gu33PCMCapsuleVsMeshContactGeneration13generateEEMTDERKNS_6shdfnd3aos5Vec3VES6_RKNS3_6FloatVES6_jS6_S6_PNS0_21MeshPersistentContactERj
$3j:_DerivedType__ctor_m1853298054
CXb:__Z25scripting_class_get_image17ScriptingClassPtr
jsn:_List_1_RemoveAt_m2730968292_gshared
UNb:__ZNSt3__26vectorIN4core12basic_stringIcNS1_20StringStorageDefaultIcEEEE13stl_allocatorIS5_L18MemLabelIdentifier13ELi16EEEC2INS_11__wrap_iterIPS5_EEEET_SE_RKS8_PNS_9enable_ifIXaasr21__is_forward_iteratorISE_EE5valuesr16is_constructibleIS5_NS_15iterator_traitsISE_E9referenceEEE5valueEvE4typeE
Rk:_emscripten_glDrawElementsInstanced
FT:__ZN26AnimatorControllerPlayable27SetupStateMachineBehavioursEv
rog:_TMP_Text_set_characterWidthAdjustment_m4012447387
GFk:_KeyBuilder_get_Rng_m983065666
c$o:_List_1_System_Collections_IList_Contains_m2131605266_gshared
Llb:__ZN18JobBatchDispatcherD2Ev
qRb:__ZN9Transform17MainThreadCleanupEv
qco:_DefaultComparer_Equals_m1870794912_gshared
WHq:_GC_clear_hdr_marks
z7q:_glScissor__wrapper
zFd:__Z17UpdateSprites2TplIL27ParticleSystemCurveEvalMode1ELS0_4EEvfRK11MinMaxCurveS3_RK23ParticleSystemParticlesPf
TPl:_Gizmos_get_color_m712612415
WFf:_cff_fd_select_get
ier:b180
Ral:_Text_set_resizeTextForBestFit_m4095249125
d_:__Z13RegisterClassI18AnimatorControllerEvv
_nl:_OidEnumerator_MoveNext_m3138911739
jf:_emscripten_glGetShaderiv
a6:__ZN4FMOD6System10getVersionEPj
dif:__ZN5physx2Sc7BodySim10sleepCheckEffb
per:b187
eWf:__ZN2UI6Canvas23VirtualRedirectTransferER24GenerateTypeTreeTransfer
_8k:_Selectable_set_animationTriggers_m2970345687
Ukd:__ZN9JSONWrite8TransferIN4math12int2_storageEEEvRT_PKc17TransferMetaFlags
vQf:__ZN13TextRendering4Font13AwakeFromLoadE17AwakeFromLoadMode
u6l:_CompareInfo_LastIndexOf_m2688553706
$ar:_emscripten_glCullFace__wrapper
uGp:_AudioClipPlayable_ValidateStartDelayInternal_m4292696459_AdjustorThunk
SSa:__ZN9GfxDevice21ReleaseSharedMeshDataEP14SharedMeshData
Ubq:__ZN6il2cpp6icalls8mscorlib6SystemL8IsPublicEPK9EventInfo
jno:_DiscreteTime_GetNearestTick_m1763590640
zej:_MouseState__ctor_m1467839005
jep:_Uri_IsDomainAddress_m2867513594
bLb:__ZNSt3__27__sort5IRNS_6__lessINS_4pairIPKN5Unity4TypeE7Hash128EES8_EEPS8_EEjT0_SC_SC_SC_SC_T_
Alj:_Dropdown_CreateItem_m2954407740
bHq:_GC_unreachable_finalize_mark_proc
vpl:_X509Chain_ProcessCrlExtensions_m236234529
Hvq:__ZN6il2cpp2vm5Image13ClassFromNameEPK11Il2CppImagePKcS6_
Zh:___syscall192
vog:_TMP_Text_get_overflowMode_m2945872729
mxd:__ZN13dynamic_arrayI27ParticleSystemEmissionBurstLj4EE18resize_initializedEj12ResizePolicy
gyd:__ZN11ShapeModule18MultiModeParameterIN25IParticleSystemProperties8PropertyIfNS1_5ClampILi0ELi360EEEEEE8TransferI24GenerateTypeTreeTransferEEvRT_
M0c:__Z43RectTransform_CUSTOM_INTERNAL_get_anchorMaxP12Il2CppObjectP13Vector2fIcall
Iwe:__ZN5physx14NpShapeManagerC2Ev
Oxm:_Decimal_Parse_m942471224
czb:__ZN8Material28UpdateHashesOnPropertyChangeEN9ShaderLab16FastPropertyNameE
o2c:__Z53Register_UnityEngine_SortingLayer_GetLayerValueFromIDv
Qzg:_TMP_UiFrameRateCounter_Awake_m2736519745
iFk:_ASN1_GetBytes_m1968380955
uWb:__Z18Transfer_BlittableI14SafeBinaryReadLb1E8Vector4fEvRK29SerializationCommandArgumentsR31RuntimeSerializationCommandInfo
yno:_EventPlayable_OnPlayableDestroy_m3917166270
zLo:_Collection_1_IsValidItem_m1086819231_gshared
ail:_Water2D_Simulation_SineWaves_m3578004415
Hgj:_AspectRatioFitter_SetDirty_m2910185270
caa:__ZN11AudioSource12AddToManagerEv
rO:__ZN8Animator23VirtualRedirectTransferER19StreamedBinaryWriteILb0EE
mV:__ZN11UnityEngine9Animation32CreateAnimatorGenericBindingsOptERKNS0_20AnimationSetBindingsER9TransformPKN7mecanim9animation14AvatarConstantEPKNS0_21AvatarBindingConstantEbRNS6_6memory9AllocatorER8Animator
W8:__ZN18StreamedBinaryReadILb0EE21TransferSTLStyleArrayI22OffsetPtrArrayTransferIN5audio5mixer13GroupConstantEEEEvRT_17TransferMetaFlags
z1q:dynCall_vdddddd
qNa:__ZN24GenerateTypeTreeTransfer21TransferSTLStyleArrayINSt3__26vectorIN9ShaderLab14SerializedPassENS1_9allocatorIS4_EEEEEEvRT_17TransferMetaFlags
gDa:__ZL32MarkLevelGameManagerDependenciesR27GarbageCollectorThreadState
oVa:__ZNK13GfxDeviceGLES26HasActiveRandomWriteTargetEv
AKq:__ZN6il2cpp6icalls8mscorlib6System10Reflection9FieldInfo25internal_from_handle_typeEii
kPg:_ProCamera2DContentFitter_set_UseLetterOrPillarboxing_m2211169689
SEh:__ZL54_MemberInfo_t3922476713_CustomAttributesCacheGeneratorP21CustomAttributesCache
s8q:_glGetActiveUniformsiv__wrapper
j2c:__Z43Register_UnityEngine_Material_EnableKeywordv
o$d:__ZNK5physx3Cct10Controller16getInternalStateERNS_17PxControllerStateE
WUl:_Mesh_GetIndices_m2873123901
Q1m:_Transform_1_Invoke_m1689187738_gshared
Vqa:__ZN13MonoBehaviour19SetupScriptingCacheE17ScriptingClassPtrP10MonoScript
G_p:__ZL9rshift128PyS_
UJ:__Z20AnimationEventToMonoRK14AnimationEventR18MonoAnimationEvent
h3q:dynCall_vifiiii
l7g:__Z106RuntimeInvoker_Void_t1185182177_Single_t1397266774_Single_t1397266774_Single_t1397266774_Int32_t2950945753PFvvEPK10MethodInfoPvPS4_
iqa:__ZN17PersistentManager29ReadAndActivateObjectThreadedEiRK26SerializedObjectIdentifierP14SerializedFilebb
nej:_PointerEventData_get_dragging_m746831934
OEn:_ReadOnlyCollection_1_System_Collections_Generic_IListU3CTU3E_set_Item_m1523715248_gshared
WYe:__ZN5physx10PxsContext15setScratchBlockEPvj
TKn:_ReadOnlyCollection_1_System_Collections_IEnumerable_GetEnumerator_m2781605075_gshared
jlg:_TMP_SpriteAsset_GetSpriteIndexFromHashcode_m2987815269
s$i:_U3COutsideTriggerRoutineU3Ec__Iterator1_Reset_m1445219616
JGa:__ZZN15DirectorManager15InitializeClassEvEN52PreLateUpdateDirectorUpdateAnimationBeginRegistrator7ForwardEv
Dnj:_Graphic_RegisterDirtyMaterialCallback_m106898453
Npp:_GUILayoutEntry_get_margin_m3174861737
jRc:__Z21CheckAllowDestructionP6Object
Wkh:__Z107RuntimeInvoker_Void_t1185182177_Vector3_t3722313464_Single_t1397266774_Single_t1397266774_SByte_t1669577662PFvvEPK10MethodInfoPvPS4_
Bfe:__ZN5physx2Cm27getDynamicGlobalPoseAlignedERKNS_11PxTransformES3_S3_RS1_
jvq:__ZNK15dense_hashtableINSt3__24pairIK10KeyWrapperINS1_IPKcS4_EEEiEES6_24NamespaceAndNamePairHashN14dense_hash_mapIS6_iS9_NS6_14EqualsComparerI26NamespaceAndNamePairEqualsEENS0_9allocatorIS8_EEE9SelectKeyESD_SF_E13find_positionERS7_
Q4e:__ZN5physx12solve1DBlockEPKNS_23PxcSolverConstraintDescEjRNS_16PxcSolverContextE
Nnf:__ZN5physx6shdfnd5ArrayIPvNS0_19ReflectionAllocatorIN17PxcPoolMallocData10PoolData32EEEE15growAndPushBackERKS2_
TLa:__ZNSt3__26vectorIN9ShaderLab20SerializedSubProgram13BufferBindingENS_9allocatorIS3_EEEC2INS_11__wrap_iterIPS3_EEEET_SB_RKS5_PNS_9enable_ifIXaasr21__is_forward_iteratorISB_EE5valuesr16is_constructibleIS3_NS_15iterator_traitsISB_E9referenceEEE5valueEvE4typeE
$Nd:__ZNK16PhysicsManager2D21GetAutoSyncTransformsEv
tHc:__ZZL23RegisterLightPropertiesR22GenericPropertyBindingEN20Wrapper_LightColorb213GetFloatValueEPv
$Ld:__ZN12b2WheelJoint24SolveVelocityConstraintsERK12b2SolverData
Y9i:_TextMeshProUGUI_DisableMasking_m898891283
sJj:_ModuleBuilderTokenGenerator_GetToken_m1396347424
Wsk:_Comparer_1_System_Collections_IComparer_Compare_m3647429906_gshared
Lyb:__ZN9Texture2D23VirtualRedirectTransferER18StreamedBinaryReadILb0EE
GUd:__ZN10Collider2D8TransferI24GenerateTypeTreeTransferEEvRT_
QBm:_DateTime_System_IConvertible_ToDouble_m2116720007_AdjustorThunk
DFl:_BitArrayEnumerator__ctor_m2359341397
Ykn:_Enumerator_MoveNext_m1177880931_gshared
$Pm:_TimeSpan_Add_m2350321904_AdjustorThunk
rsa:__ZN16ScriptingManager27NativeTypeForScriptingClassE17ScriptingClassPtr
uUm:_UInt64_System_IConvertible_ToDateTime_m3434604642
kRm:_Type_get_IsSerializable_m1040556850
KKf:_get_sfnt_table
Dap:_Parser_ResolveReferences_m1518052352
W3i:_GameObjectTeleporter_Awake_m436515913
ICc:__Z13RegisterClassI5LightEvv
zzf:__ZN5physx2Gu20registerHeightFieldsEv
Frc:__ZL22ScheduleSceneNodesJobsP25ScheduleSceneNodesJobDataj
z5e:__ZN5physx22concludeContactCoulombERKNS_23PxcSolverConstraintDescERNS_16PxcSolverContextE
_m:_emscripten_set_canvas_size
Imj:_Graphic_SetVerticesDirty_m2124914069
UIe:__ZNK5physx15NpParticleFluid12getStiffnessEv
x6l:_CultureInfo__ctor_m3285927757
k4k:_MaskableGraphic_get_rootCanvasRect_m3492154629
zvk:_Array_Resize_TisRaycastResult_t3360306849_m1811054291_gshared
mMa:__ZNSt3__26vectorIN9ShaderLab20SerializedSubProgramENS_9allocatorIS2_EEE8__appendEj
lna:__ZN20DynamicHeapAllocatorI17LowLevelAllocatorE8AllocateEji
wan:_Dictionary_2_Resize_m1014133711_gshared
zkc:__ZN20DynamicPropertySheet15SetVectorQueuedERKN9ShaderLab16FastPropertyNameERK8Vector4fN19ShaderPropertySheet8SetFlagsE
SSp:_AnimatorControllerPlayable_SetHandle_m2260644454
_V:__ZN7mecanim9animation22EvaluateAvatarRetargetEPKNS0_14AvatarConstantEPKNS0_11AvatarInputEPNS0_12AvatarOutputEPNS0_12AvatarMemoryEPNS0_15AvatarWorkspaceEb
wqb:__ZN14RenderSettings23VirtualRedirectTransferER19StreamedBinaryWriteILb0EE
Yyp:_Water2D_Tool_SetRenderTextureVariables_m2192819733
rjd:__ZL26Transfer_SimpleNativeClassI9JSONWrite10RectOffsetLb0EEvRK29SerializationCommandArgumentsR31RuntimeSerializationCommandInfo
i5o:_PKCS12__ctor_m1587304645
vHq:_GC_push_conditional
W3k:_Misc_DestroyImmediate_m3534039591
rZa:__ZN17GenericDynamicVBO10AllocateVBEjR21DynamicVBOChunkHandle
F9e:__ZL27PxcTestFacesSepAxesBackfaceRKN5physx2Gu13PolygonalDataES3_RKNS_2Cm8Matrix34ES7_RKNS4_23FastVertex2ShapeScalingESA_S7_RKNS_6PxVec3ERfRSB_RjPjSG_fSD_
gEm:_DBNull_ToString_m3638608738
Iwq:__ZN30dense_hashtable_const_iteratorI10KeyWrapperIP18Il2CppGenericClassES3_N6il2cpp8metadata22Il2CppGenericClassHashEN14dense_hash_setIS3_S6_NS3_14EqualsComparerINS5_25Il2CppGenericClassCompareEEENSt3__29allocatorIS3_EEE8IdentityESA_SD_EppEv
AFl:_BitArray_Clone_m3537018332
hqj:_ObjectRecord_UnchainFixup_m3191243952
adq:__ZN6il2cpp2osL19StatToFileAttributeERKNSt3__212basic_stringIcNS1_11char_traitsIcEENS1_9allocatorIcEEEER4statPSA_
ASp:_AnimationOffsetPlayable_GetRotation_m259451460
zn:_glMapBufferRange
Dyb:__ZN9Texture2D8TransferI18StreamedBinaryReadILb0EEEEvRT_
k_c:__Z31Input_CUSTOM_GetMouseButtonDowni
PKc:__ZN13PlayableGraph4PlayEv
FJc:__Z29AddCanvasIntermediateRendererPN2UI6CanvasEPNS_13CanvasBuffersEP17VertexDeclarationjRK10Matrix4x4ftRK4AABB4PPtrI8MaterialEi17ShadowCastingModebP6Camerab
Nic:__ZNK9Transform16GetLocalPositionEv
t_j:_MonoType_get_BaseType_m1098640416
dcb:__ZN13LoadOperation19IntegrateTimeSlicedEi
w4o:_TlsStream_Read_m3392972801
_vl:_AttrListImpl_get_Values_m3139810172
Z6e:__ZN5physx16PxsBroadPhaseMBP9updatePPUEPNS_10PxBaseTaskE
zVa:__ZN13GfxDeviceGLES22DispatchComputeProgramE12ObjectHandleI18ComputeProgram_TagPvE15ComputeBufferIDj
EKm:_Latin1Encoding_GetString_m254210343
xPb:__Z17TransformAABBSlowRK4AABBRK10Matrix4x4fRS_
Kyl:_Array_combsort_m4052486289
dCb:__ZN15SerializeTraitsI13dynamic_arrayI12SpriteVertexLj4EEE19ResizeSTLStyleArrayERS2_i
JKa:__ZN9ShaderLab21SerializedShaderState8TransferI14SafeBinaryReadEEvRT_
u4l:_Environment_GetWindowsFolderPath_m1738399646
lxm:_DateTime_op_LessThan_m2497205152
Kmf:__ZN5physx2Gu13RTreeMidphaseC2Ev
XGf:_cf2_stack_pushInt
SV:__ZN8Animator19FireAnimationEventsERNS_11AnimatorJobE
bLe:__ZN5physx6shdfnd8PoolBaseINS_16NpParticleSystemENS0_19ReflectionAllocatorIS2_EEE12allocateSlabEv
k9c:__Z84Register_UnityEngine_Animations_AnimationOffsetPlayable_GetRotationInternal_Injectedv
Q7c:__Z38PlayableHandle_CUSTOM_GetTime_InjectedP9HPlayable
$tj:_CryptoConfig_EncodeOID_m2635914623
sNa:__ZN15SerializeTraitsINSt3__24pairIN4core12basic_stringIcNS2_20StringStorageDefaultIcEEEES6_EEE8TransferI24GenerateTypeTreeTransferEEvRS7_RT_
U6q:b89
T6q:b88
Gao:_Dictionary_2_OnDeserialization_m209005500_gshared
Qwk:_Array_Sort_TisPlayable_t459825607_TisPlayable_t459825607_m602951024_gshared
C6q:b81
B6q:b80
X5a:__ZN7ApiGLES19CreateSparseTextureEjj14GraphicsFormatiiiiRiS1_S1_
$sa:__ZN18ResourceImageGroup7CleanupEv
G6q:b85
pie:__ZN5physx2Gu36closestPtPointTetrahedronTesselationEPNS_6shdfnd3aos5Vec3VES4_S4_RjRS3_S6_
I6q:b87
U9e:__ZN5physx25PxcPCMContactSphereConvexERKNS_2Gu13GeometryUnionES3_RKNS_11PxTransformES6_RKfRNS_10PxcNpCacheERNS0_13ContactBufferE
mCj:_RemotingSurrogateSelector_GetSurrogate_m3900875713
B$l:_Random_get_rotation_m4216259439
aMk:_TlsServerCertificate_validateCertificates_m4242999387
THk:_CertificateValidationCallback_Invoke_m1014111289
Erb:__ZN8Playable19SetOutputConnectionEPS_i
lad:__Z42Rigidbody2D_Get_Custom_PropAngularVelocityP12Il2CppObject
X2p:__ZN15dense_hashtableINSt3__24pairIK10KeyWrapperIPK11Il2CppClassEPKcEES6_N6il2cpp5utils11PointerHashIS3_EEN14dense_hash_mapIS6_S9_SE_NS6_14EqualsComparerINS0_8equal_toIS5_EEEENS0_9allocatorISA_EEE9SelectKeyESJ_SL_EC2ERKSO_j
nw:__ZN14SafeBinaryRead21TransferSTLStyleArrayINSt3__26vectorIN22NavMeshProjectSettings15NavMeshAreaDataENS1_9allocatorIS4_EEEEEEvRT_17TransferMetaFlags
oo:_glDeleteShader
shl:_Water2D_Ripple_UpdateDynamicObstructions_m2477713832
$vk:_Array_Sort_TisChar_t3634460470_TisChar_t3634460470_m992244203_gshared
A7i:_TextContainer_get_height_m1856707292
u1a:__ZN6prcoreL17RemapGenericFloatI15TexFormatRGHalf16TexFormatRGFloatEEvPKNS_9InnerInfoE
bxk:_Array_Sort_TisUICharInfo_t75501106_m128665067_gshared
oJf:_otv_GSUB_validate
lkm:_RSAPKCS1SignatureDeformatter_SetHashAlgorithm_m1602190713
THm:_Enum_System_IConvertible_ToByte_m1219166845
Zye:__ZN5physx6shdfnd8PoolBaseINS_10NpMaterialENS0_19ReflectionAllocatorIS2_EEE15disposeElementsEv
H5n:_Dictionary_2_CopyToCheck_m45332585_gshared
bAo:_Collection_1_System_Collections_IList_IndexOf_m2831626011_gshared
m0n:_Array_InternalArray__ICollection_CopyTo_TisTMP_MeshInfo_t2771747634_m3871978652_gshared
d3j:_ConstructorInfo__cctor_m1016079270
y1f:__ZN11UnityEngine15PlatformWrapper20IsRootedOrJailbrokenEv
ETc:__Z27scripting_add_internal_callPKcPKv
wwl:_AppDomain_Load_m4174353770
yxq:__GLOBAL__sub_I_GarbageCollector_cpp
hhp:_StandaloneInput_SetButtonUp_m191088641
DZi:_Utils_SmoothApproach_m992704952
Z_m:_Enumerator_MoveNext_m1556953412_AdjustorThunk
OO:__ZN26AnimatorControllerPlayable18SetLayerAutoWeightEv
Yc:invoke_vffff
DPb:__Z12CollectPPtrsRK6ObjectRNSt3__23setIiNS2_4lessIiEENS2_9allocatorIiEEEE
TFc:__ZN12CubemapArrayC2E10MemLabelId18ObjectCreationMode
Bdg:_TMP_Dropdown_AlphaFadeList_m767437170
FYf:__ZN2UI14CanvasRenderer12SyncMaterialENS0_8SyncFlagE
lWj:_StreamWriter_Write_m1660535366
Spg:_TMP_Text_GetUTF16_m3796775743
xdj:_PhysicsRaycaster_get_finalEventMask_m5197086
zLq:__ZN6il2cpp2vm9Parameter30GetDefaultParameterValueObjectEPK10MethodInfoPK13ParameterInfoPb
yMm:_UTF8Encoding_GetByteCount_m4152118078
bBn:_KeyPairPersistence__CanSecure_m3516574278
Fil:_Water2D_Simulation_OverlapSineWaves_m1855013997
AAf:__ZN13ProduceHelperI15CapsuleColliderLb0EE7ProduceE10MemLabelId18ObjectCreationMode
lCo:_Collection_1_System_Collections_IList_get_Item_m2422562729_gshared
ulb:__ZN12LightManager28IsLightTransformDataUpToDateEPK5Light
LN:__ZN14AnimationEvent8TransferI19StreamedBinaryWriteILb0EEEEvRT_
nio:_WeightUtility_NormalizeMixer_m695491675
OM:__ZN7mecanim9animation9DenseClip8TransferI24GenerateTypeTreeTransferEEvRT_
xLf:_UNITY_tt_face_done_kern
khg:_OnValidateInput_Invoke_m2954553687
tDj:_ObjRef_GetObjectData_m270012899
$Ib:__ZN14SafeBinaryRead21TransferSTLStyleArrayINSt3__26vectorI14SubstanceInputNS1_9allocatorIS3_EEEEEEvRT_17TransferMetaFlags
vFb:__ZN12BoneWeights48TransferI24GenerateTypeTreeTransferEEvRT_
ivo:_Collection_1_System_Collections_IList_Insert_m3305918149_gshared
UA:__ZN15HeightMeshQuery13AddHeightDataEiffPKNSt3__26vectorI14HeightMeshData13stl_allocatorIS2_L18MemLabelIdentifier76ELi16EEEEPK13dynamic_arrayI13HeightmapDataLj4EE
rym:_Convert_ToDouble_m278900635
lcc:__Z19scripting_gc_enablev
onk:_InternalEnumerator_1_get_Current_m2907722321_gshared
ngc:__ZZ23InitPlayerLoopCallbacksvEN41InitializationPlayerUpdateTimeRegistrator7ForwardEv
gTc:__ZN11UTF16StringC2ERKS_10MemLabelId
qyf:__ZN5physx7profile11EventBufferINS_24PxDefaultContextProviderENS_6shdfnd6MutexTINS0_26WrapperReflectionAllocatorIhEEEENS0_14ScopedLockImplIS7_EENS_24PxProfileNullEventFilterEE9stopEventEty
FVf:__Z48Register_UnityEngine_TextMesh_INTERNAL_get_colorv
Obg:_TMP_BasicXmlTagStack_Remove_m577786222_AdjustorThunk
y_f:__Z55Register_UnityEngine_CanvasRenderer_DisableRectClippingv
FD:__Z50Register_UnityEngine_AI_NavMeshAgent_set_isStoppedv
WEb:__ZN14SafeBinaryRead21TransferSTLStyleArrayI13dynamic_arrayI11ColorRGBA32Lj4EEEEvRT_17TransferMetaFlags
Xek:_InternalEnumerator_1_System_Collections_IEnumerator_get_Current_m888718134_gshared
Oek:_InternalEnumerator_1_get_Current_m2894466703_gshared
pXk:_Array_compare_TisRaycastResult_t3360306849_m822404090_gshared
XVl:_Object_Destroy_m3118546832
mCm:_DateTime_FromTicks_m4059645178_AdjustorThunk
vlk:_InternalEnumerator_1_System_Collections_IEnumerator_get_Current_m1470676642_gshared
tBk:_Array_InternalArray__get_Item_TisClientCertificateType_t1004704908_m2297379651_gshared
KUj:_ConfigHandler_ParseTime_m1787834288
sPa:__ZN9ShaderLab7Program27CreateFromSerializedProgramERKNS_17SerializedProgramE10ShaderTypeiP16PropertyNamesSetPK6Shader
Z1j:_Assembly_Load_m3487507613
$nb:__ZNSt3__27__sort4IRNS_6__lessIN4core12basic_stringIcNS2_20StringStorageDefaultIcEEEES6_EEPS6_EEjT0_SA_SA_SA_T_
r2q:dynCall_viiiifii
MD:__Z41Register_UnityEngine_AI_NavMeshPath__ctorv
LIq:_GC_unregister_disappearing_link
Njq:__ZN6il2cpp2gc19AppendOnlyGCHashMapINSt3__24pairIPK11Il2CppImageP11Il2CppClassEEP22Il2CppReflectionModule17ReflectionMapHashIS9_ENS2_8equal_toIS9_EEEC2Ev
ypa:__Z20GetPersistentManagerv
NOf:_UNITY_TT_Set_Var_Design
oth:__Z79RuntimeInvoker_Void_t1185182177_Int32_t2950945753_TMP_CharacterInfo_t3185626797PFvvEPK10MethodInfoPvPS4_
YAa:__ZN21SystemInfoStringCache16StaticInitializeEPv
Sxo:_Collection_1__ctor_m3380123530_gshared
Wge:__ZN5physx2Sc7BodySim18internalWakeUpBaseEf
OMo:_ReadOnlyCollection_1_System_Collections_Generic_ICollectionU3CTU3E_Remove_m1100818788_gshared
NLa:__ZNSt3__26vectorIN9ShaderLab20SerializedSubProgram15StructParameterENS_9allocatorIS3_EEE6assignIPS3_EENS_9enable_ifIXaasr21__is_forward_iteratorIT_EE5valuesr16is_constructibleIS3_NS_15iterator_traitsISA_E9referenceEEE5valueEvE4typeESA_SA_
yXj:_UnexceptionalStreamWriter_Write_m363195622
Fhg:_TMP_InputField_PageDownCharacterPosition_m4179960745
A9b:__ZNK13MonoBehaviour7GetNameEv
cPf:_ft_var_load_item_variation_store
AQb:__ZN19ScriptingInvocation28AdjustArgumentsToMatchMethodEv
FDp:_IndexedSet_1_Contains_m1525966688_gshared
o2l:_RenderTexture__ctor_m3368882316
N2:__Z15_CheckFMODError11FMOD_RESULTPKciS1_
Nqq:__ZN6il2cpp6icalls8mscorlib6SystemL16ThrowInvalidCastEPK11Il2CppClassS5_
Kmb:__Z20RenderMultipleMeshesRK15RenderNodeQueueRK18RenderMultipleData17ShaderChannelMask
gNg:_ProCamera2D_RemovePositionDeltaChanger_m3556102641
Lvj:_HMAC_KeySetup_m661741544
_Jm:_Latin1Encoding__ctor_m498920120
Beq:__ZN6il2cpp2vm4Type19GetGenericParameterEPK10Il2CppType
JVj:_StreamReader_Peek_m2272511193
gAd:__ZN11ShapeModule5ResetEv
ZZf:__Z51Register_UnityEngine_CanvasGroup_get_blocksRaycastsv
ELf:_tt_cmap14_char_var_index
cMq:__ZN6il2cpp5utils35RegisterRuntimeInitializeAndCleanup22ExecuteInitializationsEv
Q1c:__Z38Material_Set_Custom_PropShaderKeywordsP12Il2CppObjectP11Il2CppArray
RSq:__ZNSt3__217__libcpp_sscanf_lEPKcP15__locale_structS1_z
clf:__ZN5physx13BigConvexData5VLoadERNS_13PxInputStreamE
Uhq:__ZNK15dense_hashtableINSt3__24pairIK10KeyWrapperINS1_IPK11Il2CppImageP11Il2CppClassEEEjEES9_17ReflectionMapHashIS8_EN14dense_hash_mapIS9_jSD_NS9_14EqualsComparerINS0_8equal_toIS8_EEEENS0_9allocatorISB_EEE9SelectKeyESI_SK_E3endEv
YRm:_Type_GetConstructor_m1195697116
of:_glBeginQuery
jfp:_CrossPlatformInputManager_RegisterVirtualAxis_m3479801628
CVp:_Physics2D_Raycast_m1700114981
yF:__ZN18AnimatorController19TransferRuntimeDataI24GenerateTypeTreeTransferEEvRT_
rFq:__ZN6il2cpp2vmL9ends_withEPKcS2_
e$e:__ZN5physx11NodeManager6resizeEj
TXd:__ZN10Effector2D25CheckEffectorColliderMaskEP10Collider2DS1_
Ohc:__ZN6Camera12RenderStereoENS_10RenderFlagE8CullFlagPNS_24PerformEyeRenderFunctionE
F2e:__ZN5physx25PxcGetMaterialHeightFieldEPKNS_12PxsShapeCoreEjRNS_18PxcNpThreadContextEPNS_15PxsMaterialInfoE
DTb:__ZN20LocalFileSystemPosix10ToAbsoluteEPKc
zmb:__ZN20TierGraphicsSettings8TransferI19StreamedBinaryWriteILb0EEEEvRT_
B8q:b111
Ffq:__ZN15dense_hashtableINSt3__24pairIK10KeyWrapperINS1_IPK9FieldInfoP11Il2CppClassEEEjEES9_17ReflectionMapHashIS8_EN14dense_hash_mapIS9_jSD_NS9_14EqualsComparerINS0_8equal_toIS8_EEEENS0_9allocatorISB_EEE9SelectKeyESI_SK_E4findERSA_
g_i:_ProCamera2DTransitionsFX_TransitionRoutine_m3047908408
DAa:__GLOBAL__sub_I_runtime_input_0_cpp
pEq:__ZN6il2cpp2vm13ComObjectBase16DisconnectObjectEj
EUe:__ZNK5physx7NpScene28getSceneQueryStaticTimestampEv
OI:__ZN14AnimationState19SetupUnstoppedStateEv
UPq:_getcwd
Nuf:__ZNSt3__26vectorI9CollisionNS_9allocatorIS1_EEE21__push_back_slow_pathIKS1_EEvRT_
SOd:__ZN16b2CapsuleContact6CreateEP9b2FixtureiS1_iP16b2BlockAllocator
pbb:__ZN25ThreadsafeLinearAllocatorD2Ev
L7j:_ILGenerator_Emit_m3083135129
KSc:__ZL50GetAndClearChangedTransformsForMultilpleSystemsJobP45GetChangedTransformsForMultipleSystemsJobDatajPK23TransformAccessReadOnlyPKyj
F0e:__ZN5physx2Sq10AABBPruner11preallocateEj
OOb:__Z21SendMessageToEveryoneRK17MessageIdentifier11MessageData
h8p:__ZN6il2cpp2vm13MetadataCache31GetParameterDefinitionFromIndexEi
pFa:__ZN21BillboardBatchManager16StaticInitializeEPv
Uad:__Z58Register_UnityEngine_Rigidbody2D_GetPointVelocity_Injectedv
rxm:_DateTime_AbsoluteDays_m4235097773
jCa:__ZN12_GLOBAL__N_138ArchiveRedirectFileSystemStaticDestroyEPv
xRg:__Z74RuntimeInvoker_RuntimeObject_RuntimeObject_RuntimeObject_SByte_t1669577662PFvvEPK10MethodInfoPvPS4_
Bkj:_DefaultControls_CreateScrollView_m3842770629
cZi:_ProCamera2DShake_ApplyShakesTimed_m1430963552
Swb:__ZN12CubemapArray34UpdateFileTextureUploadInstructionEP26FileAssetUploadInstructionj
dSe:__ZN5physx2Sc19ShapeInstancePairLLC2ERNS0_8ShapeSimES3_RNS0_9ActorPairENS_7PxFlagsINS_10PxPairFlag4EnumEtEE
W5a:__Z23CreateSparseTextureGLES9TextureIDii14GraphicsFormati
WJf:_otv_Anchor_validate
TTl:_Matrix4x4_MultiplyPoint3x4_m4145063176
q5l:_CCMath_mod_m3631663509
uQm:_TimeSpan_Negate_m1889505500_AdjustorThunk
aGn:_ReadOnlyCollection_1_System_Collections_ICollection_CopyTo_m2715087453_gshared
uSf:__ZNSt3__23mapIN20TextRenderingPrivate7FontRefEP11FT_FaceRec_NS_4lessIS2_EENS_9allocatorINS_4pairIKS2_S4_EEEEEixERS9_
Jdb:__ZN17ArchiveFileSystem10AddStorageEP20ArchiveStorageReader
QGe:__ZN5physx2Sc9ClothCore16setStretchConfigENS_22PxClothFabricPhaseType4EnumERKNS_20PxClothStretchConfigE
WEd:__Z19UpdateSingleRow2TplIL27ParticleSystemCurveEvalMode4ELS0_1EEvfRK11MinMaxCurveS3_RK23ParticleSystemParticlesPfbiii
Ozd:__ZN9SubModule8TransferI19StreamedBinaryWriteILb0EEEEvRT_
Qtq:__ZN6il2cpp6icalls8mscorlib6System13GlobalizationL28culture_info_entry_from_lcidEi
hVe:__ZN5physx15PxsParticleData13onOriginShiftERKNS_6PxVec3E
$Kd:__ZNK12b2MotorJoint16GetReactionForceEf
Flp:_TMP_TextUtilities_FindIntersectingLine_m3662770160
ZYp:_Physics_Raycast_m234523501
vFm:_Decimal_ToString_m14270257_AdjustorThunk
j1p:__ZN6il2cpp2vm5Class15GetEnumBaseTypeEP11Il2CppClass
KTk:_PlayableHandle_IsPlayableOfType_TisAudioClipPlayable_t785069022_m4147257887_gshared
UKk:_Context_set_WriteSequenceNumber_m942577065
Vf:_glVertexAttrib4fv
sql:_X509CertificateEnumerator_Reset_m4026698923
IEq:__ZNK6il2cpp5utils13VmStringUtils23CaseInsensitiveComparerclERKNSt3__212basic_stringIcNS3_11char_traitsIcEENS3_9allocatorIcEEEEPKc
Pyp:_Water2D_Tool_GenerateTopMeshDataWithTiling_m357295272
Uxb:__ZNK9Texture2D16GetNpotTexelSizeEv
fdb:__ZL33FileEntryInfoListToFolderContentsRKN4core12basic_stringIcNS_20StringStorageDefaultIcEEEERK19dynamic_block_arrayI13FileEntryInfoLj32EERNSt3__23setIS3_NSB_4lessIS3_EENSB_9allocatorIS3_EEEE
v3k:_LayoutUtility_GetLayoutProperty_m714717302
Ctd:__Z20EvaluateSlowThreadedRK11MinMaxCurveRNS_5CacheERKN4math7_float4ES7_
HYl:_PlayableHandle_Play_Injected_m615446644
D5q:b38
BAo:_Collection_1_IsValidItem_m3076520886_gshared
GSa:__ZN9GfxDevice22GetDefaultVertexBufferE26GfxDefaultVertexBufferTypej
pQk:_Array_InternalArray__ICollection_Contains_TisInt64_t3736567304_m2911357929_gshared
_Rl:_Material_INTERNAL_CALL_SetColorImpl_m4283161378
d3i:_DialogueManager_Update_m572826477
xCo:_Collection_1_Remove_m3022471627_gshared
kQq:___fseeko_unlocked
$0j:_Object_ToString_m1740002499
cQq:_sscanf
bce:__ZN5physx3Cct17CapsuleControllerC2ERKNS_16PxControllerDescERNS_9PxPhysicsEPNS_7PxSceneE
hFb:__ZN14SafeBinaryRead21TransferSTLStyleArrayINSt3__26vectorI17BlendShapeChannelNS1_9allocatorIS3_EEEEEEvRT_17TransferMetaFlags
kdc:__Z17BeginSplashScreenv
Lvk:_Array_Resize_TisUILineInfo_t4195266810_m3763058392_gshared
vtj:_SByte_ToString_m3584531119_AdjustorThunk
jOa:__ZN9ShaderLab16SerializedShader8TransferI19StreamedBinaryWriteILb0EEEEvRT_
pon:_Enumerator_MoveNext_m2585929376_gshared
vY:__ZN7mecanim9animation18CreateAvatarMemoryEPKNS0_14AvatarConstantERNS_6memory9AllocatorE
fpo:_TimeControlPlayable_OnBehaviourPlay_m384561973
npo:_TrackAsset_get_end_m622040968
bEk:_ModulusRing__ctor_m2420310199
xxm:_Convert_ToDateTime_m626620011
Qgp:_MobileInput_AddButton_m1457048403
EFd:__Z17UpdateSprites2TplIL27ParticleSystemCurveEvalMode2ELS0_4EEvfRK11MinMaxCurveS3_RK23ParticleSystemParticlesPf
hX:__ZN7mecanim8skeleton16SkeletonPoseCopyIN4math4trsXENS2_7affineXEEEvPKNS0_13SkeletonPoseTIT_EEPNS5_IT0_EE
$Ya:__ZN18GfxFramebufferGLES18GetFramebufferNameERK20GfxRenderTargetSetup
PHq:_GC_print_block_list
yll:_IPAddress__ctor_m921977496
l0q:_saveSetjmp
J0k:_InputField_MoveDown_m1455948167
Z4c:__Z45Register_UnityEngine_Transform_get_hasChangedv
efd:__Z30Event_Get_Custom_PropCharacterP12Il2CppObject
cHa:__ZN13PlayableGraph27SchedulePlayableDestructionERK9HPlayable
fJf:_cff_get_mm_var
m8d:__ZN5physx6shdfnd5ArrayINS_12PxDebugPointENS0_19ReflectionAllocatorIS2_EEE15growAndPushBackERKS2_
t7q:_glGetFramebufferAttachmentParameteriv__wrapper
ETj:_ChannelServices_GetCurrentChannelInfo_m3041604116
E4f:__Z13RegisterClassI20UnityConnectSettingsEvv
Nmg:_TMP_SubMeshUI_get_padding_m2434139048
zXb:__Z22scripting_array_length17ScriptingArrayPtr
yWj:_SynchronizedReader_Peek_m148942882
fsf:__ZN8Collider13AwakeFromLoadE17AwakeFromLoadMode
jXc:__Z56Register_UnityEngine_Camera_INTERNAL_set_backgroundColorv
dxb:__ZN14SafeBinaryRead20TransferTypelessDataEjPvi
hQe:__ZN5physx6shdfnd13ReadWriteLockC2Ev
GHb:__ZN14SpriteRenderer18UpdateCachedSpriteEb
e5i:_ColorTweenCallback__ctor_m3306312885
vba:__ZN13dynamic_arrayI12SoundChannelLj4EE9push_backERKS0_
Oxa:__Z19GetActiveColorSpacev
Zyd:__ZN17SizeBySpeedModule8TransferI18StreamedBinaryReadILb0EEEEvRT_
oYp:_BoxCollider_INTERNAL_set_center_m471190135
$2m:_Transform_1_BeginInvoke_m1042516857_gshared
ZKf:_UNITY_tt_face_load_kern
cNj:_MonoMethodInfo_GetDeclaringType_m2924452727
Kvq:__ZN15dense_hashtableINSt3__24pairIK10KeyWrapperINS1_IPKcS4_EEEiEES6_24NamespaceAndNamePairHashN14dense_hash_mapIS6_iS9_NS6_14EqualsComparerI26NamespaceAndNamePairEqualsEENS0_9allocatorIS8_EEE9SelectKeyESD_SF_E4findERS7_
xec:__ZN13sorted_vectorINSt3__24pairIiN17InstancingBatcher12PropertyTypeEEEN10vector_mapIiS3_NS0_4lessIiEE13stl_allocatorIS4_L18MemLabelIdentifier1ELi16EEE13value_compareESA_E21sort_clear_duplicatesEv
Eok:_InternalEnumerator_1_get_Current_m201387367_gshared
d9i:_TextMeshPro_SetMeshFilters_m993334778
EZf:__ZZN2UI14CanvasRenderer15InitializeClassEvEN38FunctorImpl_909kCanvasHierarchyChanged4CallEPviR11MessageData
osa:__Z6StrCmpPKcS0_
AQa:__Z21CheckGpuProgramUsable20ShaderGpuProgramType
nEc:__ZN13ProduceHelperI14Texture2DArrayLb0EE7ProduceE10MemLabelId18ObjectCreationMode
XAq:__ZN6il2cpp2os9Directory20GetFileSystemEntriesERKNSt3__212basic_stringIcNS2_11char_traitsIcEENS2_9allocatorIcEEEESA_iiPi
wxl:_Array_System_Collections_IList_Add_m1063688101
yve:__ZN5physx6shdfnd5ArrayIPvNS0_19ReflectionAllocatorINS_2Cm5BlockIhLj128EEEEEE4copyINS0_15InlineAllocatorILj256ES7_EEEEvRKNS1_IS2_T_EE
Z5i:_KerningPairKey__ctor_m3886658971
ERf:__ZN20TextRenderingPrivate19NativeTextGenerator5SetupEv
Uoc:__ZNK15SharedLightData24GetFinalShadowResolutionEv
dze:__ZN5physx6shdfnd8PoolBaseINS_16NpConnectorArrayENS0_19ReflectionAllocatorIS2_EEE15disposeElementsEv
iMb:__ZN12AspectRatios8TransferI18StreamedBinaryReadILb0EEEEvRT_
jBf:__ZN14PhysicsManager19CreatePvdConnectionEv
xzm:_Convert_ToInt64_m3916071102
nJc:__ZN10GameObject14CopyPropertiesERS_
mgd:__Z44Register_UnityEngine_GUIStyle_get_fixedWidthv
WRk:_Array_InternalArray__ICollection_Remove_TisLink_t544317964_m1280781374_gshared
Izl:_BitConverter_DoubleWordsAreSwapped_m1474345095
Mbh:__Z114RuntimeInvoker_Int32_t2950945753_Vector2_t2156229523_Vector2_t2156229523_ContactFilter2D_t3805203441_RuntimeObjectPFvvEPK10MethodInfoPvPS4_
vBb:__ZNK13ScreenManager12IsFullScreenEv
uEl:_FixedSizeArrayListWrapper_set_Capacity_m4221053039
KQq:_rand
f7f:__ZN16VideoPlaybackMgr20ReleaseVideoPlaybackEP13VideoPlayback
X7q:_emscripten_glFramebufferRenderbuffer__wrapper
nPc:__ZN13MeshScripting10CreateMeshE21ScriptingObjectOfTypeI4MeshE
mye:__ZNK5physx12NpConstraint9getActorsERPNS_12PxRigidActorES3_
nal:_Slider_FindSelectableOnLeft_m1667068522
Z_l:_Quaternion_INTERNAL_CALL_Internal_ToEulerRad_m1913372122
vYb:__ZN14SafeBinaryRead21TransferSTLStyleArrayINSt3__26vectorI17AnimationCurveTplIfE13stl_allocatorIS4_L18MemLabelIdentifier1ELi16EEEEEEvRT_17TransferMetaFlags
ZEl:_SynchronizedArrayListWrapper_Contains_m3809499313
Xbg:_TMP_ColorGradient__cctor_m2339553807
QZl:_PlayableOutputHandle_SetSourcePlayable_m3441604258
Hnf:__ZN5physx6shdfnd8PoolBaseIN17PxcPoolMallocData10PoolData16ENS0_19ReflectionAllocatorIS3_EEE15disposeElementsEv
Irf:__ZN9Rigidbody23UpdateInterpolationNodeEv
fmp:_TMP_UpdateRegistry_PerformUpdateForCanvasRendererObjects_m2220986069
Zvj:_HMACSHA256__ctor_m346174875
orc:__Z22PrepareOptimizedPlanesPK5PlaneiPKN4math7_float4E
$la:__ZN11UnityEngine15CloudWebService17WebFileDownloaderINS0_20WebRequestRestClientENS0_23WebRequestRestHeaderMapEE10InitializeERKN4core12basic_stringIcNS5_20StringStorageDefaultIcEEEE
nFa:__ZN17UniqueIDGenerator15CreatePureIndexEv
Nug:_PlayerController_OnTriggerExit2D_m2913275993
v7c:__Z50PlayableGraph_CUSTOM_GetRootPlayableCount_InjectedP14HPlayableGraph
KH:__ZN11UnityEngine9Animation28GenericAnimationBindingCache15DidReloadDomainEv
I3q:dynCall_fiifi
tbd:__ZN16PlayableDirector12AddToManagerEv
Dcq:__ZN6il2cpp2vm7Runtime17GetDelegateInvokeEP11Il2CppClass
dNp:__ZL25UnresolvedVirtualCall_161P12Il2CppObjectiifPK10MethodInfo
Pnq:_PlayableDirector_GetGraphHandle_m24850652
qEb:__ZN16BlitStereoHelper16PrepareEyeRenderEiRK19ShaderPropertySheetRS0_bRK8Vector2fS6_14VRTextureUsage
fTe:__ZN5physx7NpScene8addActorERNS_7PxActorE
_Mb:__ZNSt3__26vectorIN15ResourceManager10DependencyE13stl_allocatorIS2_L18MemLabelIdentifier52ELi16EEE6assignINS_11__wrap_iterIPS2_EEEENS_9enable_ifIXaasr21__is_forward_iteratorIT_EE5valuesr16is_constructibleIS2_NS_15iterator_traitsISC_E9referenceEEE5valueEvE4typeESC_SC_
VG:__ZN19StreamedBinaryWriteILb0EE8TransferIN7mecanim9animation23BlendDirectDataConstantEEEvRT_PKc17TransferMetaFlags
Qhg:_TMP_InputField_MovePageDown_m1635937063
tQk:_Array_InternalArray__ICollection_Contains_TisCustomAttributeTypedArgument_t2723150157_m2663438007_gshared
y0p:__ZN15dense_hashtableINSt3__24pairIK10KeyWrapperIPK22Il2CppGenericParameterEP11Il2CppClassEES6_N6il2cpp5utils11PointerHashIS4_EEN14dense_hash_mapIS6_S9_SE_NS6_14EqualsComparerINS0_8equal_toIS5_EEEENS0_9allocatorISA_EEE9SelectKeyESJ_SL_E14squash_deletedEv
Qtb:__ZN9ShaderLabL27GetDesiredRenderTextureDescEPK6Camera
QMd:__ZNK12b2MouseJoint17GetReactionTorqueEf
M1n:_Array_InternalArray__Insert_TisMark_t3471605523_m2854535880_gshared
L$a:__ZN6prcoreL29inner_stretch_rgb565_bilinearEPKNS_9InnerInfoE
EHc:__ZZL23RegisterLightPropertiesR22GenericPropertyBindingEN18Wrapper_LightRange13SetFloatValueEPvf
sM:__ZN14SafeBinaryRead21TransferSTLStyleArrayI13dynamic_arrayI11KeyframeTplI11QuaternionfELj4EEEEvRT_17TransferMetaFlags
zBj:_MethodReturnDictionary__cctor_m278392388
YJg:_EditorPrefsX_GetVector3Array_m2315510714
t5q:b33
gpa:__ZNK9Transform18TransformDirectionERK8Vector3f
Ajf:__ZN5physx21PxsBodyTransformVault6updateEv
uee:__ZThn12_N5physx3Ext5JointINS_15PxDistanceJointENS_30PxDistanceJointGeneratedValuesEE19onConstraintReleaseEv
HJf:_otv_MarkLigPos_validate
oOm:_Thread_GetSerializedCurrentUICulture_m3681656498
g0d:__ZL29GeomMTDCallback_CapsuleConvexRN5physx6PxVec3ERfRKNS_10PxGeometryERKNS_11PxTransformES5_S8_
DAi:__ZL55ControlTrack_t3308451304_CustomAttributesCacheGeneratorP21CustomAttributesCache
P6p:__ZN15dense_hashtableINSt3__24pairIK10KeyWrapperIPK11Il2CppClassEPKcEES6_N6il2cpp5utils11PointerHashIS3_EEN14dense_hash_mapIS6_S9_SE_NS6_14EqualsComparerINS0_8equal_toIS5_EEEENS0_9allocatorISA_EEE9SelectKeyESJ_SL_E12resize_deltaEjj
n$q:__ZNK10__cxxabiv120__si_class_type_info27has_unambiguous_public_baseEPNS_19__dynamic_cast_infoEPvi
Hw:__ZNSt3__26vectorIN22NavMeshProjectSettings15NavMeshAreaDataENS_9allocatorIS2_EEE8__appendEj
gEk:_Kernel_LeftShift_m4140742987
M1j:_Assembly_GetManifestResourceInternal_m1224391897
Fqo:_TimelineClip_get_clipAssetDuration_m2451573441
vZa:__Z30AddDefaultStreamsToMeshBuffersR9GfxDeviceR11MeshBuffersj17ShaderChannelMaskS3_
UBa:__ZL16GetInterfaceImpl18UnityInterfaceGUID
C1p:__ZN6il2cpp2vmL17SetupFieldOffsetsENS0_15FieldLayoutKindEP11Il2CppClassjRKNSt3__26vectorIjNS4_9allocatorIjEEEE
yM:__ZNSt3__26vectorIN13AnimationClip15QuaternionCurveE13stl_allocatorIS2_L18MemLabelIdentifier26ELi16EEE10deallocateEv
NQc:__Z15AngularDistanceRK11QuaternionfS1_
rzp:_U3CwaterballU3Ec__Iterator0_MoveNext_m1690035714
hjp:_FOVKick_FOVKickUp_m3024089749
jik:_InternalEnumerator_1_get_Current_m1408339225_AdjustorThunk
iPf:_UNITY_TT_Set_MM_Blend
EAa:__GLOBAL__sub_I_runtime_math_random_0_cpp
Zbg:_TMP_DefaultControls_CreateUIElementRoot_m1048691524
xdc:__ZN14PreloadManager35WaitForAllAsyncOperationsToCompleteEv
xMe:__ZN5physx14NpRigidDynamicC2ERKNS_11PxTransformE
Gpo:_TimelineAsset_OnEnable_m2637967203
V3d:__Z27sweepCCTBox_HeightFieldGeomRKN5physx10PxGeometryERKNS_11PxTransformERKNS_2Gu3BoxERKNS_6PxVec3EfRNS_10PxSweepHitENS_7PxFlagsINS_9PxHitFlag4EnumEtEEf
u4:__ZL31InitializeAudioScriptingClassesv
Nbo:_DefaultComparer_GetHashCode_m3222058002_gshared
Iic:__Z14SortGUIByDepthP10GUIElementS0_
Byp:_Water2D_Sprite_GetMeshName_m1445702110
brd:__Z19UpdateProceduralTplIL27ParticleSystemCurveEvalMode0EEvRK20DualMinMaxPolyCurvesR23ParticleSystemParticlesPfRKN4math7_float4E
xjg:_U3CRemoveStencilMaterialU3Ec__AnonStorey2_U3CU3Em__0_m58963813
Gcl:_DoublePoint__ctor_m3515842228_AdjustorThunk
UX:__ZN12_GLOBAL__N_120ProcessRootMotionMixER33AnimationPlayableEvaluationOutputR35AnimationPlayableEvaluationConstantR32AnimationPlayableEvaluationInputS1_f
Vep:_UriParser__cctor_m3655686731
Q$d:__ZN5physx3Cct9SweepTest18updateTouchedGeomsEPKNS0_30InternalCBData_FindTouchedGeomERKNS0_13UserObstaclesERKNS_17PxExtendedBounds3ERKNS_19PxControllerFiltersERKNS_6PxVec3E
CSl:_Material_SetColor_m355160541
gOg:_U3CUpdateScreenSizeRoutineU3Ec__Iterator3_MoveNext_m2135513688
l3k:_LayoutRebuilder_U3Cs_RebuildersU3Em__0_m589488547
xyf:_PxCloseExtensions
dUb:__ZNK20LocalFileSystemPosix21GetAvailableDiskSpaceEPKcRy
cBa:__ZNSt3__26__treeIiNS_4lessIiEENS_9allocatorIiEEE7destroyEPNS_11__tree_nodeIiPvEE
$Ra:__ZNK9GfxDevice14GetWorldMatrixEv
YXn:_InvokableCall_2_Invoke_m3594767000_gshared
T9k:_Slider_get_value_m739683640
tSb:__Z19scripting_array_new17ScriptingClassPtrjj
hzm:_Convert_ToInt32_m2128774575
jba:__ZN11SoundHandle13CreateChannelEb
uzb:__ZN14SafeBinaryRead21TransferSTLStyleArrayI13dynamic_arrayI12LightmapDataLj4EEEEvRT_17TransferMetaFlags
uMa:__ZNSt3__26vectorIN9ShaderLab20SerializedSubProgram16TextureParameterENS_9allocatorIS3_EEE6assignIPS3_EENS_9enable_ifIXaasr21__is_forward_iteratorIT_EE5valuesr16is_constructibleIS3_NS_15iterator_traitsISA_E9referenceEEE5valueEvE4typeESA_SA_
Fhh:__Z132RuntimeInvoker_ScriptPlayable_1_t677256978_PlayableGraph_t3515989261_RuntimeObject_RuntimeObject_SByte_t1669577662_SByte_t1669577662PFvvEPK10MethodInfoPvPS4_
l$c:__Z51Quaternion_CUSTOM_INTERNAL_CALL_Internal_ToEulerRadRK11QuaternionfR8Vector3f
tkq:__ZN15dense_hashtableINSt3__24pairIK10KeyWrapperIPK22Il2CppGenericParameterEPK24MonoGenericParameterInfoEES6_N6il2cpp5utils11PointerHashIS4_EEN14dense_hash_mapIS6_SA_SF_NS6_14EqualsComparerINS0_8equal_toIS5_EEEENS0_9allocatorISB_EEE9SelectKeyESK_SM_E15set_deleted_keyERKSB_
ttj:_SByte_TryParse_m2431806379
Ezc:__ZN6prcoreL11inner_clearILj2EEEvPhjjj
fzk:_Dictionary_2_Do_CopyTo_TisDictionaryEntry_t3123975638_TisDictionaryEntry_t3123975638_m2909244099_gshared
Xuj:_DSACryptoServiceProvider_get_KeySize_m786836990
aMd:__ZN12b2WheelJoint24SolvePositionConstraintsERK12b2SolverData
Zy:__ZNK14NavMeshManager25GetLoadedNavMeshDataCountEv
CGe:__ZNK5physx2Sc9ClothCore20getNbCollisionPlanesEv
Li:_emscripten_exit_fullscreen
PWf:__ZN2UI11CanvasGroup23VirtualRedirectTransferER18StreamedBinaryReadILb0EE
Glf:__ZNK5physx13GuMeshFactory17getNbHeightFieldsEv
mBf:__ZN14PhysicsManager19CreateDynamicsSceneEbb14BroadphaseType16ContactPairsModeRK4AABBi
V0j:_Object_MemberwiseClone_m1474068832
Szq:__ZN6il2cpp6icalls8mscorlib6System6String19InternalAllocateStrEi
v8i:_TextMeshPro_UpdateGeometry_m2160729069
Snd:__Z29Transfer_Blittable_ArrayFieldI8JSONRead11QuaternionfEvRT_R9ArrayInfoRK23StaticTransferFieldInfo
eyl:_Array_SetValue_m282347242
T0e:__ZNK5physx2Gu12OBBAABBTestsILb1EEclENS_6shdfnd3aos5Vec3VES5_
zXc:__Z45Register_UnityEngine_Camera_get_targetDisplayv
EGc:__ZNK24RendererAnimationBinding15GenerateBindingERKN4core12basic_stringIcNS0_20StringStorageDefaultIcEEEEbRN11UnityEngine9Animation14GenericBindingE
kil:_Water2D_Simulation_ApplyLinearBuoyantForce_m1056790067
Zll:_IPv6Address__ctor_m3704187391
bjc:__Z15GetFlareManagerv
j$d:__ZN5physx3Cct9SweepTestD2Ev
kV:__ZN8Animator13GetAvatarRootEv
LPg:_U3CStartU3Ec__Iterator0_Reset_m2465163659
rio:_AnimationPlayableAsset__ctor_m3006714302
Ebc:__ZNSt3__26vectorI10vector_mapIiiNS_4lessIiEE13stl_allocatorINS_4pairIiiEEL18MemLabelIdentifier38ELi16EEES4_IS9_LS7_38ELi16EEE26__swap_out_circular_bufferERNS_14__split_bufferIS9_RSA_EE
CUl:_Mesh_set_uv_m1258646872
EDk:_BigInteger_get_Rng_m3283260184
GWh:__ZL110WebProxy_t2016760542_CustomAttributesCacheGenerator_WebProxy_t2016760542____UseDefaultCredentials_PropertyInfoP21CustomAttributesCache
U$:__ZN8Animator22ScriptingStringToCRC32ERK11ICallString
WX:__ZN7mecanim9animation16EvaluateAvatarDXEPKNS0_14AvatarConstantEPKNS0_11AvatarInputEPNS0_12AvatarMemoryEPNS0_15AvatarWorkspaceEPNS0_12AvatarOutputE
q4a:__ZN4gles20DestroyRenderSurfaceEP7ApiGLESP17RenderSurfaceGLES
JBk:_Array_InternalArray__get_Item_TisKeyValuePair_2_t2530217319_m2886833132_gshared
m8k:_ScrollRect_OnEndDrag_m3202230060
KNc:__ZN11PlayerPrefs6SetIntERKN4core12basic_stringIcNS0_20StringStorageDefaultIcEEEEi
u4c:__Z34Transform_CUSTOM_SetAsFirstSiblingP12Il2CppObject
Kzd:__ZN21RotationBySpeedModule8TransferI19StreamedBinaryWriteILb0EEEEvRT_
hBg:_WarpTextExample_Start_m647679331
PZl:_PlayableOutputHandle_GetSourcePlayable_m2468291954_AdjustorThunk
y0k:_InputField_Delete_m3471899192
_Dj:_RemotingConfiguration_get_ProcessId_m2180277012
Zva:__ZN17PersistentManager40GlobalToLocalSerializedFileIndexInternalERK26SerializedObjectIdentifier
Uia:__ZN11UnityEngine15CloudWebService17SessionEventQueue14ParseEventDataERKN4core12basic_stringIcNS2_20StringStorageDefaultIcEEEE
cFl:_SynchronizedArrayListWrapper_InsertRange_m2374130561
O6f:__ZN8MediaAPI8Playback6UpdateEv
Oxe:__ZN12GeomQueryAnyIN5physx10PxSweepHitEE7geomHitERKNS0_2Sq17SceneQueryManagerERKNS0_15MultiQueryInputERKNS3_9ShapeDataERKNS0_10PxGeometryERKNS0_11PxTransformENS0_7PxFlagsINS0_9PxHitFlag4EnumEtEEjPS1_fbPNS0_9PxBounds3E
r2m:_Transform_1_BeginInvoke_m4058251461_gshared
zXa:__ZN13TranslateGLES4InitERK12GraphicsCaps16GfxDeviceLevelGL
l2d:__ZN43CapsuleHeightfieldContactGenerationCallback7onEventEjPj
qKc:__ZN8Playable17SetScriptInstanceE18ScriptingObjectPtr
luf:__ZThn4_N12MemoryStream4readEPvj
Ucm:_Int64_System_IConvertible_ToUInt16_m848637338_AdjustorThunk
NYk:_Array_InternalArray__IndexOf_TisLink_t544317964_m455584088_gshared
QFn:_ReadOnlyCollection_1_IndexOf_m2539022912_gshared
rpp:_GUILayoutGroup__ctor_m3245996524
ccg:_TMP_Text_set_fontSize_m1834527676
dMq:__ZN6il2cpp2os6Memory12AlignedAllocEjj
b9l:_SortKey__ctor_m2034425682
Zal:_Text_set_alignByGeometry_m3828822280
X$m:_Enumerator_MoveNext_m2570769303_AdjustorThunk
fYi:_ProCamera2DRooms_TestRoom_m3100297643
OAl:_Byte_System_IConvertible_ToType_m2251112646_AdjustorThunk
bjl:_HybridDictionary__ctor_m1681134385
VA:__ZN13sorted_vectorINSt3__24pairIiN14NavMeshManager15SurfaceInstanceEEEN10vector_mapIiS3_NS0_4lessIiEE13stl_allocatorIS4_L18MemLabelIdentifier76ELi16EEE13value_compareESA_E14find_or_insertIiS3_EEvRPT0_RKT_
Ang:_TMP_Text_set_color_m3503456592
Kua:__ZN21ScalableBufferManager11GetInstanceEv
S6b:__Z18Transfer_BlittableI18StreamedBinaryReadILb0EELb1E10ColorRGBAfEvRK29SerializationCommandArgumentsR31RuntimeSerializationCommandInfo
NTc:__ZL27GetComponentsImplementationILb0ELi0EEbR10GameObjectbRK17CompareParametersRK39GetComponentsImplementation_ReturnValue
MWp:_Canvas_get_worldCamera_m3516267897
mac:__ZN9Scripting36IsSystemCollectionsGenericDictionaryE17ScriptingClassPtr
FBp:_UnityEvent_1_FindMethod_Impl_m322741469_gshared
kTl:_Mathf_LerpAngle_m295352085
ywe:__ZN5physx12NpConstraint12actorDeletedEPNS_12PxRigidActorE
Eon:_List_1_System_Collections_IList_Remove_m1174240370_gshared
Dta:__ZL16ReadTypeTreeImplILb0EEbR8TypeTreeRK16TypeTreeIteratorRPKhS6_i
e8o:_Interval_Contains_m110351300_AdjustorThunk
Cgl:_ShaderParam__ctor_m3922082628
wH:__ZN25RuntimeAnimatorControllerD2Ev
iLc:__Z28PlayableOutputValidityChecksRK15HPlayableOutput
DDm:_DateTimeOffset_Equals_m3030958070
lvg:_RoomsEventsExample_FinishedRoomTransition_m1706294175
ife:__ZN5physx2Sc8ShapeSim18reinsertBroadPhaseEv
Nqb:__ZNK22BuiltinResourceManager21GetResourceInstanceIDEPKN5Unity4TypeERKN4core12basic_stringIcNS4_20StringStorageDefaultIcEEEE
ZZc:__Z42Register_UnityEngine_RectOffset_set_bottomv
mcg:_TMP_InputField_set_textComponent_m3164657131
BKd:__ZN10Effector2D5ResetEv
NPk:_Array_InternalArray__ICollection_Contains_TisConstantShakeLayer_t1896703246_m1602248314_gshared
_j:_JS_Video_Height
v7l:_DateTimeFormatInfo_GetMonthName_m2034512315
Nkc:__ZN28LightProbeProxyVolumeContext8CopyFromERKS_
YIn:_ReadOnlyCollection_1_System_Collections_Generic_IListU3CTU3E_Insert_m2489506856_gshared
nza:__ZN23TransformChangeDispatch32QueueTransformChangeIfHasChangedER18TransformHierarchy
Cag:__ZN11VideoPlayer8TransferI14SafeBinaryReadEEvRT_
mSq:__ZNSt3__213basic_ostreamIcNS_11char_traitsIcEEE6sentryD2Ev
RTl:_Matrix4x4_MultiplyPoint_m1575665487
r4a:__ZN7ApiGLES18DeleteRenderbufferERj
Uie:__ZN5physx6shdfnd5ArrayIPvNS0_15InlineAllocatorILj256ENS0_19ReflectionAllocatorINS_16NpConnectorArrayEEEEEE15growAndPushBackERKS2_
V2a:__ZL23ProgramUniformMatrix4fvPK7ApiGLESjiihPKv
A4a:__ZN7ApiGLES13CreateTextureEjj14GraphicsFormatiiiii
Pyl:_Array_new_gap_m262136975
E8e:__ZN5physx14SingleAABBTaskC2Ev
oZ:__ZN10AvatarMaskD2Ev
_La:__ZN9ShaderLab20SerializedSubProgram15MatrixParameter8TransferI14SafeBinaryReadEEvRT_
lk:_JS_Video_Width
tjn:_Enumerator_System_Collections_IEnumerator_get_Current_m1846615603_gshared
PTc:__ZL27GetComponentsImplementationILb0ELi1EEbR10GameObjectbRK17CompareParametersRK39GetComponentsImplementation_ReturnValue
Apl:_X509Store__ctor_m275383717
AGn:_ReadOnlyCollection_1_System_Collections_Generic_ICollectionU3CTU3E_Clear_m2844161457_gshared
cxn:_SimpleCollator_LastIndexOfOrdinalIgnoreCase_m2984667899
nqf:__ZN5physx12storeIndicesEjjPKjRNS_14PxOutputStreamEb
m5a:__ZN13RenderTexture7ReleaseEv
pld:__Z18Transfer_BlittableI8JSONReadLb1EN4math12int3_storageEEvRK29SerializationCommandArgumentsR31RuntimeSerializationCommandInfo
qGb:__ZN10MeshFilter23VirtualRedirectTransferER14SafeBinaryRead
s1d:__ZNK5physx2Cm23FastVertex2ShapeScaling20transformQueryBoundsERNS_6PxVec3ES3_RNS_7PxMat33E
n1p:__ZN6il2cpp2vmL10InitLockedEP11Il2CppClassRKNS_2os12FastAutoLockE
ZLg:_ProCamera2D_set_CameraTargetPositionSmoothed_m1445577450
f8a:__ZN22CreateGpuProgramOutput12CreateParamsEv
F5:__ZN10ObjectPoolIN4FMOD7ChannelENS0_8ChannelIEE7GetFreeEi
y5j:_DynamicMethod_IsDefined_m2556354904
f4i:_ZoomDemo_Update_m2384283510
pte:__ZNK5physx18NpArticulationLink11getChildrenEPPNS_18PxArticulationLinkEj
Qng:_TMP_Text_set_faceColor_m1548461483
pXa:__ZNK14GfxContextGLES13GetDefaultFBOEv
NAl:_Byte_System_IConvertible_ToType_m2251112646
cGq:_GC_promote_black_lists
Mw:__ZN22NavMeshProjectSettings8TransferI18StreamedBinaryReadILb0EEEEvRT_
teh:__Z81RuntimeInvoker_Char_t3634460470_RuntimeObject_Int32_t2950945753_Int16_t2552820387PFvvEPK10MethodInfoPvPS4_
Zgf:__Z15atomIntegrationfPKPN5physx11PxsBodyCoreEPKPNS_12PxsRigidBodyEjPKNS_2Cm13SpatialVectorEPNS_13PxcSolverBodyEPNS_17PxcSolverBodyDataEPS9_RjSH_
rCm:_DateTime_get_Hour_m4153505178_AdjustorThunk
Qcc:__ZN14GraphicsHelper5ClearE13GfxClearFlagsRK10ColorRGBAffjR17ShaderPassContext
Rnm:_Evidence_Equals_m1478353107
jPe:__ZN5physx13NpRigidStatic11createShapeERKNS_10PxGeometryEPKPNS_10PxMaterialEtNS_7PxFlagsINS_11PxShapeFlag4EnumEhEE
oNc:__Z13GetImagePixelI10ColorRGBAfET_PKhii13TextureFormat15TextureWrapModeS5_ii
mTo:_List_1_System_Collections_IList_set_Item_m1842844683_gshared
_pq:__ZN6il2cpp2vm6Thread49CheckCurrentThreadForInterruptAndThrowIfNecessaryEv
GYl:_PlayableHandle_Play_m1724482288
Wxa:__ZNSt3__23mapIN9ShaderLab16FastPropertyNameEN18UnityPropertySheet11UnityTexEnvENS_4lessIS2_EENS_9allocatorINS_4pairIKS2_S4_EEEEEixERS9_
u3a:__ZNK13TranslateGLES25GetTextureTargetDimensionEj
Wme:__ZN5physx11NpAggregate22removeActorAndReinsertERNS_7PxActorEb
IAg:_VertexShakeB_OnDisable_m1594553736
eOo:_ReadOnlyCollection_1_System_Collections_IList_Remove_m1842121503_gshared
zof:__ZZL19ExtractHullPolygonsRjRN5physx2Gu9ContainerERKNS0_17ConvexHullBuilderEPS2_S3_EN5Local9FloodFillES3_PKNS0_11AdjTriangleEjPb
tYp:_CapsuleCollider_get_radius_m3672925813
cgm:_File_OpenRead_m2936789020
b3c:__Z47Texture2D_CUSTOM_INTERNAL_CALL_GetPixelBilinearP12Il2CppObjectffR10ColorRGBAf
ara:__ZN9Scripting12LogExceptionE21ScriptingExceptionPtriPKcb
fkl:_NameObjectCollectionBase_BaseGetKey_m2677971642
B8g:__Z94RuntimeInvoker_Void_t1185182177_RuntimeObject_PlayableGraph_t3515989261_RuntimeObject_IntPtr_tPFvvEPK10MethodInfoPvPS4_
Sk:_emscripten_glVertexAttrib4f
Aon:_List_1_System_Collections_IList_Add_m4256379658_gshared
EGm:_StackTrace_init_frames_m641783388
CQj:_TypeDelegator_IsPointerImpl_m458295709
mrg:_TMP_Text_RestoreWordWrappingState_m2604644996
XPa:__ZNSt3__26vectorIN20GpuProgramParameters14ConstantBufferENS_9allocatorIS2_EEE8__appendEj
iql:_X509CertificateCollection_AddRange_m3683116910
MSn:_Predicate_1_Invoke_m2315049893_gshared
jr:FUNCTION_TABLE_vf
Epe:__ZN5physx14NpArticulation26setMaxProjectionIterationsEj
sbe:__ZN5physx3Cct15ObstacleContext14removeObstacleEj
u3j:_CustomAttributeTypedArgument_Equals_m2261980307
jT:__ZN7mecanim12statemachine24CreateStateMachineMemoryEPKNS0_20StateMachineConstantERNS_6memory9AllocatorE
LBk:_Array_InternalArray__get_Item_TisLink_t544317964_m1669566993_gshared
HUa:__ZN9GfxDevice18SetGlobalDepthBiasEff
Eaq:__ZN6il2cpp6icalls8mscorlib6System8MonoType12get_AssemblyEP20Il2CppReflectionType
u5p:__ZN14dense_hash_mapI10KeyWrapperIN6il2cpp5utils13dynamic_arrayIPK10Il2CppTypeLj4EEEEPFvvENS1_8metadata19Il2CppSignatureHashENS8_14EqualsComparerINSB_22Il2CppSignatureCompareEEENSt3__29allocatorINSG_4pairIKS8_SA_EEEEEixERSJ_
el:_emscripten_glGetPointerv
vwk:_Array_Sort_TisSingle_t1397266774_TisSingle_t1397266774_m1233431437_gshared
JX:__ZN8Animator22ApplyBuiltinRootMotionEv
_cc:__Z26ApplyMaterialPassWithCacheRK18SharedMaterialDataR17ShaderPassContextP6ShaderPN9ShaderLab4PassEibPKNS6_10GrabPassesEPNS6_11SubProgramsEPK22DeviceRenderStateBlock
cxf:__ZN5physx7profile8ZoneImplINS_28PxProfileNameProviderForwardEE17handleBufferFlushEPKhj
DUq:__ZNKSt3__28time_getIcNS_19istreambuf_iteratorIcNS_11char_traitsIcEEEEE11do_get_yearES4_S4_RNS_8ios_baseERjP2tm
Tme:__ZN5physx2Sc5ActorC2ERNS0_16InteractionSceneEhNS0_14IslandNodeInfo4TypeE
oue:__ZN5physx12PxsRigidBody23updatePoseDependenciesVERNS_10PxsContextE
pjk:_InternalEnumerator_1_get_Current_m1897120917_AdjustorThunk
m_j:_MonoType_ReorderParamArrayArguments_m2458683451
nFj:_FormatterConverter_ToInt16_m4282804414
l_g:__Z81RuntimeInvoker_Void_t1185182177_Int64_t3736567304_RuntimeObject_Int64_t3736567304PFvvEPK10MethodInfoPvPS4_
Ofj:_StandaloneInputModule_ProcessTouchPress_m4019232747
Vfm:_FileStream__ctor_m3151488352
Oyl:_Array_swap_m547389985
WA:__ZNSt3__26vectorINS_4pairIiN14NavMeshManager15SurfaceInstanceEEE13stl_allocatorIS4_L18MemLabelIdentifier76ELi16EEE6insertENS_11__wrap_iterIPKS4_EERSA_
lUm:_UInt32_ToString_m2420423038
sA:__ZNSt3__27__sort5IR17DetailNodeXSorterP16DetailMeshBVNodeEEjT0_S5_S5_S5_S5_T_
Xcm:_Int64_System_IConvertible_ToUInt64_m2815650160
Bgm:_FileStream_get_Length_m426703983
eGe:__ZN5physx2Sc9ClothCore16setRestPositionsEPKNS_6PxVec4E
tmf:__ZN5physx2Gu12TriangleMesh4loadERNS_13PxInputStreamE
fyc:__ZL13MotionHandleriPK27EmscriptenDeviceMotionEventPv
N9:__ZN18AudioMixerSnapshot8TransferI24GenerateTypeTreeTransferEEvRT_
Dnk:_InternalEnumerator_1_get_Current_m3993227736_AdjustorThunk
a4:__ZN12AudioManager5ResetEv
_Jc:__ZN15DirectorManager18ScheduleGraphStartERK14HPlayableGraph
G1a:__ZN6prcoreL17RemapGenericFloatI17TexFormatRGBAHalf15TexFormatRGHalfEEvPKNS_9InnerInfoE
qYm:_Enumerator_Reset_m576306132_gshared
Lmk:_InternalEnumerator_1_System_Collections_IEnumerator_get_Current_m629296715_gshared
$Bq:__ZN6il2cpp6icalls8mscorlib6System11Environment20GetWindowsFolderPathEi
CDn:_ReadOnlyCollection_1_System_Collections_Generic_IListU3CTU3E_set_Item_m2921615109_gshared
$qg:_TMP_Text_GetPreferredValues_m2493126622
GIf:_UNITY_FT_Stream_ReadFields
ZR:__ZN7mecanim5human18HumanPoseBlendNodeERNS0_9HumanPoseEPS1_f
Cqo:_TimelineClipCapsExtensions_HasAny_m2213396899
aIf:_UNITY_FT_RoundFix
WIq:_GC_is_heap_ptr
fM:__Z14resize_trimmedINSt3__26vectorI24CompressedAnimationCurve13stl_allocatorIS2_L18MemLabelIdentifier26ELi16EEEEEvRT_j
V9f:__ZN16VideoPlaybackMgrD2Ev
c4d:__ZNK5physx2Gu15HeightFieldUtil12traceSegmentI24ConvexVsHeightfieldSweepLb0ELb0ELb1EEEvRKNS_6PxVec3ES6_PT_PS5_
ozn:_ASN1_DecodeTLV_m1200977460
xca:__ZNK18AudioMixerPlayable11DerivesFromE17ScriptingClassPtr
ilf:__ZNK5physx12PxConvexMesh19getConcreteTypeNameEv
aJn:_ReadOnlyCollection_1_System_Collections_Generic_IListU3CTU3E_set_Item_m1584697503_gshared
CGb:__ZNK12MeshRenderer22GetTypeVirtualInternalEv
gCl:_Char_System_IConvertible_ToUInt32_m3901815580
r6k:_Scrollbar_set_onValueChanged_m346467699
iYd:__ZN13ProduceHelperI13BoxCollider2DLb0EE7ProduceE10MemLabelId18ObjectCreationMode
Iij:_ColorBlock_set_disabledColor_m2996580094
D4d:__ZN5physx2Gu19gjkLocalPenetrationINS0_9TriangleVENS0_17ShrunkConvexHullVEEEjRKT_RKT0_RKNS_6shdfnd3aos6FloatVERNSB_5Vec3VESG_SG_RSC_PhSI_Rhb
S0g:__Z157RuntimeInvoker_Int32_t2950945753_RuntimeObject_Int32_t2950945753_Int32_t2950945753_Int32_t2950945753_SByte_t1669577662_SByte_t1669577662_Int32U26_t1369213839PFvvEPK10MethodInfoPvPS4_
I6:__ZN4FMOD6System17setSoftwareFormatEi17FMOD_SOUND_FORMATii18FMOD_DSP_RESAMPLER
j6d:__ZN5physx2Gu15GJKLocalRayCastERNS0_9TriangleVERNS0_4BoxVERKNS_6shdfnd3aos6FloatVERKNS6_5Vec3VESC_RS7_RSA_SE_fb
gfe:__ZN5physx2Sc13ShapeIterator4initERKNS0_8ActorSimE
BKa:__ZN14SafeBinaryRead19TransferSTLStyleMapINSt3__23mapIN4core12basic_stringIcNS3_20StringStorageDefaultIcEEEES7_NS1_4lessIS7_EE13stl_allocatorINS1_4pairIKS7_S7_EEL18MemLabelIdentifier1ELi16EEEEEEvRT_17TransferMetaFlags
hYf:__ZN2UI6Canvas27UpdateEventIndexesRecursiveERi
HQ:__ZN7mecanim9animation18EvaluateRootMotionERKNS0_18ClipMuscleConstantERKNS0_15ClipMuscleInputEPKfS8_RNS0_12MotionOutputEb
_ia:__ZN11UnityEngine15CloudWebService16SessionContainer21PrepareDataErrorEventERN4core12basic_stringIcNS2_20StringStorageDefaultIcEEEE
ddj:_ExecuteEvents_get_pointerUpHandler_m3515704212
gDl:_ArrayList_set_Item_m2003485935
by:__ZNK12NavMeshQuery9GetUpAxisEyP8Vector3f
Xej:_MouseButtonEventData_PressedThisFrame_m1060658845
Lro:_TimeUtility_TimeAsTimeCode_m884203192
_2b:__Z19TransferField_ArrayI19StreamedBinaryWriteILb0EE27Converter_SimpleNativeClassI8GUIStyleEEvRK23StaticTransferFieldInfoR31RuntimeSerializationCommandInfoRT0_
xOo:_ReadOnlyCollection_1_System_Collections_Generic_IListU3CTU3E_RemoveAt_m3969985996_gshared
mlp:_TMP_TextInfo_ClearMeshInfo_m1632088392
XTf:__ZN20TextRenderingPrivate8TextMesh23VirtualRedirectTransferER18StreamedBinaryReadILb0EE
eBe:__ZN5physx14NpArticulationC2Ev
wbr:_emscripten_glCopyTexSubImage2D__wrapper
Qnj:_GraphicRegistry_GetGraphicsForCanvas_m4219276355
Jzp:_WaterSettings_SetSegmentsToUnits_m3235853040
xC:__ZNK12NavMeshQuery19GetPolyWallSegmentsEyPK11QueryFilterP8Vector3fPyPii
k$j:_NumberFormatter_FastToDecHex_m699829267
z9o:_PatternCompiler_MakeFlags_m1977119795
dld:__Z35Transfer_Blittable_FixedBufferFieldI8JSONReadiEvRK29SerializationCommandArgumentsR31RuntimeSerializationCommandInfo
T5n:_Dictionary_2_TryGetValue_m3167860287_gshared
Ivd:__ZN22ParticleSystemRenderer16UpdateCachedMeshEv
Ica:__ZNK19AudioPlayableOutput11DerivesFromE17ScriptingClassPtr
UEh:__ZL48_Type_t3588564251_CustomAttributesCacheGeneratorP21CustomAttributesCache
ibd:__ZN16PlayableDirector17MainThreadCleanupEv
Yxd:__ZN12LightsModule8TransferI24GenerateTypeTreeTransferEEvRT_
Jd:invoke_viiffi
Rvc:__ZN13sorted_vectorINSt3__24pairIN4core12basic_stringIcNS2_20StringStorageDefaultIcEEEEPK17MessageIdentifierEEN10vector_mapIS6_S9_NS0_4lessIS6_EENS0_9allocatorISA_EEE13value_compareESF_E10insert_oneERKSA_
I0n:_Array_InternalArray__ICollection_CopyTo_TisContentType_t1787303396_m2935750720_gshared
HRj:_ResourceSet_ReadResources_m3663669011
dTl:_Mathf_CeilToInt_m432108984
Brp:_SliderHandler_MousePosition_m984507596_AdjustorThunk
YMa:__Z14resize_trimmedINSt3__26vectorIN9ShaderLab18SerializedPropertyENS0_9allocatorIS3_EEEEEvRT_j
MEd:__Z20UpdateWholeSheet2TplIL27ParticleSystemCurveEvalMode3ELS0_3EEvfRK11MinMaxCurveS3_RK23ParticleSystemParticlesPf
sSe:__ZN5physx6shdfnd8PoolBaseINS_2Sc9ActorPairENS0_19ReflectionAllocatorIS3_EEE12allocateSlabEv
w6p:__ZN6il2cpp2vm13MetadataCache38GetMethodInfoFromMethodDefinitionIndexEi
Qbj:_EventSystem_set_current_m38955169
Hao:_Dictionary_2_Remove_m856705767_gshared
wDo:_Collection_1_System_Collections_IList_Add_m3550619379_gshared
rhg:_TMP_InputField_OnEndDrag_m4027592099
Opi:__ZL53Selectable_t3250028441_CustomAttributesCacheGeneratorP21CustomAttributesCache
B8o:_CostDelegate_EndInvoke_m2797921932
mCb:__ZN10VertexData8TransferI24GenerateTypeTreeTransferEEvRT_
HAp:_UnityAction_2_Invoke_m3803176137_gshared
jwm:_Double_IsInfinity_m820013146
k8p:__ZN6il2cpp2vm13MetadataCache27GetIndexForGenericParameterEPK22Il2CppGenericParameter
Otj:_CryptographicException__ctor_m503735289
O2i:_SwitchCameraProjection_OnGUI_m42449127
Y3l:_Screen_get_dpi_m495672463
xMm:_UTF8Encoding_InternalGetByteCount_m2120178851
uwp:_Vector3__ctor_m1719387948
Kqc:__ZL10CullLightsRK22SceneCullingParametersR11CullResults
R$k:_InputField_SendOnSubmit_m3463846103
zHg:_BballLevelScriptEnd_Update_m2160146266
sng:_TMP_Text_set_fontSharedMaterial_m3871592656
U$p:_MainModule_SetStartLifetimeMultiplier_m3747684520
dYl:_PlayableHandle_GetInputHandle_m1396719627
eT:__ZN7mecanim12statemachine20GetBlendTreeConstantERKNS0_13StateConstantEi
Qer:b213
Per:b212
vTe:__ZN5physx7NpScene21setDominanceGroupPairEhhRKNS_20PxDominanceGroupPairE
Ner:b210
Icm:_Int64_System_IConvertible_ToInt16_m4062196970_AdjustorThunk
L_j:_MonoType_GetGenericTypeDefinition_m3201894896
zzc:__Z40GetTemporaryCachePathApplicationSpecificv
Rer:b214
NSa:__ZN9GfxDevice16EndAsyncJobFrameEv
rfh:__Z99RuntimeInvoker_Int32_t2950945753_Ray_t3785851493_RuntimeObject_Single_t1397266774_Int32_t2950945753PFvvEPK10MethodInfoPvPS4_
Wer:b218
SKf:_UNITY_tt_face_load_hhea
kn:___syscall3
bUq:__ZNKSt3__27num_putIcNS_19ostreambuf_iteratorIcNS_11char_traitsIcEEEEE6do_putES4_RNS_8ios_baseEcPKv
Fbh:__Z135RuntimeInvoker_RaycastHit2D_t2279581989_Vector2_t2156229523_Vector2_t2156229523_Single_t1397266774_Int32_t2950945753_Single_t1397266774PFvvEPK10MethodInfoPvPS4_
nn:___syscall6
pn:___syscall4
Zja:__ZN11UnityEngine15CloudWebService20WebRequestRestClient17GetResponseStatusEv
nCj:_ReturnMessage__ctor_m2352989078
sKd:__ZN14AreaEffector2D8TransferI14SafeBinaryReadEEvRT_
ycq:__ZN6il2cpp2vm7Runtime9SetConfigEPKc
_Ub:__ZNSt3__26__treeINS_12__value_typeIN4core12basic_stringIcNS2_20StringStorageDefaultIcEEEEPN16MemoryFileSystem4NodeEEENS_19__map_value_compareIS6_SA_NS_4lessIS6_EELb1EEE13stl_allocatorISA_L18MemLabelIdentifier55ELi16EEE7destroyEPNS_11__tree_nodeISA_PvEE
kyq:__ZN6il2cpp2vm3RCW14QueryInterfaceILb1EEEP14Il2CppIUnknownP15Il2CppComObjectRK10Il2CppGuid
eKk:_TlsServerCertificateRequest__ctor_m1334974076
LQd:__ZNSt3__26__sortIR24RayHitsByDepthComparitorP12RaycastHit2DEEvT0_S5_T_
fjq:__ZNK15dense_hashtableINSt3__24pairIK10KeyWrapperINS1_IPK9EventInfoP11Il2CppClassEEEjEES9_17ReflectionMapHashIS8_EN14dense_hash_mapIS9_jSD_NS9_14EqualsComparerINS0_8equal_toIS8_EEEENS0_9allocatorISB_EEE9SelectKeyESI_SK_E5beginEv
dzm:_Convert_ToInt32_m1613163543
b4k:_MatEntry__ctor_m1949610076
_Tc:__ZN9Scripting25BroadcastScriptingMessageER10GameObjectPKc18ScriptingObjectPtr
En:_emscripten_glShaderBinary
qom:_String_op_Inequality_m215368492
sTm:_UInt16_ToString_m760649087
XTb:__ZNK20LocalFileSystemPosix6ExistsERK13FileEntryData
Zke:__ZN5physx35NpArticulationJointGetBodiesFromScbERNS_3Scb17ArticulationJointERPNS0_4BodyES5_
Dkf:__ZNK5physx2Sc15ClothFabricCore16getTetherLengthsEPfj
QId:__ZN7Joint2D10DeactivateE19DeactivateOperation
pNf:_UNITY_TT_Get_HMetrics
DQm:_TimeSpan_op_Inequality_m2467851530
Hjg:_TMP_MeshInfo_ResizeMeshInfo_m3721085097
x5b:__ZN17AnimationCurveTplIfE8TransferI18StreamedBinaryReadILb1EEEEvRT_
gxk:_Array_Sort_TisUIVertex_t4057497605_m3996333845_gshared
f2f:__ZN18UnityConnectClientD2Ev
Rsj:_SByte_System_IConvertible_ToDouble_m2381680501
gzl:_Swapper_BeginInvoke_m1688449973
ANl:_Display_get_renderingWidth_m1970428952
kYe:__ZN5physx2Sc13ConstraintSim8getForceERNS_6PxVec3ES3_
ovq:__ZNK24NamespaceAndNamePairHashclERKNSt3__24pairIPKcS3_EE
t2g:__Z81RuntimeInvoker_Void_t1185182177_RuntimeObject_Int32_t2950945753_Int64_t3736567304PFvvEPK10MethodInfoPvPS4_
Bta:__ZN13dynamic_arrayIcLj1EE6insertEPcPKcS3_
F2n:_Array_InternalArray__set_Item_TisConstantShakeLayer_t1896703246_m2194330235_gshared
R_g:__Z86RuntimeInvoker_Boolean_t97287965_Int16_t2552820387_Int16_t2552820387_Int32_t2950945753PFvvEPK10MethodInfoPvPS4_
S$d:__ZN5physx15PxGeometryQuery18computePenetrationERNS_6PxVec3ERfRKNS_10PxGeometryERKNS_11PxTransformES6_S9_
JDp:_IndexedSet_1_IndexOf_m241693686_gshared
iC:__ZNK12NavMeshQuery14RetracePortalsEiiPKyiRK8Vector3fPS2_PhPyi
k1f:__ZN11UnityEngine15PlatformWrapper30GetGraphicsDriverLibraryStringEv
wsj:_RuntimeMethodHandle_Equals_m3301340296_AdjustorThunk
tFg:_U3CMoveAfterU3Ec__Iterator1_Reset_m2866093608
JUm:_UInt64_System_IConvertible_ToSingle_m925613075_AdjustorThunk
QBf:__ZN5Unity12PhysicsQueryC2Ev
T6b:__Z18Transfer_BlittableI18StreamedBinaryReadILb0EELb0E4AABBEvRK29SerializationCommandArgumentsR31RuntimeSerializationCommandInfo
dNb:__ZN24GenerateTypeTreeTransfer19TransferSTLStyleMapINSt3__28multimapIN4core12basic_stringIcNS3_20StringStorageDefaultIcEEEE4PPtrI6ObjectENS1_4lessIS7_EE13stl_allocatorINS1_4pairIKS7_SA_EEL18MemLabelIdentifier52ELi16EEEEEEvRT_17TransferMetaFlags
OZ:__ZN16MecanimAnimation24DeleteAnimatedPropertiesERP26IAnimatedPropertyEvaluator
jzk:_Dictionary_2_Do_ICollectionCopyTo_TisKeyValuePair_2_t2245450819_m216493345_gshared
DXp:_CanvasRenderer_SetMaterial_m824577244
Kxd:__ZN11ColorModule8TransferI24GenerateTypeTreeTransferEEvRT_
shc:__Z14DrawGUITextureRK5RectTIfEP7Texture11ColorRGBA32P8Materiali
tOo:_ReadOnlyCollection_1_System_Collections_Generic_ICollectionU3CTU3E_Add_m2686599243_gshared
uW:__ZN9BlobWrite8TransferI22OffsetPtrArrayTransferIKN4math7_float4EEEEvRT_PKc17TransferMetaFlags
fic:__ZN22RenderingCommandBuffer20ExecuteCommandBufferER17ShaderPassContextR15RenderNodeQueuejP13dynamic_arrayINSt3__24pairIN9ShaderLab16FastPropertyNameEP13RenderTextureEELj4EE16ComputeQueueTypeSA_
dvp:_Transform_IsChildOf_m224006092
Msb:__ZN15TextureSettings8TransferI24GenerateTypeTreeTransferEEvRT_
OOj:_MonoProperty_get_PropertyType_m4138957578
Okd:__ZN9JSONWrite8TransferI4AABBEEvRT_PKc17TransferMetaFlags
kYq:__ZNKSt3__25ctypeIcE10do_toupperEc
gfb:__ZN25MultiBlocksMemoryFileData9SetLengthEy
Rhk:_InternalEnumerator_1_get_Current_m3191242573_AdjustorThunk
Ggp:_Joystick_UpdateVirtualAxes_m1439422241
z3l:_Scene_Equals_m581999093
Khf:__ZNK18ScBeforeSolverTask7getNameEv
qSd:__ZN10Collider2D13AwakeFromLoadE17AwakeFromLoadMode
LA:__ZN12CrowdManager11AddObstacleEv
zFp:_Aes__ctor_m178909601
Kxb:__ZNK9Texture2D20GetRuntimeMemorySizeEv
F5c:__ZN11Marshalling39CreateNullExceptionForUnityEngineObjectE18ScriptingObjectPtr
U4e:__ZN5physx14solve1D4_BlockEPKNS_23PxcSolverConstraintDescEjRNS_16PxcSolverContextE
Ugd:__ZN5Unity9rapidjson13GenericReaderINS0_4UTF8IcEES3_13JSONAllocatorE9ParseTrueILj0ENS0_19GenericStringStreamIS3_EENS0_15GenericDocumentIS3_S4_S4_EEEEvRT0_RT1_
Oo:_emscripten_glUniform2iv
lrd:__ZN13InitialModule18SetInheritedParamsERK11ColorRGBA32RK8Vector3fS5_S5_fj
p0d:__ZL33GeomMTDCallback_ConvexHeightFieldRN5physx6PxVec3ERfRKNS_10PxGeometryERKNS_11PxTransformES5_S8_
xFf:_UNITY_FT_Outline_Transform
T2c:__Z60Register_UnityEngine_Sprites_DataUtility_Internal_GetMinSizev
Q1p:__ZN6il2cpp2vm5Class10GetMethodsEP11Il2CppClassPPv
k7c:__Z45Register_UnityEngine_Mesh_get_bounds_Injectedv
Imc:__Z30AddDefaultStreamsToMeshBuffersR9GfxDeviceR11MeshBuffersRK16DrawBuffersRange17ShaderChannelMaskS6_
xod:__Z43ParticleSystemRenderer_RenderMultipleMeshesIL21SpriteMaskInteraction1EEvRK15RenderNodeQueueRK18RenderMultipleData17ShaderChannelMask
UFo:_Collection_1_Remove_m2753163259_gshared
F3a:__ZN7ApiGLES17DeleteFramebufferERN2gl6HandleILNS0_10ObjectTypeE9EEES3_
h7a:__ZN15UniformTFMethod13MapBoneBufferEj
cXf:__ZN2UI14CanvasRendererD2Ev
cCk:_Array_InternalArray__get_Item_TisParameterModifier_t1461694466_m29553316_gshared
UWc:__Z45Register_UnityEngine_Camera_set_nearClipPlanev
MLj:_FieldInfo_internal_from_handle_type_m3256989094
A6i:_MaterialReferenceManager_AddSpriteAssetInternal_m3580901937
G8p:_VideoPlayer_InvokeClockResyncOccurredCallback_Internal_m1660582043
$9e:__ZN5physx26PxcPCMContactCapsuleConvexERKNS_2Gu13GeometryUnionES3_RKNS_11PxTransformES6_RKfRNS_10PxcNpCacheERNS0_13ContactBufferE
HRo:_List_1_CheckCollection_m3711330965_gshared
Ybc:__Z9SetupArgviPPKc
yzm:_Convert_ToInt64_m2075031821
ePm:_Scheduler__cctor_m4042462055
mbd:__ZN16PlayableDirector23VirtualRedirectTransferER19StreamedBinaryWriteILb0EE
xcr:_glTexParameteri__wrapper
Xne:__ZN5physx10PxsContext17addParticleSystemEPNS_15PxsParticleDataERKNS_26PxvParticleSystemParameterEb
Tle:__ZN5physx3Scb5Scene13addRigidNoSimINS0_4BodyELb1ELb1EEEvRT_RNS0_13ObjectTrackerE
Lwb:__ZN12CubemapArray23VirtualRedirectTransferER24GenerateTypeTreeTransfer
hua:__ZN12FileAccessor4OpenER15FileSystemEntry14FilePermission16FileAutoBehavior
WAq:__ZN6il2cpp2os9Directory6CreateERKNSt3__212basic_stringIcNS2_11char_traitsIcEENS2_9allocatorIcEEEEPi
B5d:__ZL19sweepBoxVsTrianglesjPKN5physx10PxTriangleERKNS_2Gu3BoxERKNS_6PxVec3EfRNS_10PxSweepHitENS_7PxFlagsINS_9PxHitFlag4EnumEtEEbPKj
mza:__ZN23TransformChangeDispatch32QueueTransformChangeIfHasChangedERK15TransformAccess
eAf:_PxCreateCooking
Kvb:__ZNSt3__26vectorINS_4pairIN9ShaderLab16FastPropertyNameEN18UnityPropertySheet11UnityTexEnvEEENS_9allocatorIS6_EEE21__push_back_slow_pathIKS6_EEvRT_
hVq:__ZNKSt3__28time_getIwNS_19istreambuf_iteratorIwNS_11char_traitsIwEEEEE16do_get_monthnameES4_S4_RNS_8ios_baseERjP2tm
l9:__ZN15AudioMixerGroupD0Ev
U0n:_Array_InternalArray__Insert_TisFPSColor_t1412560116_m64480933_gshared
eWn:_TMP_XmlTagStack_1_PreviousItem_m3006351689_AdjustorThunk
I1j:_Assembly_get_FullName_m293988418
jZd:__ZN22WorldContactListener2D8PreSolveEP9b2ContactPK10b2Manifold
X$f:__ZN22BaseUnityConnectClientD0Ev
avo:_Collection_1__ctor_m2007202235_gshared
sRc:__Z15WeldVertexArrayR13dynamic_arrayI8Vector3fLj4EERS_I12BoneWeights4Lj4EERS_IjLj4EES7_
qFj:_FormatterConverter_ToString_m1584725205
Kjl:_DictionaryNodeEnumerator_get_Entry_m2309234501
B:tempValue
PMq:__ZN6il2cpp8metadata24Il2CppGenericContextHash4HashEPK20Il2CppGenericContext
xhk:_InternalEnumerator_1_get_Current_m356936020_AdjustorThunk
YLh:__ZL61CrossAppDomainSink_t2177102621_CustomAttributesCacheGeneratorP21CustomAttributesCache
eIo:_Collection_1_CheckWritable_m1583234367_gshared
ytg:_MovingPlat_OnTriggerEnter2D_m2120162380
Ira:__Z29scripting_class_from_fullnamePKcS0_S0_
vfm:_Directory_GetCurrentDirectory_m219218555
Iup:_Transform_TransformDirection_m3784028109
zvl:_SmallXmlParser_UnexpectedEndError_m1914362401
sx:__ZN12NavMeshAgent23VirtualRedirectTransferER24GenerateTypeTreeTransfer
DT:__ZN26AnimatorControllerPlayable18DeallocateBindingsEv
y0d:__ZN5physx2Gu29ConvexVsMeshContactGeneration20generateLastContactsEv
vch:__Z85RuntimeInvoker_Boolean_t97287965_Ray_t3785851493_Single_t1397266774_Int32_t2950945753PFvvEPK10MethodInfoPvPS4_
wYa:__ZN14DelayedDeletorI15dense_hashtableINSt3__24pairIK9TextureIDiEES3_14GfxGenericHashIS3_EN14GfxDoubleCacheIS3_iS7_NS1_8equal_toIS3_EEN31GfxDoubleCacheConcurrencyPolicy11LocklessGetE42GfxDoubleCacheDefaultEmptyDeletedGeneratorIS3_EE9SelectKeyESA_13stl_allocatorIS5_L18MemLabelIdentifier24ELi16EEEEclEv
Fdn:_Dictionary_2_CopyToCheck_m3475736769_gshared
Aba:__ZN11AudioSource19CreateOpenALRolloffEfff
MKf:_UNITY_FT_Stream_ReadAt
fJe:__ZN5physx2Sc17ParticleSystemSim16getParticleStateEv
oZp:_Physics_Raycast_m3336206959
R6d:__ZNK5physx2Gu29EPASupportMapPairRelativeImplINS0_4BoxVENS0_11ConvexHullVEE18doWarmStartSupportEiiRNS_6shdfnd3aos5Vec3VES8_S8_
KMd:__ZN16b2PrismaticJoint23InitVelocityConstraintsERK12b2SolverData
Dtl:_ArgumentException__ctor_m1216717135
clk:_InternalEnumerator_1_get_Current_m1711665164_gshared
jFd:__Z19UpdateSingleRow2TplIL27ParticleSystemCurveEvalMode3ELS0_1EEvfRK11MinMaxCurveS3_RK23ParticleSystemParticlesPfbiii
J8f:__ZN13VideoPlayback9Callbacks22OnClockResyncCompletedEPv
ef:_glReadBuffer
Wog:_TMP_Text_set_mappingUvLineOffset_m503760867
cTo:_List_1_System_Collections_IList_Contains_m3860993176_gshared
M7e:__ZN5physx14PxsAABBManagerC2ERNS_2Cm13EventProfilerERNS_19PxcScratchAllocatorE
wXq:__ZNKSt3__27codecvtIDic11__mbstate_tE6do_outERS1_PKDiS5_RS5_PcS7_RS7_
Cda:__ZN11AudioModule22CreateAudioClipFromWWWEP10IWWWStreamPKcbbi
RFc:__ZN9Texture2DC2E10MemLabelId18ObjectCreationMode
jqj:_ObjectRecord_get_IsUnsolvedObjectReference_m1163921033
wTm:_UInt32_System_IConvertible_ToBoolean_m1763673183_AdjustorThunk
g0n:_Array_InternalArray__ICollection_CopyTo_TisTextAlignmentOptions_t4036791236_m3453113315_gshared
OOl:_UnityEvent_AddListener_m2276267359
Ydp:_Uri_CheckSchemeName_m108657675
kZf:__Z13RegisterClassIN2UI11CanvasGroupEEvv
Dqp:_GUIStyle_Draw_m810654952
Gzc:__ZN6prcoreL11inner_clearILj4EEEvPhjjj
nh:_emscripten_glClear
c9:__ZN5audio5mixer18AudioMixerConstant8TransferI19StreamedBinaryWriteILb0EEEEvRT_
$_l:_Quaternion_Euler_m3049309462
bHa:__ZNK8Playable6HandleEv
Y_k:_SetPropertyUtility_SetColor_m2229203028
S7f:__ZN17VideoClipPlayback7SetLoopEb
y_m:_Enumerator_MoveNext_m481679286_gshared
Mnc:__Z30SetupBakedOcclusionForGeometrybRK26SharedLightmapSettingsDataRK15LightmapIndicesR17ShaderPassContext
nsa:__ZN14MessageHandler28MessageIDToMessageIdentifierEi
ICb:__ZNK11SpriteAtlas20GetRuntimeRenderDataEPK6Sprite
mfm:_FileSystemInfo__ctor_m3035148496
Gbm:_Int32_System_IConvertible_ToDecimal_m2190376994_AdjustorThunk
GDp:_IndexedSet_1_CopyTo_m4232548259_gshared
nSf:__ZN20TextRenderingPrivate15DynamicFontData36GetFaceForCharacterIfAvailableInFontERKNS_7FontRefERK13dynamic_arrayI4PPtrIN13TextRendering4FontEELj4EEj
BR:__ZN7mecanim14ValueArrayCopyILb0EEEvPKNS_10ValueArrayEPS1_
aem:_InvalidOperationException__ctor_m2734335978
jkh:__Z94RuntimeInvoker_Void_t1185182177_RuntimeObject_RuntimeObject_RuntimeObject_IntPoint_t2151561958PFvvEPK10MethodInfoPvPS4_
m1:__Z51Register_UnityEngine_Animator_get_hasBoundPlayablesv
Ocj:_ExecuteEvents_Execute_m3952332304
oQg:_ProCamera2DLetterbox_OnEnable_m1488776142
K6g:__Z190RuntimeInvoker_RuntimeObject_Int32_t2950945753_Int32_t2950945753_Int32_t2950945753_Int32_t2950945753_Int32_t2950945753_Int32_t2950945753_Int32_t2950945753_Int32_t2950945753_SByte_t1669577662PFvvEPK10MethodInfoPvPS4_
Cf:emscriptenWebGLGetUniform
gs:FUNCTION_TABLE_iiiiiiiiiii
$op:_GUI_CallWindowDelegate_m3309453386
dJf:_cff_set_mm_blend
F7d:__ZN5physx2Gu19sweepCapsuleCapsuleERKNS0_7CapsuleES3_RKNS_6PxVec3EfRfRS4_S8_jRt
rsc:__ZL10CleanUpJobP20CullingGroupsJobData
Wxn:_BigInteger_GetBytes_m997192583
ifm:_DirectoryInfo_get_Exists_m3142069876
blf:__ZN5physx13BigConvexData4LoadERNS_13PxInputStreamE
jhc:__ZN13RenderManager15BatchModeUpdateEv
hYm:_Enumerator_VerifyState_m1545185457_AdjustorThunk
xpl:_X509Chain_get_CertificateAuthorities_m804805415
SBb:__ZN14SafeBinaryRead21TransferSTLStyleArrayI13dynamic_arrayI8Vector2fLj4EEEEvRT_17TransferMetaFlags
Yva:__ZN17PersistentManager51InstanceIDToLocalSerializedObjectIdentifierInternalEiR31LocalSerializedObjectIdentifier
pwp:_Vector2_get_one_m738793577
lUd:__ZN10ClipperLib7Clipper15SetWindingCountERNS_5TEdgeE
Xpj:_InstanceComparer_System_Collections_IHashCodeProvider_GetHashCode_m1305577427
qNc:__ZNK4Mesh14GetIndexFormatEv
yyg:_TextConsoleSimulator_OnDisable_m2939709510
dwp:_Vector2_get_magnitude_m2752892833_AdjustorThunk
ave:__ZN5physx2Sc8ActorSim24postDominanceGroupChangeEv
_8p:__ZNSt3__213__vector_baseIN6il2cpp2os19SocketHandleWrapperENS_9allocatorIS3_EEED2Ev
Uf:_glVertexAttribIPointer
Hxm:_Convert_ToDecimal_m2233265097
Y2a:__ZN13dynamic_arrayI21ComputeShaderResourceLj4EE9push_backERKS0_
ZNc:__ZNK6Sprite10GetPaddingE20SpriteRenderDataMode
Uve:__ZN5physx2Cm8PtrTable5clearERNS0_22PtrTableStorageManagerE
xSk:_Array_InternalArray__ICollection_Remove_TisUInt32_t2560061978_m733727733_gshared
pbe:__ZN5physx3Cct15ObstacleContext7releaseEv
Qfl:_OldReflectionMethod_Awake_m1308983658
y4e:__ZN5physx27solveFrictionBlockWriteBackEPKNS_23PxcSolverConstraintDescEjRNS_16PxcSolverContextEPNS_25PxcThresholdStreamElementEjPi
Vgm:_Stream_EndRead_m1896469262
QRg:__Z93RuntimeInvoker_Boolean_t97287965_Int32_t2950945753_SByte_t1669577662_ExceptionU26_t3600731591PFvvEPK10MethodInfoPvPS4_
qum:_SortedList__ctor_m1261191695
Ckc:__ZN14qsort_internal5QSortIP15RODataDepthPassi17ROSorterDepthPassEEvT_S4_T0_T1_
P9l:_Guid_CompareTo_m243656946
$Wp:_Canvas_get_additionalShaderChannels_m2758569541
wLf:_UNITY_ft_glyphslot_alloc_bitmap
NQp:_Animation_Play_m577412913
k8n:_Dictionary_2_GetObjectData_m3463318060_gshared
csg:_U3CIcebreakU3Ec__Iterator0_Reset_m2242993491
rCf:__ZN13PhysicsModule21SetAutoSyncTransformsEbb
CNk:_RSASslSignatureDeformatter_SetHashAlgorithm_m895570787
Bxq:__ZN14dense_hash_mapI10KeyWrapperIP12Il2CppObjectEN6il2cpp2gc9CachedCCWENS4_5utils11PointerHashIS1_EENS3_14EqualsComparerINSt3__28equal_toIS2_EEEENSB_9allocatorINSB_4pairIKS3_S6_EEEEEC2EjRKS9_RKSE_
p7o:_X509CrlEntry__ctor_m4013514048
lWm:_Comparer_1__cctor_m4277004242_gshared
qTk:_Enumerable_Contains_TisRuntimeObject_m553751294_gshared
Dqf:__ZN5physx6shdfnd10Foundation19AlignCheckAllocator8allocateEjPKcS4_i
$Xg:__Z95RuntimeInvoker_Void_t1185182177_RuntimeObject_RuntimeObject_SByte_t1669577662_Int32_t2950945753PFvvEPK10MethodInfoPvPS4_
n7c:__Z47Register_UnityEngine_Mesh_RecalculateBoundsImplv
_Sa:__ZN9GfxDevice27UpdateComputeSkinPoseBufferEP9GfxBufferP12SkinMeshInfo
j$c:__Z36Quaternion_CUSTOM_INTERNAL_CALL_LerpRK11QuaternionfS1_fRS_
mHj:_ObjectWriter_QueueObject_m3487717536
Krm:_String_LastIndexOf_m3451222878
d_q:__ZNKSt3__221__basic_string_commonILb1EE20__throw_length_errorEv
nfo:_EqualityComparer_1_System_Collections_IEqualityComparer_Equals_m245992594_gshared
rl:_JS_SystemInfo_GetMemory
Q8k:_Selectable_get_allSelectables_m868218263
m2q:dynCall_fiffifi
btp:_Texture2D_GetPixelBilinear_m1950540195
eZk:_Array_InternalArray__IndexOf_TisParameterModifier_t1461694466_m1227120810_gshared
E9f:__ZN20BrowserVideoPlayback15SetPlaybackRateEf
G4a:__ZN18GfxFramebufferGLES13ReadbackImageER14ImageReferenceiiiiii
whd:__ZN5Unity9rapidjson6WriterI16TempBufferWriterNS0_4UTF8IcEES4_13JSONAllocatorE11WriteStringEPKcj
FWl:_FrameData_get_seekOccurred_m4153690914
j0a:__ZN6prcoreL12RemapGenericI17TexFormatARGB888815TexFormatRGB565EEvPKNS_9InnerInfoE
n5:__ZN4FMOD7Channel19setReverbPropertiesEPK29FMOD_REVERB_CHANNELPROPERTIES
FVj:_StreamReader_Dispose_m156389394
Yqa:__ZN13MonoBehaviour22GetScriptFullClassNameEv
vwd:__ZN11MinMaxCurve19GetWritableMinCurveEv
jjm:_RIPEMD160Managed_JJ_m112143231
Dsn:_List_1_System_Collections_IList_Contains_m727430316_gshared
Xgf:__ZN5physx6shdfnd4sortIPNS_15PxsContactPatchENS_27SortBoundsPredicateManifoldENS0_19ReflectionAllocatorIS3_EEEEvPT_jRKT0_RKT1_j
Ggl:_Water2D_Mesh_GenerateTriangles_m3247432044
XYc:__Z48Register_UnityEngine_GameObject_BroadcastMessagev
_jc:__ZN13BatchRendererC2ER15RenderLoopStatsRK15RenderNodeQueuebb
RUb:__ZNK16MemoryFileSystem9EnumerateEPKcP19dynamic_block_arrayI13FileEntryInfoLj32EEbPPv19FileEnumerationFlag
W9b:__ZN13MonoBehaviour9CallAwakeEv
imp:_TMP_UpdateRegistry_InternalUnRegisterCanvasElementForLayoutRebuild_m3430286673
Whp:_U3CStartU3Ec__Iterator0_Reset_m455768637
frb:__ZN20SphericalHarmonicsL211AddWeightedERKS_f
i_j:_MonoType_IsPointerImpl_m3340652279
VUg:__Z82RuntimeInvoker_RuntimeObject_Int64_t3736567304_Int64_t3736567304_Int64_t3736567304PFvvEPK10MethodInfoPvPS4_
yug:__Z14bankers_roundff
Y_o:_List_1__ctor_m3064707655_gshared
Szk:_TMP_Text_ResizeInternalArray_TisInt32_t2950945753_m1246903779_gshared
d$b:__Z19TransferField_ArrayI17RemapPPtrTransfer27Converter_SimpleNativeClassI8GUIStyleEEvRK23StaticTransferFieldInfoR31RuntimeSerializationCommandInfoRT0_
Pkg:_TMP_Settings_GetSpriteAsset_m3701306308
GTo:_List_1_Insert_m2426986470_gshared
lkk:_InternalEnumerator_1_get_Current_m3433165672_AdjustorThunk
Mdl:_Destroyer_OnTriggerEnter2D_m2141791061
gid:__ZN9JSONWrite8TransferI10ColorRGBAfEEvRT_PKc17TransferMetaFlags
uuf:__ZN14PhysicsManager23VirtualRedirectTransferER19StreamedBinaryWriteILb0EE
hsa:__Z25scripting_method_get_name18ScriptingMethodPtr
f1c:__Z35Register_UnityEngine_Resources_Loadv
NNk:_SslCipherSuite_ComputeKeys_m661027754
wZb:__Z19TransferField_ArrayI14SafeBinaryRead16Converter_StringEvRK23StaticTransferFieldInfoR31RuntimeSerializationCommandInfoRT0_
aWl:_Object_set_name_m291480324
Rfq:__ZN15dense_hashtableINSt3__24pairIK10KeyWrapperINS1_IPK9FieldInfoP11Il2CppClassEEEjEES9_17ReflectionMapHashIS8_EN14dense_hash_mapIS9_jSD_NS9_14EqualsComparerINS0_8equal_toIS8_EEEENS0_9allocatorISB_EEE9SelectKeyESI_SK_E12maybe_shrinkEv
dng:_TMP_SubMeshUI_Cull_m3090955657
ord:__ZN14ParticleSystem17SimulateParticlesER24ParticleSystemUpdateDataR23ParticleSystemParticlesjRKfPj
qFm:_Decimal_Equals_m2486655999
O6i:_MaterialReferenceManager_TryGetMaterialInternal_m1174936449
qIq:_GC_exit_check
t3h:__ZL107RenderTexture_t2108887433_CustomAttributesCacheGenerator_RenderTexture_GetTemporary_m1832746092____vrUsage7P21CustomAttributesCache
cL:__ZN7mecanim9animation9DenseClip8TransferI14SafeBinaryReadEEvRT_
BDd:__ZL24GenerateParticleGeometryIL24ParticleSystemRenderMode0ELb1ELb1EL25ParticleSystemRenderSpace4EEvPfRK22ParticleSystemTempDataRK26ParticleSystemRendererDataRK21ParticleSystemModulesRK23ParticleSystemParticlesRK31ParticleSystemParticlesTempData
r1d:__ZNK5physx2Gu15OBBTriangleTest10obbTriTestERKNS_6PxVec3ES4_S4_
eWc:__Z27Camera_Set_Custom_PropDepthP12Il2CppObjectf
QNj:_MonoField_ToString_m2518484388
qAn:_DSAManaged_get_Random_m923751780
s3m:_Transform_1_Invoke_m2385719192_gshared
QGd:__ZN10SizeModuleC2E10MemLabelId
b$n:_Array_InternalArray__ICollection_Add_TisDoublePoint_t3941534089_m2946499526_gshared
qsl:_Interpreter_PopulateGroup_m4042796257
S7m:_ValueCollection_System_Collections_Generic_ICollectionU3CTValueU3E_Clear_m541602619_gshared
NRm:_Type_GetProperty_m3414567179
hwc:__ZNSt3__26vectorINS_4pairIN4core12basic_stringIcNS2_20StringStorageDefaultIcEEEES6_EE13stl_allocatorIS7_L18MemLabelIdentifier38ELi16EEE6insertENS_11__wrap_iterIPKS7_EERSD_
oPl:_RenderPipelineManager_DoRenderLoop_Internal_m3799666479
lW:__ZN9BlobWrite8TransferI22OffsetPtrArrayTransferI9OffsetPtrIN7mecanim12statemachine18StateMachineMemoryEEEEEvRT_PKc17TransferMetaFlags
PCo:_Collection_1_System_Collections_IList_IndexOf_m3894953546_gshared
nId:__Z73Register_UnityEngine_ParticleSystem_MainModule_SetStartLifetimeMultiplierv
_Cg:_Clipper_DeleteFromAEL_m2064049186
g$p:_ParticlePhysicsExtensions_GetCollisionEvents_m1108737549
Ksj:_SByte_System_IConvertible_ToByte_m2268214252_AdjustorThunk
FAq:__ZN6il2cpp2os10ThreadImpl12QueueUserAPCEPFvPvES2_
mdp:_RegularExpression__ctor_m119502265
X1f:__ZN22BaseUnityConnectClient10QueueEventERN11UnityEngine15CloudWebService17CloudServiceEventEPKcjb
uOo:_ReadOnlyCollection_1_System_Collections_Generic_ICollectionU3CTU3E_Clear_m522482168_gshared
CYd:__ZN13ProduceHelperI17PhysicsMaterial2DLb0EE7ProduceE10MemLabelId18ObjectCreationMode
Sdl:_FloatingObject2D_IsCircle_m1391878547
g3m:_Transform_1_Invoke_m3983555223_gshared
Ail:_Water2D_Simulation_GenerateRippleBasedOnRaycast_m1823804699
Vzj:_ConstructionCall_InitMethodProperty_m2021094586
Xnq:__GLOBAL__sub_I_ArrayMetadata_cpp
Ez:__ZZL16ClipDetailMeshesR13dynamic_arrayIP17ClippedDetailMeshLj4EERK11DynamicMeshRK10DetailMeshPK11NavMeshTileRK8Vector3ffEN12ClipCallback7processES9_RK14DetailMeshPolyPKii
k7d:__ZNK5physx2Gu15HeightFieldUtil12traceSegmentI25CapsuleTraceSegmentReportLb0ELb0ELb1EEEvRKNS_6PxVec3ES6_PT_PS5_
awk:_Array_Sort_TisChar_t3634460470_m2306966989_gshared
r8m:_ValueCollection_System_Collections_Generic_ICollectionU3CTValueU3E_Add_m3595439229_gshared
Hqd:__Z9UpdateTplIL27ParticleSystemCurveEvalMode1EEvRK11MinMaxCurveR23ParticleSystemParticlesjjbjRK8Vector2f
_8e:__ZN5physx10PxsContext23prepareCMDiscreteUpdateEPNS_10PxBaseTaskE
Ysa:__ZNK14SerializedFile12GetHighestIDEv
CEf:__Z43Register_UnityEngine_SpringJoint_set_damperv
Ykg:_TMP_SpriteAnimator_DoSpriteAnimation_m2389846135
Wqi:__ZL74CanvasScaler_t2767979955_CustomAttributesCacheGenerator_m_DefaultSpriteDPIP21CustomAttributesCache
vve:__ZN5physx6shdfnd5ArrayIPvNS0_19ReflectionAllocatorINS_2Cm5BlockIhLj256EEEEEE4copyINS0_15InlineAllocatorILj256ES7_EEEEvRKNS1_IS2_T_EE
xh:_emscripten_glGetError
Yjq:__ZN15dense_hashtableINSt3__24pairIK10KeyWrapperIPK14Il2CppAssemblyEPK22Il2CppMonoAssemblyNameEES6_N6il2cpp5utils11PointerHashIS4_EEN14dense_hash_mapIS6_SA_SF_NS6_14EqualsComparerINS0_8equal_toIS5_EEEENS0_9allocatorISB_EEE9SelectKeyESK_SM_E14squash_deletedEv
evl:_SmallXmlParser__ctor_m202236734
_5:__Z14FMOD_FILE_SeekPvjS_
DTl:_Matrix4x4_Ortho_m1994183957
$ye:__ZN5physx6shdfnd8PoolBaseINS_11NpAggregateENS0_19ReflectionAllocatorIS2_EEE15disposeElementsEv
Vhj:_CanvasUpdateRegistry__ctor_m2005397069
vPo:_List_1_Contains_m4256250483_gshared
_rb:__ZN7TextureC2E10MemLabelId18ObjectCreationMode
l2k:_LayoutGroup__ctor_m2162961217
XGg:_BballGameScript_Formation2_m3332471963
y6d:__ZThn4_N16RayRTreeCallbackILi1ELb1EE14processResultsEjPj
YJl:_Camera_set_orthographic_m2855749523
stc:__ZNK13RenderTexture32CalculateNeedsInvertedProjectionEv
dbe:__ZN5physx2Gu17RadixSortBuffered4SortEPKfj
Fh:emscriptenWebGLGet
vDa:__Z19CanReplaceComponentRN5Unity9ComponentEPKNS_4TypeEPN4core12basic_stringIcNS5_20StringStorageDefaultIcEEEE
KXj:_UnmanagedMemoryStream_Flush_m1540584491
muk:_Comparer_1_System_Collections_IComparer_Compare_m2895306214_gshared
D9l:_GuidParser_ParseGuid2_m1914838819
KFc:__ZN12CubemapArray11InitTextureEiii13TextureFormatb
B0a:__ZN6prcoreL18BlitIntegerToFloatERK14ImageReferenceRS0_
fCd:__ZN32CustomDataModulePropertyBindings13SetFloatValueER14ParticleSystemif
XRc:__Z17GetSceneBuildInfoRKN4core12basic_stringIcNS_20StringStorageDefaultIcEEEEiR14SceneBuildInfo
$Mj:_MonoMethodInfo_GetCallingConvention_m3156036493
zak:_InternalEnumerator_1_System_Collections_IEnumerator_get_Current_m55999184_gshared
tIq:_GC_print_all_errors
Izn:_BitConverterLE_GetULongBytes_m1393773100
Tmj:_Graphic_get_depth_m815589653
maj:_TextMeshProUGUI_ComputeMarginSize_m3856726086
eie:__ZN27ConvexVsMeshOverlapCallbackC2ERKN5physx2Gu10ConvexMeshERKNS0_11PxMeshScaleERKNS0_2Cm23FastVertex2ShapeScalingERKNS0_11PxTransformESE_bRKNS1_3BoxE
SPc:__Z18SetIParticleSystemP15IParticleSystem
UW:__ZN7mecanim5human13HumanFixTwistEPKNS0_5HumanEPNS_8skeleton13SkeletonPoseTIN4math4trsXEEES9_iiRKf
e1f:__ZN11UnityEngine15PlatformWrapper12GetBuildTagsEv
qnc:__ZL24AssignProjectorQueuesJobP30AssignProjectorQueuesJobHeader
FPj:_ParameterModifier_t1461694466_marshal_pinvoke
M5p:__ZN15dense_hashtableINSt3__24pairIK10KeyWrapperIN6il2cpp5utils13dynamic_arrayIPK10Il2CppTypeLj4EEEEPFvvEEESA_NS3_8metadata19Il2CppSignatureHashEN14dense_hash_mapISA_SD_SG_NSA_14EqualsComparerINSF_22Il2CppSignatureCompareEEENS0_9allocatorISE_EEE9SelectKeyESK_SM_E4swapERSP_
Pam:_Int16_System_IConvertible_ToUInt32_m3410279543
dQa:__ZN9ShaderLab20SerializedSubProgram14SetConstBufferEPKci
Ipd:__ZN11ShapeModule9ResetSeedERK27ParticleSystemReadOnlyState
gdq:__ZN6il2cpp2os4File5CloseEPNS0_10FileHandleEPi
ZBf:__ZN13PhysicsModule17SetRigidBodyStateER9RigidbodyRKN8IPhysics14RigidBodyStateE
SCn:_ReadOnlyCollection_1_System_Collections_Generic_ICollectionU3CTU3E_Add_m1324959056_gshared
nGf:_cf2_getStdVW
aTm:_UInt16_CompareTo_m2664746316_AdjustorThunk
qRa:__ZN9GfxDevice13SetActiveTierE12GraphicsTier
Yhg:_TMP_InputField_SendOnFocus_m888313570
a0e:__ZN5physx2Sq12BucketPruner11shiftOriginERKNS_6PxVec3E
Umd:__Z29Transfer_Blittable_ArrayFieldI8JSONReadjEvRT_R9ArrayInfoRK23StaticTransferFieldInfo
ule:__ZN5physx6shdfnd5ArrayIPNS_2Sc16ArticulationCoreENS0_19ReflectionAllocatorIS4_EEE15growAndPushBackERKS4_
wIq:_GC_check_finalizer_nested
pLc:__ZN14PlayableOutput18SetProcessUserDataE18ScriptingObjectPtr
Fpj:_Image__cctor_m1927508576
scl:_IntPoint__ctor_m1455341521
ni:__setLetterbox
qDk:_Object_Instantiate_TisRuntimeObject_m2077627675_gshared
h8k:_ScrollRect_OnScroll_m3861066534
wff:__ZN5physx19normalizePartitionsERNS_6shdfnd5ArrayIjNS0_19ReflectionAllocatorIjEEEEPNS_23PxcSolverConstraintDescEPKNS_13PxcSolverBodyEjjS5_
BQk:_Array_InternalArray__ICollection_Contains_TisResourceCacheItem_t51292791_m2991582559_gshared
qPo:_List_1_AddEnumerable_m4293432831_gshared
T9h:__ZL72FormerlySerializedAsAttribute_t2859083114_CustomAttributesCacheGeneratorP21CustomAttributesCache
y_i:_ProCamera2DTriggerBoundaries_SetBoundaries_m3051525712
m2d:__ZN18ContactCapsuleMesh20processTriangleCacheILj16EEEbRN5physx2Gu13TriangleCacheIXT_EEE
_gg:_TMP_InputField_SelectAll_m3658759708
mFb:__ZNSt3__26vectorI17BlendShapeChannelNS_9allocatorIS1_EEE6assignINS_11__wrap_iterIPS1_EEEENS_9enable_ifIXaasr21__is_forward_iteratorIT_EE5valuesr16is_constructibleIS1_NS_15iterator_traitsISA_E9referenceEEE5valueEvE4typeESA_SA_
LCn:_StrongName__ctor_m3939359439
nyc:__ZN11TimeManager11GetRealtimeEv
bhe:__ZN5physx2Sc16InteractionScene25removeFromActiveActorListERNS0_5ActorE
s6:__ZN29AudioEffectInternalDefinitionC2EP26UnityAudioEffectDefinitionb
ELn:_ReadOnlyCollection_1_System_Collections_IList_Remove_m2434650390_gshared
tTm:_UInt16_ToString_m3056878594_AdjustorThunk
wpd:__ZNK11MinMaxCurve20FindMinMaxIntegratedEv
mce:__ZN5physx3Ext21InertiaTensorComputer6rotateERKNS_7PxMat33E
xZm:_Enumerator_System_Collections_IDictionaryEnumerator_get_Value_m2179213088_gshared
Teq:__ZNSt3__2plIcNS_11char_traitsIcEENS_9allocatorIcEEEENS_12basic_stringIT_T0_T1_EERKS9_PKS6_
itp:_Time_get_unscaledDeltaTime_m4270080131
Y2f:__ZN18UnityConnectClient27OnPlayerSessionStateChangedEjyy
e_g:__Z110RuntimeInvoker_Void_t1185182177_RuntimeObject_StreamingContext_t3711869237_Int32_t2950945753_Int32_t2950945753PFvvEPK10MethodInfoPvPS4_
i$a:_stbir_resize
ZXk:_Array_IndexOf_TisCustomAttributeTypedArgument_t2723150157_m3158556463_gshared
p4l:_Environment_GetOSVersionString_m407782784
ntm:_DecoderExceptionFallback_Equals_m1082173956
hJh:__ZL69Assembly_t_CustomAttributesCacheGenerator_Assembly_GetName_m981771927P21CustomAttributesCache
_Od:__ZN24b2ChainAndCapsuleContact6CreateEP9b2FixtureiS1_iP16b2BlockAllocator
mfb:__Z37ReadDirectoryInfo_UnityWebAndUnityRawR12FileAccessorRKN20ArchiveStorageHeader6HeaderERNS1_13DirectoryInfoE
OVp:_Physics2D_INTERNAL_CALL_Internal_OverlapCircleAll_m991066286
GCa:__ZNSt3__26__treeINS_12__value_typeIPKciEENS_19__map_value_compareIS3_S4_15compare_tstringIS3_ELb1EEENS_9allocatorIS4_EEE7destroyEPNS_11__tree_nodeIS4_PvEE
v1n:_Array_InternalArray__Insert_TisIntPtr_t_m189626842_gshared
Col:_X509Certificate2_get_IssuerName_m1277209535
tIn:_ReadOnlyCollection_1_System_Collections_Generic_IListU3CTU3E_RemoveAt_m2437957510_gshared
TYi:_ProCamera2DShake_Shake_m3309523479
eZq:__ZNSt3__26locale5__imp7installINS_5ctypeIcEEEEvPT_
hxj:_RijndaelManaged_CreateEncryptor_m263736311
B2f:__ZN13dynamic_arrayIN4core12basic_stringIcNS0_20StringStorageDefaultIcEEEELj4EE6assignEPKS4_S7_
Akc:__ZN20DynamicPropertySheet14SetValueQueuedEN9ShaderLab16FastPropertyNameEN19ShaderPropertySheet12PropertyTypeEjNS2_8SetFlagsE
SXf:__ZN2UI6Canvas26MarkAllNestedCanvasesDirtyEv
Q2i:_Utils_DrawArrowEnd_m863669252
wbc:__ZN25PathNamePersistentManagerD2Ev
Apa:__ZN17PersistentManager48IntegrateObjectAndUnlockIntegrationMutexInternalEi
k9p:_NavMeshAgent_INTERNAL_CALL_SetDestination_m233602864
jvk:_Array_Resize_TisTMP_CharacterInfo_t3185626797_m1065941732_gshared
rQl:_GUIStateObjects__cctor_m3979345696
uJa:__ZZ29InitializeSortingGroupManagerPvEN44PostLateUpdateSortingGroupsUpdateRegistrator7ForwardEv
xki:__ZL55EventTrigger_t1076084509_CustomAttributesCacheGeneratorP21CustomAttributesCache
Kom:_SecurityElement_SearchForChildByTag_m900466299
tt:__ZN6Object12SetHideFlagsENS_9HideFlagsE
hSq:__ZNSt3__28ios_base4initEPv
jOd:__ZN9b2Fixture11SynchronizeEP12b2BroadPhaseRK11b2TransformS4_
nvf:__ZN9Rigidbody23VirtualRedirectTransferER14SafeBinaryRead
_zm:_Convert_ToSingle_m3227075028
$7f:__ZN17VideoClipPlayback8GetImageEP7TexturePx
Lhc:__ZN13RendererScene15InitializeUmbraEv
vmo:_DiscreteTime__ctor_m1202110866_AdjustorThunk
Uob:__Z28CalculateGlobalMatrixInverse23TransformAccessReadOnly
ivd:__ZN23ParticleSystemParticles17SetUsesCustomDataEi
afn:_GenericEqualityComparer_1_Equals_m3457564127_gshared
MBk:_Array_InternalArray__get_Item_TisSlot_t3975888750_m905303097_gshared
jtm:_DecoderExceptionFallback__ctor_m4044614564
tJe:__ZNK5physx15PxsParticleData15getWorldBoundsVEv
xsf:__ZN15CapsuleCollider13AwakeFromLoadE17AwakeFromLoadMode
PXj:_LocalDataStoreSlot__cctor_m644942532
kRk:_Array_InternalArray__ICollection_Contains_TisRaycastHit2D_t2279581989_m2733133723_gshared
i8d:__ZN12_GLOBAL__N_124HfTrianglesEntityReport27onEventEjPj
ujp:_U3CFOVKickUpU3Ec__Iterator0_Reset_m1175024232
JOj:_MonoProperty_CachePropertyInfo_m2968057423
H5f:__ZNK25UnityWebRequestJavaScript18GetDownloadedBytesEv
N$l:_Ray_GetPoint_m1852405345_AdjustorThunk
uue:__ZN5physx17PxsContactManager16resetCachedStateEv
z5f:__ZN12HeaderHelper14SetUnvalidatedERKN4core12basic_stringIcNS0_20StringStorageDefaultIcEEEES6_b
q2:__ZN4FMOD6SoundI7releaseEv
qOe:__ZN5physx20NpRigidActorTemplateINS_14PxRigidDynamicEE15setActorSimFlagEb
uHb:__ZN14SpriteRenderer13AwakeFromLoadE17AwakeFromLoadMode
X3l:_Screen_get_height_m1623532518
xXq:__ZNKSt3__27codecvtIDic11__mbstate_tE5do_inERS1_PKcS5_RS5_PDiS7_RS7_
J8:__ZN5audio5mixer13GroupConstant8TransferI14SafeBinaryReadEEvRT_
RHf:_cff_parse_num
Qfb:__ZN10MemoryFile9SetLengthEy
JG:__ZN7mecanim10ValueArray8TransferI19StreamedBinaryWriteILb0EEEEvRT_
vvd:__ZN11ShapeModule17DidModifyMeshDataEv
yac:__Z28scripting_class_is_interface17ScriptingClassPtr
Jj:_glTexStorage2D
u6i:_MaterialReferenceManager_get_instance_m1420922620
A6l:_CultureInfo_ConstructInternalLocaleFromName_m4012802696
APa:__ZNK9ShaderLab10SubProgram14EnsureCompiledEv
uIj:_MethodBuilder_GetGenericArguments_m1765425737
KCm:_DateTime_CompareTo_m3687348273
jDm:_DateTime_ToUniversalTime_m1945318289_AdjustorThunk
Sqq:__ZN6il2cpp6icalls8mscorlib6System10Reflection8Assembly12get_fullnameEP24Il2CppReflectionAssembly
uyf:__ZN5physx7profile10DataBufferINS_6shdfnd6MutexTINS0_26WrapperReflectionAllocatorIhEEEENS0_14ScopedLockImplIS6_EEE17handleBufferFlushEPKhj
Zra:__Z18BuildScriptClassId17ScriptingClassPtr
ZTp:_TextGenerator_Init_m1168488231
RXp:_CanvasRenderer_CreateUIVertexStreamInternal_m543814397
Sup:_Transform_LookAt_m3649447396
Dkh:__Z95RuntimeInvoker_Double_t594665363_IntPoint_t2151561958_IntPoint_t2151561958_IntPoint_t2151561958PFvvEPK10MethodInfoPvPS4_
pQj:_TypeDelegator_GetElementType_m4265261164
pdb:__ZL31DeleteLastPathNameComponentImplRKN4core12basic_stringIcNS_20StringStorageDefaultIcEEEEPKc
xCc:__Z13RegisterClassI18DelayedCallManagerEvv
Arp:_SliderHandler_ClampedCurrentValue_m103969054_AdjustorThunk
j2f:__ZN18UnityConnectClient15GetCloudServiceEv
r$b:__Z18Transfer_BlittableI24GenerateTypeTreeTransferLb0EiEvRK29SerializationCommandArgumentsR31RuntimeSerializationCommandInfo
hif:__ZN5physx20PxsConstraintProjectEPKNS_13PxsConstraintEbf
$Be:__ZN5physx7NpShape7setFlagENS_11PxShapeFlag4EnumEb
mgk:_InternalEnumerator_1_get_Current_m2698009637_gshared
U8p:__ZN6il2cpp2os19SocketHandleWrapperD2Ev
R5m:_Enumerator_System_Collections_IEnumerator_Reset_m278261807_gshared
fIo:_Collection_1_IsSynchronized_m1117613618_gshared
EOd:__ZN15b2CircleContact6CreateEP9b2FixtureiS1_iP16b2BlockAllocator
rac:__ZL28SerializationCommandGroupForRK31TransferFunctionScriptingTraits17ScriptingClassPtr17ScriptingFieldPtrRK20CoreScriptingClasses
vib:__ZN10TagManager32RegisterDefaultTagsAndLayerMasksEv
uPm:_WaitHandle_Dispose_m738127030
lOg:_ProCamera2DCameraWindow__ctor_m3755026602
R$g:__Z50RuntimeInvoker_Double_t594665363_Int32_t2950945753PFvvEPK10MethodInfoPvPS4_
eef:__ZN5physx2Sc35ParticleElementRbElementInteraction12onDeactivateEj
Udh:__Z104RuntimeInvoker_Void_t1185182177_Color_t2555686324_Single_t1397266774_SByte_t1669577662_SByte_t1669577662PFvvEPK10MethodInfoPvPS4_
GUq:__ZNKSt3__220__time_get_c_storageIcE8__monthsEv
qnn:_Enumerator_System_Collections_IEnumerator_get_Current_m1540440674_gshared
Gpm:_Single_System_IConvertible_ToInt16_m809233024_AdjustorThunk
ftf:__ZN19CharacterController9GetBoundsEv
JPq:_fmodf
WBh:__ZL39String_t_CustomAttributesCacheGeneratorP21CustomAttributesCache
u_k:_InputField_UpdateLabel_m1837760870
yXa:__ZN4gles8InitCapsEP7ApiGLESP12GraphicsCapsR16GfxDeviceLevelGL
_Ua:__ZN13GfxDeviceGLES22GetNativeBufferPointerEP9GfxBuffer
Dlh:__Z91RuntimeInvoker_Void_t1185182177_RuntimeObject_RuntimeObject_Int32_t2950945753_RuntimeObjectPFvvEPK10MethodInfoPvPS4_
Plb:__Z24CalculateVertexLightDataRK15SharedLightDataR14GfxVertexLight
LYi:_ProCamera2DShake_ConstantShake_m248017623
tk:_glEnable
jiq:__ZN15dense_hashtableINSt3__24pairIK10KeyWrapperINS1_IPK12PropertyInfoP11Il2CppClassEEEjEES9_17ReflectionMapHashIS8_EN14dense_hash_mapIS9_jSD_NS9_14EqualsComparerINS0_8equal_toIS8_EEEENS0_9allocatorISB_EEE9SelectKeyESI_SK_E15insert_noresizeERKSB_
au:__ZN7NavMesh10RemoveTileEyiPPKhPi
xPa:__ZNK9ShaderLab7Program28BeginReadUnsupportedVariantsEv
v0e:__ZN5physx2Sq10AABBPrunerC2Eb
_ya:__ZN12CachedWriter11Align4WriteEv
MNb:__ZNSt3__26vectorIN30RuntimeInitializeOnLoadManager9ClassInfoE13stl_allocatorIS2_L18MemLabelIdentifier13ELi16EEE7reserveEj
MXe:__ZN5physx2Sq8AABBTreeC2Ev
A9o:_PatternCompiler_EmitCategory_m851169746
tid:__Z35Transfer_Blittable_FixedBufferFieldI9JSONWriteiEvRK29SerializationCommandArgumentsR31RuntimeSerializationCommandInfo
BBd:__ZN11TrailModuleD2Ev
ryn:_BigInteger_op_Subtraction_m1575155386
vT:__ZN26AnimatorControllerPlayable17ProcessRootMotionEP35AnimationPlayableEvaluationConstantP32AnimationPlayableEvaluationInputP33AnimationPlayableEvaluationOutput
mHk:_RSAManaged_ImportParameters_m1117427048
U6f:__ZN11VideoPlayer19SetMaterialPropertyENS_10RenderModeE
Egl:_Water2D_Mesh_Clear_m1868986205
M0f:__ZN11UnityEngine7Connect15DeviceInfoEvent16CollectExtraInfoEv
PEq:__ZN6il2cpp2os11Environment22SetEnvironmentVariableERKNSt3__212basic_stringIcNS2_11char_traitsIcEENS2_9allocatorIcEEEESA_
vqo:_U3CU3Ec__Iterator0_System_Collections_IEnumerable_GetEnumerator_m286388653
jlf:__ZN5physx2Gu10ConvexMeshD2Ev
api:__ZL66Navigation_t3049316579_CustomAttributesCacheGenerator_m_SelectOnUpP21CustomAttributesCache
fKc:__ZN15DirectorManager22ConstructPlayableGraphER14HPlayableGraph
Pjq:__ZN6il2cpp2gc19AppendOnlyGCHashMapIPK10Il2CppTypeP20Il2CppReflectionTypeNS_8metadata14Il2CppTypeHashENS7_26Il2CppTypeEqualityComparerEEC2Ev
Axp:_Vector4_Equals_m1779210055_AdjustorThunk
l8k:_ScrollRect_OnBeginDrag_m1222709073
QGj:_ObjectWriter_WriteTypeCode_m1789140116
Hob:__ZN17LightBakingOutput8TransferI19StreamedBinaryWriteILb0EEEEvRT_
xgb:__ZN20ArchiveStorageReader10InitializeER15FileSystemEntryyb
tOg:_ProCamera2DCinematics__ctor_m1458044857
GIj:_TypeBuilder_CreateType_m3375483507
syn:_ModulusRing_BarrettReduction_m167376748
WBj:_RemotingServices_GetRealProxy_m2081098851
Vzn:_BlockProcessor_Core_m189015002
e8q:_emscripten_glScissor__wrapper
ms:FUNCTION_TABLE_viifi
ps:FUNCTION_TABLE_viiff
v9o:_PatternCompiler_Emit_m1540115729
jIl:_AnimationCurve_GetKey_Internal_m1174643252
mfe:__ZNK5physx2Sc8ShapeSim10getBodySimEv
Cul:_X501__cctor_m1166912714
F1c:__Z43Material_CUSTOM_INTERNAL_CALL_GetVectorImplP12Il2CppObjectiR8Vector4f
JEh:__ZL37Type_t_CustomAttributesCacheGeneratorP21CustomAttributesCache
DOf:_UNITY_tt_face_free_hdmx
hRd:__ZNSt3__26__sortIRN18Overlap2DQueryBase29ColliderHitsByDepthComparitorEPP10Collider2DEEvT0_S7_T_
POg:_U3CEndCinematicRoutineU3Ec__Iterator2_MoveNext_m1366107969
LJl:_Bounds_ToString_m4208690781
HWg:__Z88RuntimeInvoker_RuntimeObject_RuntimeObject_RuntimeObject_Int32_t2950945753_RuntimeObjectPFvvEPK10MethodInfoPvPS4_
HIq:_GC_grow_table
ZVj:_StreamWriter_Initialize_m3490883444
$Rm:_Type_GetGenericArguments_m3500465462
zve:__ZN5physx6shdfnd5ArrayIPvNS0_19ReflectionAllocatorINS_2Cm5BlockIhLj128EEEEEE15growAndPushBackERKS2_
C4f:__ZN23UnityPurchasingSettingsC2Ev
aHb:__ZNK9Transform13GetWorldScaleEv
KMj:_Module_IsDefined_m2423524910
I4j:_DerivedType_create_unmanaged_type_m747846525
ykg:_TMP_Settings_get_defaultTextMeshProUITextContainerSize_m153682395
Akb:__ZN17GPUFenceInternals7ReleaseEv
Ppi:__ZL66Selectable_t3250028441_CustomAttributesCacheGenerator_m_NavigationP21CustomAttributesCache
HCe:__ZN5physx14NpShapeManager15setupSceneQueryERNS_2Sq17SceneQueryManagerERKNS_12PxRigidActorERKNS_7NpShapeE
ttc:__ZL10RenderFaceR9GfxDeviceR18MaterialStateCacheP13RenderTextureiif
YXk:_Array_IndexOf_TisCustomAttributeNamedArgument_t287865710_m2817957199_gshared
jMa:__ZN15SerializeTraitsI13dynamic_arrayIN9ShaderLab21SerializedBindChannelELj4EEE19ResizeSTLStyleArrayERS3_i
ohp:_TiltInput_OnEnable_m692757573
DNo:_ReadOnlyCollection_1_System_Collections_IList_RemoveAt_m1980090087_gshared
P4o:_ExtendedKeyUsageExtension_ToString_m2116504780
FQb:__ZNK5Unity9Component38MarkGameObjectAndComponentDependenciesER27GarbageCollectorThreadState
cje:__ZN5physx3Scb5Scene15addArticulationERNS0_12ArticulationE
cif:__ZN22ScAfterIntegrationTask11runInternalEv
pem:_BinaryReader_Read_m3708759962
pej:_PointerEventData_IsPointerMoving_m1902409386
kne:__ZNK5physx2Sc9ClothCore23getExternalAccelerationEv
X5d:__ZN5physx2Gu13coarseCullingERKNS_6PxVec3ES3_ffRKNS_10PxTriangleE
iXc:__Z56Register_UnityEngine_Camera_INTERNAL_get_backgroundColorv
A9q:_emscripten_glVertexAttrib2fv__wrapper
vFi:__ZL71ProCamera2DNumericBoundaries_t4004299149_CustomAttributesCacheGeneratorP21CustomAttributesCache
Gef:__ZN5physx2Sc5Scene29processNarrowPhaseTouchEventsEv
w_a:__ZN4crnd12symbol_codec32decode_receive_static_data_modelERNS_25static_huffman_data_modelE
Lyc:__ZN18ScriptingArguments8AddFloatEf
$u:__ZN12NavMeshAgent16AddToCrowdSystemEv
rk:_JS_Video_SetErrorHandler
Btp:_TouchScreenKeyboard_Open_m3325559252
Woj:_Image_set_fillOrigin_m469806249
slg:_TMP_Style_set_hashCode_m1062213522
C0f:__ZN11UnityEngine15PlatformWrapper16GetVRRenderScaleEv
npe:__ZN5physx6shdfnd5ArrayIPvNS0_15InlineAllocatorILj256ENS0_19ReflectionAllocatorINS_18NpArticulationLinkEEEEEE15growAndPushBackERKS2_
tjd:__Z18Transfer_BlittableI9JSONWriteLb0EaEvRK29SerializationCommandArgumentsR31RuntimeSerializationCommandInfo
C_n:_Array_InternalArray__ICollection_Add_TisXML_TagAttribute_t1174424309_m1755316534_gshared
mwf:__ZN5Unity11SpringJoint8TransferI19StreamedBinaryWriteILb0EEEEvRT_
uia:__ZN11UnityEngine15CloudWebService14DataDispatcher34OnSessionContainerArchivedAndReadyERNS0_16SessionContainerE
MNd:__ZN15b2RevoluteJoint9SetLimitsEff
UKd:__ZN7b2World11CreateJointEPK10b2JointDef
Prd:__ZN23ParticleSystemParticles20SetUsesTriggerEventsEb
vbe:__ZNK5physx3Cct15ObstacleContext11getObstacleEj
Zfg:_TMP_InputField_SetTextComponentWrapMode_m583333628
oln:_Enumerator_VerifyState_m2621680056_gshared
hep:_UriParser_InternalRegister_m3643767086
HKa:__ZN14SafeBinaryRead19TransferSTLStyleMapINSt3__23mapIN4core12basic_stringIcNS3_20StringStorageDefaultIcEEEEiNS1_4lessIS7_EENS1_9allocatorINS1_4pairIKS7_iEEEEEEEEvRT_17TransferMetaFlags
PMf:_gray_move_to
QRl:_Material_Internal_CreateWithShader_m2478666450
aEm:_DBNull_System_IConvertible_ToSingle_m13713620
zNo:_ReadOnlyCollection_1_System_Collections_IList_Contains_m1327645028_gshared
hpj:_Image_GetDrawingDimensions_m3060965396
pbi:__ZL69FontTextureRebuildCallback_t2467502454_CustomAttributesCacheGeneratorP21CustomAttributesCache
uSm:_TypeLoadException__ctor_m1154572625
PUc:__Z30RegisterValidateMethodCallbackiPF18ScriptingMethodPtrS_17ScriptingClassPtrP6ObjectEPKc
dXo:_List_1_System_Collections_IList_IndexOf_m2169536268_gshared
aih:__Z115RuntimeInvoker_Void_t1185182177_PlayableGraph_t3515989261_Playable_t459825607_Playable_t459825607_Int32_t2950945753PFvvEPK10MethodInfoPvPS4_
Srm:_String_PadLeft_m1263950263
Dzk:_Dictionary_2_Do_ICollectionCopyTo_TisKeyValuePair_2_t2401056908_m1169495264_gshared
zfk:_InternalEnumerator_1_System_Collections_IEnumerator_get_Current_m548105685_gshared
Ysd:__Z25GetTransformationMatricesPN4math8float3x3ES1_bbRK10Matrix4x4fS4_
k$e:__ZN5physx13IslandManager6resizeEj
aMf:_tt_cmap_init
Lnd:__ZN8JSONRead8TransferI9BoundsIntEEvRT_PKc17TransferMetaFlagsb
I9g:__Z85RuntimeInvoker_Void_t1185182177_Double_t594665363_Double_t594665363_Double_t594665363PFvvEPK10MethodInfoPvPS4_
hb:invoke_viidi
gnq:_il2cpp_method_is_inflated
LFd:__Z17UpdateSprites2TplIL27ParticleSystemCurveEvalMode0ELS0_2EEvfRK11MinMaxCurveS3_RK23ParticleSystemParticlesPf
X1i:_GameOver_PlayAgain_m3511777878
jc:invoke_viidd
fke:__ZN5physx6shdfnd8PoolBaseINS_2Cm5BlockIPvLj16EEENS0_19ReflectionAllocatorIS5_EEE17releaseEmptySlabsEv
Msj:_SByte_System_IConvertible_ToChar_m1489191771_AdjustorThunk
T4:__ZN9AudioClip7CleanupEv
BHg:_BballLevelScriptEnd_OnTriggerEnter2D_m1848213810
lsm:_String_Concat_m1809518182
vpq:__ZNK15dense_hashtableINSt3__24pairIK10KeyWrapperIP11Il2CppClassES4_EES5_N6il2cpp8metadata16SZArrayClassHashEN14dense_hash_mapIS5_S4_SA_NS5_14EqualsComparerINS9_19SZArrayClassCompareEEENS0_9allocatorIS7_EEE9SelectKeyESE_SG_E12test_deletedEj
tNk:_RecordProtocol_SendChangeCipherSpec_m464005157
Yym:_Convert_ToInt16_m1223489986
fce:__ZL20updateMassAndInertiabRN5physx11PxRigidBodyEPKfjPKNS_6PxVec3Eb
p7c:__Z49Register_UnityEngine_Mesh_RecalculateTangentsImplv
mmd:__Z18Transfer_BlittableI8JSONReadLb0EdEvRK29SerializationCommandArgumentsR31RuntimeSerializationCommandInfo
Fyf:__ZN5physx24NpPtrTableStorageManagerC2Ev
oF:__ZN7mecanim9animation21BlendTreeNodeConstant35Transfer_4_0_BackwardsCompatibilityI14SafeBinaryReadEEvRT_
gEg:_Clipper_MinkowskiDiff_m133332744
H$f:__Z44Register_UnityEngine_Canvas_set_sortingOrderv
PCa:__ZN12_GLOBAL__N_115ParamNameLookup15AddBuiltinNamesEPPKcjb
lnp:_Event_get_current_m2393892120
cJp:_VertexHelper_Clear_m627349662
aSa:__ZNK9GfxDevice13GetViewMatrixEv
LXj:_UnmanagedMemoryStream_Dispose_m2681886347
lWp:_Rigidbody2D_get_position_m2575647076
bUe:__ZN5physx7NpScene15flushSimulationEb
lbk:_InternalEnumerator_1_System_Collections_IEnumerator_get_Current_m1295084274_gshared
VAe:__ZN5physx6shdfnd8PoolBaseINS_10NpMaterialENS0_19ReflectionAllocatorIS2_EEE12allocateSlabEv
vta:__ZN8TypeTree8BlobReadERPKhS1_ib
tln:_Enumerator_VerifyState_m2621680056_AdjustorThunk
Gyl:_Array_Reverse_m3714848183
jij:_CanvasUpdateRegistry_InternalRegisterCanvasElementForGraphicRebuild_m3522560454
$ip:_DynamicShadowSettings_Start_m2086057754
oIg:_ProCamera2D_get_DeltaTime_m2136762007
Pof:__ZN5physx18ReducedVertexCloudC2EPKNS_6PxVec3Ej
BRk:_Array_InternalArray__ICollection_Remove_TisIntPoint_t1965365063_m2349583891_gshared
hOb:__ZN18LoadSceneOperation23GetAllowSceneActivationEv
aXp:_Canvas_set_additionalShaderChannels_m4180310117
Vib:__ZN6CameraD0Ev
gIa:__ZN31CanvasBatchIntermediateRenderer16StaticInitializeEPv
mip:_FireLight_Update_m3729116111
NS:__ZN7mecanim12AndValueMaskILb0EEEvPKNS_14ValueArrayMaskEPS1_
ANb:__ZN14SafeBinaryRead21TransferSTLStyleArrayINSt3__26vectorIi13stl_allocatorIiL18MemLabelIdentifier13ELi16EEEEEEvRT_17TransferMetaFlags
rvg:_U3CSavecoU3Ec__Iterator0_MoveNext_m550835134
MSf:_raccess_guess_apple_double
FDf:__Z48Rigidbody_CUSTOM_INTERNAL_CALL_AddExplosionForceP12Il2CppObjectfRK8Vector3fffi
B2a:__ZL18ProgramUniform1uivPK7ApiGLESjiihPKv
NCd:__ZN27ShapeModulePropertyBindings13GetFloatValueERK14ParticleSystemi
UFc:__ZN14Texture2DArray13RebuildMipMapEv
L2p:__ZN13Il2CppHashSetIPK17Il2CppGenericInstN6il2cpp8metadata21Il2CppGenericInstHashENS4_24Il2CppGenericInstCompareENSt3__29allocatorI10KeyWrapperIS2_EEEEC2EjRKS5_RKS6_
OWb:__Z18Transfer_BlittableI14SafeBinaryReadLb1EaEvRK29SerializationCommandArgumentsR31RuntimeSerializationCommandInfo
MBq:__ZN6il2cpp2gc16GarbageCollector14RemoveWeakLinkEPPv
eQa:__ZN9ShaderLab20SerializedSubProgram14AddVectorParamEPKcii15ShaderParamTypei
Yfg:_TMP_InputField_set_lineType_m3599153809
lXk:_Array_compare_TisColor_t2555686324_m900802122_gshared
pvm:_Enumerator__ctor_m3362421874
s9g:__Z117RuntimeInvoker_CSSSize_t3377836552_IntPtr_t_Single_t1397266774_Int32_t2950945753_Single_t1397266774_Int32_t2950945753PFvvEPK10MethodInfoPvPS4_
der:_emscripten_glIsFramebuffer__wrapper
fyi:__ZL73IgnoreOnPlayableTrackAttribute_t3455747041_CustomAttributesCacheGeneratorP21CustomAttributesCache
_gk:_InternalEnumerator_1_get_Current_m3515899965_gshared
Oz:__ZN11DynamicMesh10DetailHullaSERKS0_
Myq:__ZN6il2cpp2vm6Object3BoxEP11Il2CppClassPv
tFm:_Decimal_decimalSetExponent_m3707787243
jqq:__ZN6il2cpp2vm6Thread7SetNameEP12Il2CppThreadP12Il2CppString
p6i:_MaterialReference__ctor_m1653620579_AdjustorThunk
Ecc:__ZN13ScreenManager18SetAllowCursorLockEb
Oja:__ZN11UnityEngine15CloudWebService10RestClientINS0_23WebRequestRestHeaderMapEE16SetRequestHeaderERKN4core12basic_stringIcNS4_20StringStorageDefaultIcEEEESA_
FNb:__ZN30RuntimeInitializeOnLoadManager15ClassMethodInfo8TransferI14SafeBinaryReadEEvRT_
Kzj:_ConstructionCall_InitDictionary_m2824447813
frd:__ZN23ParticleSystemParticles14element_assignEjj
_ea:__ZL22InitializeModule_Audiov
P$e:__ZN5physx2Sq11PruningPoolD0Ev
EUb:__ZN16MemoryFileSystem8IsLockedERK13FileEntryData
H7e:__ZN3MBP15removeBoxPrunerEj
dsq:__ZN6il2cpp6icalls8mscorlib6System2IO6MonoIO5WriteEiP11Il2CppArrayiiPi
VPo:_List_1_set_Item_m1753836470_gshared
chh:__Z80RuntimeInvoker_Int32_t2950945753_RuntimeObject_Vector3_t3722313464_RuntimeObjectPFvvEPK10MethodInfoPvPS4_
nDd:__ZN14ParticleSystem23OnGeometryJobsScheduledEj
sTl:_Mathf_InverseLerp_m4155825980
bYg:__Z92RuntimeInvoker_RuntimeObject_RuntimeObject_RuntimeObject_SByte_t1669577662_SByte_t1669577662PFvvEPK10MethodInfoPvPS4_
qn:_emscripten_glBindRenderbuffer
b6c:__Z46Register_UnityEngine_MeshFilter_get_sharedMeshv
Gtn:_List_1_System_Collections_IList_Insert_m1011775503_gshared
XKo:_Collection_1_System_Collections_ICollection_CopyTo_m1943099499_gshared
lIq:_GC_dirty_init
Cfd:__Z33GUI_CUSTOM_INTERNAL_CALL_DoButtonRK5RectTIfEP12Il2CppObjectPv
hwq:__ZN6il2cpp2vm5Image33GetCachedMemoryMappedResourceFileEP24Il2CppReflectionAssembly
$Yf:__ZNK2UI6Canvas16GetTargetDisplayEv
sOo:_ReadOnlyCollection_1__ctor_m2610384050_gshared
v3d:__ZL15SweepBoxCapsulePKN5physx3Cct9SweepTestEPKNS0_11SweptVolumeEPKNS0_11TouchedGeomERKNS_14PxExtendedVec3ERKNS_6PxVec3ERNS0_12SweptContactE
XFa:__ZN6Object17FindObjectsOfTypeEPKN5Unity4TypeER13dynamic_arrayIPS_Lj4EEb
gtg:_LevelManager_LoadLevel_m566636070
Q9b:__ZN13MonoBehaviour17RemoveFromManagerEv
Nwp:_Vector3_get_Item_m668685504_AdjustorThunk
ljf:__ZN5physx2Sc19ParticlePacketShapeD2Ev
ZAb:__ZL11DecodeValuePPKcS0_
S7l:_DateTimeFormatInfo_GetAllRawDateTimePatterns_m4238261242
vom:_WindowsIdentity_System_Runtime_Serialization_IDeserializationCallback_OnDeserialization_m3428853631
bna:__ZN13MemoryManagerC2Ev
u6a:__ZN12SkinMeshInfo10DeallocateEPS_
K7k:_ScrollRect_SetDirty_m214267968
FYk:_Array_InternalArray__IndexOf_TisKeyValuePair_2_t727985506_m1773917996_gshared
dgb:__ZN20ArchiveStorageReader28AcquireAndPrefillUnusedBlockEjPNS_11CacheResultE
bAl:_Boolean_System_IConvertible_ToDateTime_m603510836
OFc:__Z12NHxRoughnessIA4_tEvP9Texture2DPT_iiii
tzn:_ASN1_get_Value_m1857007406
Obl:_ClipperBase_DisposeLocalMinimaList_m154684933
Rqm:_String_System_Collections_IEnumerable_GetEnumerator_m3198926340
pGa:__ZN18AsyncUploadManagerD2Ev
gSb:__ZN9Transform5ResetEv
gGm:_DelegateSerializationHolder__ctor_m23226427
bzm:_Decimal_op_Explicit_m1842265407
y1b:__Z22TransferField_NonArrayI24GenerateTypeTreeTransfer16Converter_StringEvRK23StaticTransferFieldInfoR31RuntimeSerializationCommandInfoRT0_
KXp:_CanvasRenderer_SetAlphaTexture_m2009567627
vIf:_UNITY_FT_CMap_New
Hck:_InternalEnumerator_1_get_Current_m4241643334_AdjustorThunk
Qzo:_Collection_1_set_Item_m2389175716_gshared
xcc:__Z17MainLoopKeepalivePv
Yme:__ZN5physx7NpScene16addActorInternalERNS_7PxActorE
X6k:_Selectable_FindSelectableOnDown_m1591762582
zjk:_InternalEnumerator_1_get_Current_m1588647567_AdjustorThunk
W1j:_Assembly_UnprotectedGetName_m600830855
M7j:_ILGenerator_Emit_m2239205197
_Kh:__ZL51GCHandle_t3351438187_CustomAttributesCacheGeneratorP21CustomAttributesCache
Drc:__Z14CalcHullBoundsPK8Vector3fPKhhRK5PlaneRK10Matrix4x4fR10MinMaxAABB
TQg:_ProCamera2DNumericBoundaries_OverrideSize_m1580081224
fca:__ZNK14SoundHandleAPI12GetFrequencyEv
vkc:__Z19SetupLODFadeKeywordR17ShaderPassContexti
pkm:_RSAPKCS1SignatureFormatter_CreateSignature_m3191980616
cub:__ZN10builtintex16GetDefaultTexEnvE16TextureDimensionb
Y5a:__ZL25CheckCopyTextureArgumentsRK7ApiGLESP11GLESTextureS3_
$Cd:__ZN24UVModulePropertyBindings13AddPropertiesER10vector_mapIi22ParticleModulePropertyNSt3__24lessIiEENS2_9allocatorINS2_4pairIiS1_EEEEE
X0b:__Z29Transfer_Blittable_ArrayFieldI24GenerateTypeTreeTransferyEvRT_R9ArrayInfoRK23StaticTransferFieldInfo
E5:__ZN4FMOD7SystemI9playSoundE17FMOD_CHANNELINDEXPNS_5SoundEbPPNS_7ChannelE
Tga:__Z42Register_UnityEngine_AudioSource_set_pitchv
YBf:__ZN13PhysicsModule31GetColliderComponentsInChildrenERK10GameObjectbbR13dynamic_arrayIPN5Unity9ComponentELj4EE
RJb:__ZN19StreamedBinaryWriteILb0EE21TransferSTLStyleArrayINSt3__26vectorI17SubstanceEnumItemNS2_9allocatorIS4_EEEEEEvRT_17TransferMetaFlags
eWd:__ZN17PhysicsMaterial2D5ResetEv
dnp:_Event_get_commandName_m4275147343
MS:__ZN27AnimationLayerMixerPlayable17LayerMixerProcessEP35AnimationPlayableEvaluationConstantP32AnimationPlayableEvaluationInputP33AnimationPlayableEvaluationOutputM17AnimationPlayableFvS1_S3_S5_EMS_FvS1_S3_S5_ESA_MS_FvS5_S1_S3_S5_ifE
kym:_Decimal_op_Implicit_m4256234411
ROg:_ProCamera2DLetterbox_TweenToRoutine_m2919025290
d4:__ZN12AudioManager23VirtualRedirectTransferER18StreamedBinaryReadILb0EE
NUg:__Z60RuntimeInvoker_RuntimeObject_RuntimeObject_Int16_t2552820387PFvvEPK10MethodInfoPvPS4_
XEb:__ZN10VertexData13SwapEndianessEv
yVj:_StreamReader__ctor_m3941437302
bCd:__ZN27ColorModulePropertyBindings13GetFloatValueERK14ParticleSystemi
H4c:__Z57Register_UnityEngine_Transform_INTERNAL_get_localRotationv
mig:_TMP_InputField_OnSelect_m1593267746
B3q:dynCall_viif
vWj:_StringReader_ReadLine_m2337102945
eif:__ZN5physx2Sc24ConstraintProjectionTree11projectPoseERNS0_19ConstraintGroupNodeE
D_b:__ZL26Transfer_SimpleNativeClassI17RemapPPtrTransfer8GradientLb0EEvRK29SerializationCommandArgumentsR31RuntimeSerializationCommandInfo
oih:__Z158RuntimeInvoker_Int32_t2950945753_Int32_t2950945753_Int32_t2950945753_Int32_t2950945753_Int32_t2950945753_Int32_t2950945753_Int32_t2950945753_Int32_t2950945753PFvvEPK10MethodInfoPvPS4_
aEd:__ZL32TransformParticleMeshAnimatedUVsILb1EEvRK16ParticleMeshDataiRK22ParticleSystemTempDataRK31ParticleSystemParticlesTempData11ColorRGBA32RK26ParticleSystemRendererDataRK21ParticleSystemModulesRK10Matrix4x4fRK10Matrix3x3fRK8Vector3fRK23ParticleSystemParticlesjPPhPPf
UXi:_ProCamera2DRooms_ComputeCurrentRoom_m775256555
xU:__ZN17AnimationPlayable26DisconnectNoTopologyChangeEPS_i
AAl:_Boolean_Equals_m2410333903_AdjustorThunk
Vre:__ZN5physx2Sc21ArticulationJointCore28setSwingLimitContactDistanceEf
M2n:_Array_InternalArray__set_Item_TisChar_t3634460470_m741842250_gshared
sop:_SliderHandler_ThumbRect_m2303330165
q4q:dynCall_viifffi
Jka:__ZN13UploadHandlerD2Ev
tWm:_Enumerator_System_Collections_IEnumerator_get_Current_m941203029_gshared
R0q:dynCall_viiiiiffi
FGg:_BaseTrigger_OnDisable_m1296988891
uOl:_InvokableCallList_PrepareInvoke_m4003891334
oe:_emscripten_glBlendFuncSeparate
oPg:_ProCamera2DContentFitter_UpdateLetterPillarbox_m154777254
pra:__Z20scripting_string_newPKc
L1c:__Z43Material_CUSTOM_Internal_CreateWithMaterialP12Il2CppObjectS0_
Nch:__Z124RuntimeInvoker_Int32_t2950945753_Vector3U26_t3464235976_Single_t1397266774_RuntimeObject_Int32_t2950945753_Int32_t2950945753PFvvEPK10MethodInfoPvPS4_
rdp:_Parser_IsSingleline_m326238187
iGl:_CollectionBase_get_Count_m1708965601
Avj:_HMAC__ctor_m97939284
ctn:_List_1_GetEnumerator_m730414427_gshared
NVm:_ValueType_DefaultEquals_m2927252100
Rhd:__ZN9JSONWrite12AppendToNodeEPN5Unity9rapidjson12GenericValueINS1_4UTF8IcEE13JSONAllocatorEEPKcRS6_
Azn:_ASN1_ToString_m1340204511
$ol:_X509ChainElementEnumerator_get_Current_m1301774989
XNd:__ZN16PhysicsManager2D20GetRigidBodyVelocityERK11Rigidbody2D
Dpl:_X509Store_get_Certificates_m2149701265
zEf:__Z44Register_UnityEngine_Joint_set_connectedBodyv
_Fn:_ReadOnlyCollection_1_System_Collections_Generic_IListU3CTU3E_set_Item_m711370667_gshared
mmi:__ZL144StandaloneInputModule_t2760469101_CustomAttributesCacheGenerator_StandaloneInputModule_t2760469101____allowActivationOnMobileDevice_PropertyInfoP21CustomAttributesCache
fmf:__ZThn8_N5physx2Gu11HeightFieldD1Ev
VKm:_StringBuilder_set_Chars_m3548656617
_cq:__ZN6il2cpp2os4File17GetFileAttributesERKNSt3__212basic_stringIcNS2_11char_traitsIcEENS2_9allocatorIcEEEEPi
bre:__ZNK5physx19PxArticulationJoint19getConcreteTypeNameEv
CX:__ZNSt3__26__sortIRPFbPKN8Animator11AnimatorJobES4_EPS4_EEvT0_S9_T_
i3:__ZN17AudioCustomFilterD2Ev
B5o:_X509CertificateCollection_GetEnumerator_m92169144
eGq:_GC_unpromote_black_lists
n4a:__ZN18GfxFramebufferGLES18ReleaseFramebufferEP17RenderSurfaceBaseP14GfxContextGLES
lSq:__ZNSt3__213basic_ostreamIcNS_11char_traitsIcEEE6sentryC2ERS3_
KXa:__ZNK7ApiGLES15GetDriverStringEN2gl11DriverQueryE
ama:__ZN19CloudServiceHandler34HandleSaveFileWebRequestPlayerLoopEv
jU:__ZN7mecanim21ValueArrayReverseCopyEPKNS_18ValueArrayConstantEPKNS_10ValueArrayES2_PS3_PKi
S2:__Z31GetParentSampleClipFromInstancePN11SoundHandle8InstanceE
ZDc:__ZNK28RectTransformPropertyBinding13GetFloatValueERKN11UnityEngine9Animation10BoundCurveE
Qtc:__ZN6Camera22StandaloneCustomRenderENS_10RenderFlagEP6ShaderRKN4core12basic_stringIcNS3_20StringStorageDefaultIcEEEEPNS_21PerformRenderFunctionE
KYk:_Array_InternalArray__IndexOf_TisKeyValuePair_2_t2401056908_m4118889689_gshared
XMb:__ZNSt3__26vectorI4PPtrI6ObjectE13stl_allocatorIS3_L18MemLabelIdentifier52ELi16EEE6assignINS_11__wrap_iterIPS3_EEEENS_9enable_ifIXaasr21__is_forward_iteratorIT_EE5valuesr16is_constructibleIS3_NS_15iterator_traitsISD_E9referenceEEE5valueEvE4typeESD_SD_
KPe:__ZL22addOrRemoveRigidObjectILb0ELb0ELb0ELb1EN5physx3Scb11RigidStaticEEvRNS0_2Sc5SceneERT3_b
jNq:__ZN6il2cpp2os16ThreadLocalValue8GetValueEPPv
Gol:_X509Certificate2_get_PublicKey_m370665820
ehq:__ZN15dense_hashtableINSt3__24pairIK10KeyWrapperINS1_IPK10MethodInfoP11Il2CppClassEEEjEES9_17ReflectionMapHashIS8_EN14dense_hash_mapIS9_jSD_NS9_14EqualsComparerINS0_8equal_toIS8_EEEENS0_9allocatorISB_EEE9SelectKeyESI_SK_EC2ERKSN_j
vzj:_AsyncResult_AsyncProcessMessage_m2076471000
Vzo:_Collection_1_IsSynchronized_m2790814605_gshared
dfa:__ZN13AudioListener17ReadExtensionNameEi
ee:invoke_iiidii
d5c:__Z52Object_CUSTOM_GetOffsetOfInstanceIDInCPlusPlusObjectv
p3q:dynCall_iiifffii
rke:__ZN5physx6shdfnd4sortIPvNS0_4LessIS2_EENS0_19ReflectionAllocatorINS_2Cm5BlockIS2_Lj8EEEEEEEvPT_jRKT0_RKT1_j
CAe:__ZNK5physx9NpPhysics11getNbShapesEv
jt:setThrew
FFc:__ZL21BuildEmptyCubeTexturePKci11ColorRGBA3217TextureColorSpace
KKa:__ZN14SafeBinaryRead21TransferSTLStyleArrayINSt3__26vectorIN9ShaderLab20SerializedSubProgramENS1_9allocatorIS4_EEEEEEvRT_17TransferMetaFlags
jZk:_Array_InternalArray__IndexOf_TisX509ChainStatus_t133602714_m48896230_gshared
Ieb:__ZN19dynamic_block_arrayI13FileEntryInfoLj32EE4growEj
lld:__Z15Transfer_StringI8JSONReadLb1EEvRK29SerializationCommandArgumentsR31RuntimeSerializationCommandInfo
_On:_Comparison_1_BeginInvoke_m816899747_gshared
c$c:__Z35Light_Set_Custom_PropShadowStrengthP12Il2CppObjectf
gga:__Z31AudioClip_Get_Custom_PropLengthP12Il2CppObject
jSf:_UNITY_FT_Render_Glyph_Internal
QMn:_ReadOnlyCollection_1_System_Collections_IList_RemoveAt_m2598680575_gshared
Xsq:__ZNSt3__212basic_stringIDsNS_11char_traitsIDsEENS_9allocatorIDsEEE21__grow_by_and_replaceEjjjjjjPKDs
PIf:_UNITY_ft_service_list_lookup
ned:__ZN5IMGUI21SelectReceivingWindowER8GUIStateb
Qvj:_HMAC_Initialize_m3157696427
n2d:__ZN5physx2Gu20intersectTriangleBoxERKNS_6PxVec3ES3_S3_S3_S3_
$$:__ZNK26AnimatorControllerPlayable17ValidateGoToStateERiS0_
xze:__ZN5physx10NpMaterial8setFlagsENS_7PxFlagsINS_14PxMaterialFlag4EnumEtEE
Gjo:_TimelineClip_set_preExtrapolationMode_m3783509050
Cma:__ZN13BaseAllocator13TryDeallocateEPv
znl:_X509SubjectKeyIdentifierExtension__ctor_m2055934916
Px:__ZNK22NavMeshProjectSettings18GetSettingsByIndexEi
MJc:__ZN10GUIElementC2E10MemLabelId18ObjectCreationMode
xOq:_sprintf
oUc:__ZN9Scripting25CreateNullExceptionObjectE18ScriptingObjectPtr
JBn:_PrivateKeyInfo_DecodeRSA_m2889346634
M3:__ZN13AudioListener17RemoveFromManagerEv
pf:_glAttachShader
X0g:__Z241RuntimeInvoker_Boolean_t97287965_RuntimeObject_RuntimeObject_RuntimeObject_SByte_t1669577662_DateTimeU26_t882461807_DateTimeOffsetU26_t3960159525_RuntimeObject_Int32_t2950945753_SByte_t1669577662_BooleanU26_t4125257963_BooleanU26_t4125257963PFvvEPK10MethodInfoPvPS4_
Ywf:__ZN5physx6shdfnd8internal8HashBaseINS0_4PairIKtPKcEEtNS0_4HashItEENS1_11HashMapBaseItS6_S9_NS_7profile26WrapperReflectionAllocatorIS6_EEE6GetKeyESD_Lb1EE6createERS4_Rb
Voa:__ZNK6Camera19GetProjectionMatrixEv
pCn:_SymmetricTransform_InternalTransformBlock_m946892271
WUe:__ZNK5physx7NpScene24getWakeCounterResetValueEv
fFd:__Z19UpdateSingleRow2TplIL27ParticleSystemCurveEvalMode2ELS0_4EEvfRK11MinMaxCurveS3_RK23ParticleSystemParticlesPfbiii
n$k:_InputField_SetToCustomIfContentTypeIsNot_m2813459946
szo:_Collection_1_System_Collections_IList_IndexOf_m1439404860_gshared
uDo:_Collection_1_System_Collections_ICollection_CopyTo_m1691066866_gshared
zgf:__ZNK5physx16PxsSolverEndTask7getNameEv
Y9l:_Guid_GetHashCode_m3042133858_AdjustorThunk
maf:__ZN5physx2Gu32PCMConvexVsMeshContactGeneration20generateLastContactsEv
Qqa:__Z38PreallocateObjectFromPersistentManagerib
YWq:__ZNSt3__211__money_getIwE13__gather_infoEbRKNS_6localeERNS_10money_base7patternERwS8_RNS_12basic_stringIcNS_11char_traitsIcEENS_9allocatorIcEEEERNS9_IwNSA_IwEENSC_IwEEEESJ_SJ_Ri
Hze:__ZThn12_N5physx10NpMaterialD0Ev
taj:_TextMeshProUGUI_GenerateTextMesh_m2112948302
ysl:_Interpreter_Backtrack_m2828876822
Rxb:__ZNK9Texture2D20GetUnscaledTextureIDEv
_Dm:_DBNull_System_IConvertible_ToInt64_m3889862579
atj:_SByte_System_IConvertible_ToType_m4075253447
OCn:_StrongName_get_PublicKey_m1841537984
Qpf:__ZN5physx6shdfnd4sortIjNS_19SortBoundsPredicateENS0_19ReflectionAllocatorIjEEEEvPT_jRKT0_RKT1_j
fCe:__ZN5physx7NpShape14onRefCountZeroEv
Dup:_Transform_INTERNAL_get_worldToLocalMatrix_m2730237241
OWk:_PlayableExtensions_GetPreviousTime_TisPlayable_t459825607_m811952074_gshared
wrd:__ZNK14ParticleSystem7GetLoopEv
D0k:_InputField_IsValidChar_m1928072643
npf:__ZL15TestContainmentRKN5physx6PxVec3EPKfjPKNS_2Gu15HullPolygonDataE
Eno:_TimelineClip_get_end_m2534330376
rcg:_TMP_InputField_SetCaretVisible_m2843742729
Wxb:__ZNK9Texture2D26CanReuploadDataToGfxDeviceEv
MPh:__ZL63CodeAccessPermission_t2681295399_CustomAttributesCacheGeneratorP21CustomAttributesCache
TOb:__Z29ClearRepeatingLogMessageStatev
Mhk:_InternalEnumerator_1_get_Current_m3191242573_gshared
rBl:_Byte_Equals_m1161982810_AdjustorThunk
omf:__ZN5physx2Gu11HeightField12loadFromDescERKNS_17PxHeightFieldDescEb
LFa:__ZN21EnlightenSceneMappingaSERKS_
ZQn:_U3CSortU3Ec__Iterator21_Dispose_m448183640_gshared
qab:__ZN7ApiGLESD2Ev
dmn:_Enumerator_MoveNext_m1559190227_AdjustorThunk
rYk:_Array_InternalArray__IndexOf_TisConstantShakeLayer_t1896703246_m2084394813_gshared
Rhb:__ZN9Transform47ClearTransformHierarchyAndApplyToSerializedDataEv
aSe:__ZN5physx6shdfnd8PoolBaseINS_2Gu30LargePersistentContactManifoldENS0_19ReflectionAllocatorIS3_EEE12allocateSlabEv
ubn:_Dictionary_2_Remove_m789637624_gshared
Q0k:_InputField_IsSelectionVisible_m3622592134
cVl:_Mesh_RecalculateTangents_m1236595664
$ib:__ZN6Camera23VirtualRedirectTransferER19StreamedBinaryWriteILb0EE
d4q:dynCall_fidi
htg:_LevelManager_QuitRequest_m2917051473
qef:__ZN5physx20getVertexEdgeIndicesERKNS_2Gu11HeightFieldEjjjPNS_8EdgeDataE
zGp:_AudioMixerPlayable_CreateAudioMixerPlayableInternal_m2973116029
gXe:__ZN5physx6shdfnd5ArrayIPNS_2Sc8BodyCoreENS0_19ReflectionAllocatorIS4_EEE6resizeEjRKS4_
Lae:__ZN5physx3Cct26CharacterControllerManager16createControllerERNS_9PxPhysicsEPNS_7PxSceneERKNS_16PxControllerDescE
spp:_GUILayoutEntry__ctor_m2229197035
_wa:__ZN15dense_hashtableINSt3__24pairIKN9ShaderLab7Program23ShaderKeywordSetAndHashEPKNS2_10SubProgramEEES4_NS3_24ShaderKeywordHashFunctorEN14dense_hash_mapIS4_S8_SA_NS0_8equal_toIS4_EE13stl_allocatorIS9_L18MemLabelIdentifier67ELi16EEE9SelectKeyESD_SG_E15insert_noresizeERKS9_
BJb:__ZN14SubstanceInput8TransferI24GenerateTypeTreeTransferEEvRT_
lUc:__ZNK13MonoBehaviour13GetScriptTypeEv
Oem:_BinaryWriter_Write_m2685067618
hg:_SDL_FreeRW
n_e:__ZN5physx6shdfnd8PoolBaseINS_2Cm5BlockIhLj128EEENS0_19ReflectionAllocatorIS4_EEE15disposeElementsEv
r_f:__Z34CanvasRenderer_Get_Custom_PropCullP12Il2CppObject
Stg:_Pause_PauseGame_m1588973463
rKe:__ZN5physx3Scb14ParticleSystem14setRestOffsetsEjRKNS_16PxStrideIteratorIKjEERKNS2_IKfEE
eZl:_PlayableHandle_SetInputCount_Injected_m1039109062
pba:__ZN20SoundChannelInstance8getDelayE14FMOD_DELAYTYPEPjS1_
pxa:__ZNSt3__26vectorIN20GpuProgramParameters15StructParameterENS_9allocatorIS2_EEEC2ERKS5_
m9j:_ArrayReadOnlyList_1_Contains_m232667507_gshared
v$g:__Z77RuntimeInvoker_Boolean_t97287965_IntPtr_t_Int32_t2950945753_SByte_t1669577662PFvvEPK10MethodInfoPvPS4_
zYl:_PlayableHandle_GetPlayableType_m432385838_AdjustorThunk
Qxg:_ShaderPropAnimator_Start_m2331709270
_Qf:__ZNSt3__26vectorIN20TextRenderingPrivate8FontImpl13CharacterInfoE13stl_allocatorIS3_L18MemLabelIdentifier1ELi16EEE8__appendEj
Kim:_Stream_Dispose_m2589290611
v:tempBigInt
j2n:_Array_InternalArray__Insert_TisKeyframe_t4206410242_m1558638568_gshared
pg:_emscripten_glVertexAttrib1fv
rLa:__ZNSt3__26vectorIN9ShaderLab20SerializedSubProgram12UAVParameterENS_9allocatorIS3_EEE7reserveEj
zDk:_BigInteger__ctor_m2644482640
s$q:__ZSt11__terminatePFvvE
WVe:__ZN5physx13NpVolumeCacheC2EPNS_2Sq17SceneQueryManagerEjj
nle:__ZThn24_N5physx2Sc20ArticulationJointSimD1Ev
c6:__ZN12AudioManager14systemCallbackEP11FMOD_SYSTEM24FMOD_SYSTEM_CALLBACKTYPEPvS3_
ORn:_Nullable_1_Equals_m4046255732_gshared
sZk:_Array_InternalArray__IndexOf_TisMaterialReference_t1952344632_m3677304639_gshared
BJn:_ReadOnlyCollection_1_System_Collections_Generic_ICollectionU3CTU3E_Clear_m3451551308_gshared
Ygj:_BaseMeshEffect_OnEnable_m3291426649
sKe:__ZN5physx2Sc18ParticleSystemCore14setRestOffsetsEjRKNS_16PxStrideIteratorIKjEERKNS2_IKfEE
VHq:_clear_marks_for_block
E2d:__ZN5physx2Gu16testPolyDataAxisERKNS0_8CapsuleVERKNS0_13PolygonalDataEPNS0_12SupportLocalERKNS_6shdfnd3aos6FloatVERSB_RNSA_5Vec3VE
H$p:_MainModule_get_duration_m2362826759
$Qk:_Array_InternalArray__ICollection_Contains_TisColor_t2555686324_m266224315_gshared
_qb:__ZN16ReflectionProbes16UpdateSampleDataEv
ltd:__Z9UpdateTplIL27ParticleSystemCurveEvalMode1EEvRK11MinMaxCurveR23ParticleSystemParticlesjjPKN4math8floatNx3E
eoe:__ZN5physx2Sc17ParticleSystemSimD0Ev
zDj:_TrackingServices_NotifyUnmarshaledObject_m2784831802
HEl:_ReadOnlyArrayListWrapper_Sort_m2577012511
Xvg:_SleepFish_Update_m3718690144
i7l:_CultureInfo_GetCultureInfo_m56098747
UIb:__ZN18ProceduralMaterial23VirtualRedirectTransferER17RemapPPtrTransfer
Ulo:_TimelineAsset_GatherProperties_m2587669420
Tqc:__Z20AddActiveLocalLightsR11CullResultsR27LocalLightCullingParametersPPK15SharedLightDataPK8Vector4fRK9IndexListPfRSA_R12ActiveLightsSG_P5RectTIfEP13TargetEyeMask
nGh:__ZL80Hashtable_t1853889766_CustomAttributesCacheGenerator_Hashtable__ctor_m1763145853P21CustomAttributesCache
yHo:_Collection_1__ctor_m3489157029_gshared
g8q:_emscripten_glRenderbufferStorage__wrapper
lDp:_ScriptPlayable_1_CreateHandle_m3597998059_gshared
Vdq:__ZNK6il2cpp2vm14TypeNameParser10NextWillBeEcb
jGf:_cf2_getNormalizedVector
Mg:_JS_Sound_Play
BKn:_ReadOnlyCollection_1_System_Collections_IList_set_Item_m1538987737_gshared
esk:_DefaultComparer_Compare_m1920986590_gshared
fUq:__ZNSt3__219__libcpp_asprintf_lEPPcP15__locale_structPKcz
VMk:_RecordProtocol_ProcessChangeCipherSpec_m15839975
YJa:__ZN9ShaderLab16SerializedShader8TransferI14SafeBinaryReadEEvRT_
foj:_GridLayoutGroup_set_constraint_m3308895167
hAj:_ConstructionCallDictionary_SetMethodProperty_m3145285304
Wbm:_Int32_System_IConvertible_ToUInt32_m3557270157
o2g:__Z243RuntimeInvoker_Void_t1185182177_Int16_t2552820387_RuntimeObject_Int32_t2950945753_Int32_t2950945753_Int32_t2950945753_SByte_t1669577662_SByte_t1669577662_SByte_t1669577662_SByte_t1669577662_Int16_t2552820387_SByte_t1669577662_SByte_t1669577662PFvvEPK10MethodInfoPvPS4_
Jak:_InternalEnumerator_1_System_Collections_IEnumerator_get_Current_m1503522504_gshared
WW:__ZN7mecanim8skeleton13SkeletonAlignEPKNS0_8SkeletonERKN4math7_float4ES7_i
xGc:__ZN19ShaderPropertySheet16SetVectorIndexedEN9ShaderLab16FastPropertyNameEifRK8Vector4fNS_8SetFlagsE
YQm:_Type_get_IsAbstract_m1120089130
Zwp:_Vector3_get_normalized_m2454957984_AdjustorThunk
Rep:_UriFormatException__ctor_m1115096473
ioq:__ZN15dense_hashtableINSt3__24pairIK10KeyWrapperINS1_IP11Il2CppClassjEEES4_EES6_N6il2cpp8metadata14ArrayClassHashEN14dense_hash_mapIS6_S4_SB_NS6_14EqualsComparerINSA_17ArrayClassCompareEEENS0_9allocatorIS8_EEE9SelectKeyESF_SH_E9copy_fromERKSK_j
Wko:_AudioTrack_OnCreateClipFromAsset_m218960505
Fgl:_Water2D_Mesh_Build_m571055537
Jla:__ZN11UnityEngine15CloudWebService14DataDispatcher4StopEv
Ein:_LinkedList_1_System_Collections_Generic_ICollectionU3CTU3E_Add_m2568132950_gshared
kbg:__ZN20video_YUV420_convert12DecodeShader8FinalizeEv
Ram:_Int16_System_IConvertible_ToUInt64_m134975563
tLa:__ZNSt3__26vectorIN9ShaderLab20SerializedSubProgram12UAVParameterENS_9allocatorIS3_EEE8__appendEj
h0m:_ShimEnumerator_get_Value_m888750153_gshared
Aad:__Z42CapsuleCollider2D_Get_Custom_PropDirectionP12Il2CppObject
flh:__Z79RuntimeInvoker_Void_t1185182177_RuntimeObject_RuntimeObject_Vector3_t3722313464PFvvEPK10MethodInfoPvPS4_
pQc:__ZNK17AnimationCurveTplI11QuaternionfE8GetRangeEv
E0i:_EnemyAttack_LookAtTarget_m40569236
Y$n:_Array_InternalArray__ICollection_CopyTo_TisSingle_t1397266774_m455540885_gshared
Edb:__ZN17ScriptingGCHandle7AcquireE18ScriptingObjectPtr25ScriptingGCHandleWeakness
Pfa:__ZN19AudioPlayableOutputC2EjP13PlayableGraph
T9j:_InternalEnumerator_1_get_Current_m1773303670_AdjustorThunk
aZi:_ProCamera2DShake_ConstantShake_m415058293
iYf:__ZN2UI14CanvasRenderer14AttachToCanvasER8JobFencePNS_6CanvasENS0_15InstructionTypeE
dcd:__ZN19StreamedBinaryWriteILb0EE21TransferSTLStyleArrayI10vector_mapI12PropertyName4PPtrI6ObjectENSt3__24lessIS3_EENS7_9allocatorINS7_4pairIS3_S6_EEEEEEEvRT_17TransferMetaFlags
ecl:_ClipperBase_Reset_m1156852959
b2q:dynCall_iifiii
Lfn:_HashSet_1__ctor_m620629637_gshared
Y_a:__Z21HasAlphaTextureFormat13TextureFormat
mea:__ZN12AudioManager6UpdateEv
R_a:__ZN14ImageReference9BlitImageERKS_NS_8BlitModeE
yO:__ZN8Animator12AddToManagerEv
ePc:__Z26ApplyBlendShapesToVerticesR12SkinMeshInfoRKN4math5_int4EPNS1_8floatNx3ES6_
EWl:_FrameData_get_evaluationType_m346157481_AdjustorThunk
E1d:__ZNK5physx2Gu16SupportLocalImplINS0_11ConvexHullVEE9doSupportERKNS_6shdfnd3aos5Vec3VERNS5_6FloatVESA_
Kac:__ZN23CachedSerializationDataD2Ev
Qsc:__ZNK25CameraStackRenderingState31CalculateStereoCameraTargetTypeEv
Aqb:__ZN14RenderSettings23VirtualRedirectTransferER14SafeBinaryRead
kok:_InternalEnumerator_1_get_Current_m114240259_gshared
xQd:__ZNK13b2CircleShape5CloneEP16b2BlockAllocator
n3n:_Array_InternalArray__set_Item_TisLabelFixup_t858502054_m1298473658_gshared
pA:__ZNSt3__227__insertion_sort_incompleteIR17DetailNodeYSorterP16DetailMeshBVNodeEEbT0_S5_T_
yBk:_Array_InternalArray__get_Item_TisLink_t3209266973_m1574224299_gshared
vxp:_Vector4_set_Item_m1183742235
A6c:__Z36Renderer_Set_Custom_PropSortingOrderP12Il2CppObjecti
Y1c:__Z57Register_UnityEngine_Material_INTERNAL_CALL_SetVectorImplv
Qlm:_SymmetricAlgorithm_get_Key_m3241860519
H1k:_U3CMouseDragOutsideRectU3Ec__Iterator1_Reset_m2233410497
oYd:__ZN10Collider2DC2E10MemLabelId18ObjectCreationMode
Nca:__ZN19AudioPlayableOutput22OnConnectionHashChangeEv
Lhb:__Z17IsObjectAvailablei
aKb:__ZN12InputManagerD0Ev
Cuo:_Queue_1_Peek_m1713833142_gshared
rNm:_ExecutionContext_Capture_m681135907
Kue:__ZN5physx2Sc9RigidCore20removeShapeFromSceneERNS0_9ShapeCoreEb
fdk:_InternalEnumerator_1_System_Collections_IEnumerator_get_Current_m2889979481_AdjustorThunk
VOq:___ctype_b_loc
xRq:_posix_memalign
tmn:_Enumerator_System_Collections_IEnumerator_Reset_m2842130674_gshared
Lpf:__ZN5physx11RTreeCooker18buildFromTrianglesERNS_2Gu5RTreeEPKNS_6PxVec3EjPKtPKjjRNS_6shdfnd5ArrayIjNSB_19ReflectionAllocatorIjEEEEPNS0_13RemapCallbackEfNS_17PxMeshCookingHint4EnumE
Voe:__ZN5physx6shdfnd5ArrayIPvNS0_15InlineAllocatorILj256ENS0_19ReflectionAllocatorINS_14NpArticulationEEEEEE15growAndPushBackERKS2_
gzp:_Water2D_Tool_Add_m3324359808
xzn:_ASN1_GetBytes_m3305539297
mCg:_Clipper_DisposeScanbeamList_m457026044
Uqa:__ZNK15MonoScriptCache7ReleaseEv
Sbf:__ZN5physx9PxTaskMgrC2EPNS_15PxCpuDispatcherEPNS_15PxGpuDispatcherEPNS_15PxSpuDispatcherE
ai:_glBindTexture
zPq:_snprintf
Zwg:_SwordFishTransition_Update_m2216296793
vdo:_DefaultComparer_GetHashCode_m2260977957_gshared
Tgn:_KeyValuePair_2__ctor_m844205450_gshared
Had:__Z51Register_UnityEngine_Physics2D_get_gravity_Injectedv
rQb:__Z36scripting_liveness_calculation_begin17ScriptingClassPtriPFvPP12Il2CppObjectiPvES3_PFvvES7_
JF:__ZN7mecanim12statemachine13StateConstant8TransferI24GenerateTypeTreeTransferEEvRT_
K0q:dynCall_viiiiiifi
W7q:_emscripten_glGetProgramInfoLog__wrapper
SZ:__ZN25AnimatedPropertyEvaluator29BindCurveToScriptingObjectPtrERKN13AnimationClip10FloatCurveEj18ScriptingObjectPtrb
Iyq:__ZN6il2cpp2vm5Field14IsThreadStaticEP9FieldInfo
FVm:_UnitySerializationHolder_GetModuleData_m1550266881
Rsa:__ZN17PersistentManager23DestroyFromFileInternalEi
yNl:_Display__ctor_m501911701
TNo:_ReadOnlyCollection_1_System_Collections_Generic_IListU3CTU3E_Insert_m1020890112_gshared
gkj:_DefaultControls_SetDefaultTextValues_m1943359795
Jvh:__Z62RuntimeInvoker_TMP_CharacterInfo_t3185626797_Int32_t2950945753PFvvEPK10MethodInfoPvPS4_
$lc:__Z19SetupMotionMatricesR6CameraR18RPDataMotionVector
S_p:__ZL7log2_64y
Gkl:_TypeConverterAttribute_Equals_m1580461255
qY:__ZN26AnimatorControllerPlayable18PrepareForPlaybackERN7mecanim6memory9AllocatorE
RS:__ZN7mecanim5human25HumanPoseAddOverrideLayerERNS0_9HumanPoseERKS1_fRKNS_6bitsetILj83EEE
_1e:__ZN5physx19PxsMaterialCombiner24combineIsotropicFrictionERKNS_15PxsMaterialDataES3_
p5o:_PKCS12_Decrypt_m1280162536
odk:_InternalEnumerator_1_get_Current_m3081223448_gshared
xrq:__ZN6il2cpp6icalls8mscorlib6System9Threading6Thread11Thread_initEP12Il2CppThread
Lho:_ActivationControlPlayable_OnGraphStart_m4288081744
wnb:__ZN10VertexDataC2ERKS_17ShaderChannelMask10MemLabelId
Mjd:__ZL22Transfer_ManagedObjectI9JSONWriteLb1EEvRK29SerializationCommandArgumentsR31RuntimeSerializationCommandInfo
qJf:_otv_JSTF_validate
sxa:__ZN22CreateGpuProgramOutputC2Ev
HOl:_PersistentCallGroup_Initialize_m4253175514
aAl:_Boolean_System_IConvertible_ToChar_m4279513009_AdjustorThunk
PGl:_Hashtable__ctor_m1763145853
_kp:_WaypointProgressTracker_get_targetPoint_m81221885
r$j:_NumberFormatter_ScaleOrder_m3813786990
vJ:__Z21GetAnimatableBindTypeRK16TypeTreeIterator
vin:_Enumerator_System_Collections_IEnumerator_Reset_m2550940120_gshared
KBn:_PrivateKeyInfo_DecodeDSA_m771724585
b_q:__ZNSt13runtime_errorC2ERKNSt3__212basic_stringIcNS0_11char_traitsIcEENS0_9allocatorIcEEEE
Hyg:_U3CRevealCharactersU3Ec__Iterator0_Reset_m322011311
Tnf:__ZN5physx7Cooking16cookTriangleMeshERKNS_18PxTriangleMeshDescERNS_14PxOutputStreamE
ahq:__ZNK15dense_hashtableINSt3__24pairIK10KeyWrapperINS1_IPK10MethodInfoP11Il2CppClassEEEjEES9_17ReflectionMapHashIS8_EN14dense_hash_mapIS9_jSD_NS9_14EqualsComparerINS0_8equal_toIS8_EEEENS0_9allocatorISB_EEE9SelectKeyESI_SK_E23find_position_with_hashERSA_j
fIc:__ZN8GUILayer12CleanupClassEv
fme:__ZN5physx2Sc7ElementD0Ev
NTm:_UInt32_System_IConvertible_ToSByte_m1061556466
qqf:__ZN5physx6shdfnd10Foundation7releaseEv
YEj:_WellKnownClientTypeEntry__ctor_m2471908952
z1p:__ZN6il2cpp2vm5Class4InitEP11Il2CppClass
zg:_emscripten_glBindBuffer
H0j:_NumberFormatter_FormatRoundtrip_m19342689
BEj:_RemotingServices_CreateClientProxyForContextBound_m783705199
wPc:__ZNK15GUIEventManager15GetEventAtIndexEi
zYf:__ZN2UI14CanvasRenderer17SyncDirtyElementsER8JobFence
j_m:_Enumerator_System_Collections_IEnumerator_get_Current_m3816090481_gshared
ZDq:__ZN6il2cpp5utils11StringUtils15StringDuplicateEPKc
qdo:_DefaultComparer_Equals_m2480133610_gshared
Jwa:__ZNK9ShaderLab21ShaderRasterStateDesc16ToGfxRasterStateEPK19ShaderPropertySheetS3_R14GfxRasterState
mxk:_Array_Sort_TisVector3_t3722313464_m1915176437_gshared
sNq:__ZN6il2cpp2os9EventImplC2Ebb
Bud:__Z12RangedRandomR5RandNRKiS2_
UTo:_List_1_get_Item_m2113769949_gshared
x4k:_MaskableGraphic_OnTransformParentChanged_m329502413
tL:__ZNSt3__26vectorIN13AnimationClip9PPtrCurveE13stl_allocatorIS2_L18MemLabelIdentifier26ELi16EEE6resizeEj
Ixa:__Z20IsMatrixBuiltinParamPKcPi
inm:_String_memcpy4_m979367827
HAk:_PlayableExtensions_SetInputCount_TisPlayable_t459825607_m456450616_gshared
uLm:_UnicodeEncoding_GetBytesInternal_m1902824297
eGc:__ZN8Renderer19PostInitializeClassEv
NXk:_Array_FindIndex_TisRuntimeObject_m2504082708_gshared
s_n:_Array_InternalArray__ICollection_Add_TisSpriteData_t3048397587_m2279685385_gshared
h7o:_X509Chain_FindCertificateRoot_m1937726457
egl:_PlatformerCharacter2D_Move_m2809813054
g7p:__ZN6il2cpp2vm13MetadataCache23GetMethodGenericContextEPK10MethodInfo
M0i:_U3CFireU3Ec__Iterator2_MoveNext_m2084972149
RTq:__ZNKSt3__27num_getIwNS_19istreambuf_iteratorIwNS_11char_traitsIwEEEEE15__do_get_signedIxEES4_S4_S4_RNS_8ios_baseERjRT_
KFi:__ZL61ProCamera2DParallax_t281912467_CustomAttributesCacheGeneratorP21CustomAttributesCache
CJq:__ZN6il2cpp6icalls8mscorlib6System8Delegate23CreateDelegate_internalEP20Il2CppReflectionTypeP12Il2CppObjectP22Il2CppReflectionMethodb
k$m:_Enumerator_System_Collections_IEnumerator_get_Current_m921113401_AdjustorThunk
cac:__ZN18DelayedCallManager18CancelCallDelayed2E4PPtrI6ObjectEPF15CallObjectStatePS1_PvES7_
sbb:__ZN25ThreadsafeLinearAllocator10ReallocateEPvji
dWb:__Z18Transfer_BlittableI14SafeBinaryReadLb1E11QuaternionfEvRK29SerializationCommandArgumentsR31RuntimeSerializationCommandInfo
pse:__ZNK5physx18PxArticulationLink8isKindOfEPKc
qJa:__ZN18SpriteAtlasManagerD0Ev
Cd:invoke_fiifffi
r4n:_Array_InternalArray__set_Item_TisIntPoint_t2151561958_m2726695487_gshared
bVe:__ZN5physx13NpVolumeCache13onOriginShiftERKNS_6PxVec3E
uYm:_Enumerator_System_Collections_IDictionaryEnumerator_get_Key_m1314958700_gshared
eFb:__ZN10Matrix4x4f8TransferI14SafeBinaryReadEEvRT_
dp:FUNCTION_TABLE_vifiiiiiiiiiiiiiiiiii
Iip:_CameraRefocus__ctor_m2622592662
z2o:_List_1_CheckMatch_m4165538571_gshared
auj:_CryptographicUnexpectedOperationException__ctor_m2381988196
rkq:__ZN14dense_hash_mapI10KeyWrapperIPK22Il2CppGenericParameterEPK24MonoGenericParameterInfoN6il2cpp5utils11PointerHashIS2_EENS4_14EqualsComparerINSt3__28equal_toIS3_EEEENSD_9allocatorINSD_4pairIKS4_S7_EEEEE15set_deleted_keyERSJ_
kY:__ZN14AvatarPlayback8StopTimeEv
bgk:_InternalEnumerator_1_System_Collections_IEnumerator_get_Current_m4213507601_gshared
VDa:__Z6AppendRKN4core12basic_stringIcNS_20StringStorageDefaultIcEEEEPKc
gRp:_AnimationClipPlayable__ctor_m2913235724
pfp:_VirtualAxis__ctor_m1869943658
ikl:__KeysEnumerator_MoveNext_m4289758929
IXf:__ZNSt3__218__insertion_sort_3IRNS_6__lessIN2UI14DepthSortEntryES3_EEPS3_EEvT0_S7_T_
Lpq:__ZN6il2cpp2vm6Thread10InitializeEv
Tqp:_GUIUtility_RemoveCapture_m1294193818
SWa:__ZN7ApiGLES18ClearBufferSubDataEjN2gl12BufferTargetEll
X$:__ZN8Animator7SetBoolEib
JWc:__Z37Camera_Get_Custom_PropAllCamerasCountv
BDb:__ZN14Texture2DArray8TransferI18StreamedBinaryReadILb0EEEEvRT_
Lve:__ZN5physx15NpActorTemplateINS_18PxArticulationLinkEED2Ev
aqc:__Z18ApplyOcclusionMaskR19ProbeOcclusionCacheRK17LightProbeContextRK10RenderNodeb
kQf:_Split_Cubic
Tb:invoke_fiiii
Eil:_Water2D_Simulation_UpdateTopLeftRightHandles_m3691539794
e1k:_InputField_OnSubmit_m3583210804
Ufp:_CrossPlatformInputManager_UnRegisterVirtualButton_m2844659319
s2q:dynCall_viiiiiiffii
bep:_Uri_CheckHostName_m2213216182
Tjg:_TMP_MeshInfo_ClearUnusedVertices_m1586513602
OFk:_HMAC_set_Key_m3535779141
rYq:__ZNKSt3__25ctypeIcE9do_narrowEPKcS3_cPc
$Dl:_ArrayListWrapper_Contains_m2641184447
YPf:_ft_black_render
Sxh:__Z92RuntimeInvoker_RuntimeObject_Int32_t2950945753_Int16_t2552820387_RuntimeObject_RuntimeObjectPFvvEPK10MethodInfoPvPS4_
N_g:__Z177RuntimeInvoker_Int32_t2950945753_RuntimeObject_Int32_t2950945753_Int32_t2950945753_RuntimeObject_Int32_t2950945753_EncoderFallbackBufferU26_t2343550713_CharU5BU5DU26_t3299466565PFvvEPK10MethodInfoPvPS4_
l4q:dynCall_viiifi
A3a:__ZN18GfxFramebufferGLES20ActiveContextChangedEPP17RenderSurfaceBaseS2_
r3a:__Z19PluginsRenderMarkeri
x$:__ZN10HumanTrait18InitializeBoneNameEv
ALa:__ZNSt3__26vectorIN9ShaderLab20SerializedSubProgram15StructParameterENS_9allocatorIS3_EEE6assignINS_11__wrap_iterIPS3_EEEENS_9enable_ifIXaasr21__is_forward_iteratorIT_EE5valuesr16is_constructibleIS3_NS_15iterator_traitsISC_E9referenceEEE5valueEvE4typeESC_SC_
Hgn:_KeyValuePair_2_ToString_m823870646_gshared
Kde:__ZNK5physx3Ext5JointINS_15PxDistanceJointENS_30PxDistanceJointGeneratedValuesEE18getConstraintFlagsEv
mwq:__ZNSt3__214__split_bufferIN6il2cpp2vm5Image20EmbeddedResourceDataERNS_9allocatorIS4_EEEC2EjjS7_
cFe:__ZNK5physx7NpCloth25getNbSelfCollisionIndicesEv
q3:__ZN12AudioManager17RemoveAudioSourceEP11AudioSource
I9q:_emscripten_glBindProgramARB__wrapper
zlp:_TMP_TextUtilities_FindNearestLine_m3668775456
Epl:_X509Certificate2Collection_Add_m3151757943
UFl:_CaseInsensitiveHashCodeProvider_get_DefaultInvariant_m4264275163
c$g:__Z195RuntimeInvoker_Int32_t2950945753_RuntimeObject_Int32_t2950945753_Int32_t2950945753_Int32_t2950945753_RuntimeObject_DecoderFallbackBufferU26_t3866396827_ByteU5BU5DU26_t4057885439_SByte_t1669577662PFvvEPK10MethodInfoPvPS4_
sVe:__ZN5physx2Sc5Scene22setNbContactDataBlocksEj
nha:__ZN5physx14PxLightCpuTask12addReferenceEv
nQd:__Z10b2DistanceP16b2DistanceOutputP14b2SimplexCachePK15b2DistanceInput
tph:__Z86RuntimeInvoker_Int32_t2950945753_Color32_t2600501292_Color32_t2600501292_RuntimeObjectPFvvEPK10MethodInfoPvPS4_
dAb:__ZN21EnlightenSceneMapping8TransferI19StreamedBinaryWriteILb0EEEEvRT_
nip:_FireLight_Extinguish_m4146025917
lU:__ZN7mecanim8skeleton18CreateSkeletonMaskEjPKNS0_19SkeletonMaskElementERNS_6memory9AllocatorE
Mdd:__ZN10GUIManager10DoGUIEventER10InputEventb
X$b:__Z35Transfer_Blittable_FixedBufferFieldI24GenerateTypeTreeTransferxEvRK29SerializationCommandArgumentsR31RuntimeSerializationCommandInfo
eKf:_otv_LangSys_validate
a1l:_RectOffset_get_right_m2294081512
xEf:__Z61Register_UnityEngine_Rigidbody_INTERNAL_CALL_GetPointVelocityv
$2n:_Array_InternalArray__set_Item_TisLink_t544317964_m1234244240_gshared
POf:_UNITY_TT_Init_Glyph_Loading
iMo:_ReadOnlyCollection_1_System_Collections_Generic_ICollectionU3CTU3E_Clear_m1624648842_gshared
alc:__Z20CalculateSqrDistanceRK8Vector3fRK4AABB
IBf:__ZN14PhysicsManager15ProcessContactsEv
wrj:_SerializationInfo_GetBoolean_m1756153320
i6d:__ZN21BoxTraceSegmentReport7onEventEjPj
Yre:__ZN5physx2Sc21ArticulationJointCore13setSwingLimitEff
l8:__Z32AudioMixerDuckingProcessCallbackP21UnityAudioEffectStatePfS1_jii
V1d:__ZL20HullProjectionCB_BoxRKN5physx2Gu13PolygonalDataERKNS_6PxVec3ERKNS_2Cm8Matrix34ERKNS7_23FastVertex2ShapeScalingERfSE_
DUl:_Mesh_get_uv2_m3615020997
iFc:__ZN26CustomRenderTextureManagerD2Ev
Leo:_EqualityComparer_1_System_Collections_IEqualityComparer_Equals_m4172006498_gshared
S7e:__ZN5physx14PxsAABBManager21selfCollideAggregatesEPKNS_19AggregateSortedDataE
i4:__ZN12AudioManager8TransferI24GenerateTypeTreeTransferEEvRT_
cTl:_Mathf_Round_m4098141538
JBd:__ZN16CustomDataModuleD0Ev
WZa:__Z25GetBytesFromTextureFormat13TextureFormat
Arq:__ZN6il2cpp6icalls8mscorlib6System9Threading6Thread20Thread_free_internalEP12Il2CppThreadi
_ff:__ZN5physx12_GLOBAL__N_112innerProductERKNS_14Px1DConstraintERS1_RKNS0_9MassPropsE
hkl:__KeysEnumerator_get_Current_m2996478063
a2q:dynCall_iifff
cde:__ZN19ControllerHitReportD2Ev
Hsa:__Z32scripting_class_get_assemblyname17ScriptingClassPtr
lKf:_otv_ExtensionSubst_validate
sQd:__ZN9b2Simplex9ReadCacheEPK14b2SimplexCachePK15b2DistanceProxyRK11b2TransformS5_S8_
Pba:__ZN17AudioClipPlayable18OnApplicationPauseEb
PB:__Z24CrowdUpdateMultiThreadedRK17ReadonlyCrowdInfoR15UpdateCrowdInfoP12CrowdManagerPP12NavMeshQueryf
Cdh:__Z99RuntimeInvoker_Boolean_t97287965_Int32_t2950945753_PointerEventDataU26_t867828220_SByte_t1669577662PFvvEPK10MethodInfoPvPS4_
Rad:__Z50Register_UnityEngine_Rigidbody2D_AddForce_Injectedv
e4e:__ZN5physx26PxcFrictionPatchStreamPairC2ERNS_17PxcNpMemBlockPoolE
Jek:_InternalEnumerator_1_get_Current_m2128158355_AdjustorThunk
u9a:__ZN9GfxDevice21RegisterNativeTextureE9TextureIDi16TextureDimension
Pmj:_GraphicRegistry__ctor_m1851575309
UKq:__ZN6il2cpp6icalls8mscorlib6System10Reflection4Emit11TypeBuilder20create_generic_classEP27Il2CppReflectionTypeBuilder
Dkm:_SHA1Internal_FillBuff_m3615718415
HTk:_PlayableHandle_IsPlayableOfType_TisAnimationLayerMixerPlayable_t3631223897_m201603007_gshared
Nga:__Z60Register_UnityEngine_AudioListener_GetNumExtensionPropertiesv
dl:_emscripten_glUniformMatrix4fv
xoq:__ZN15dense_hashtableINSt3__24pairIK10KeyWrapperINS1_IP11Il2CppClassjEEES4_EES6_N6il2cpp8metadata14ArrayClassHashEN14dense_hash_mapIS6_S4_SB_NS6_14EqualsComparerINSA_17ArrayClassCompareEEENS0_9allocatorIS8_EEE9SelectKeyESF_SH_E13set_empty_keyERKS8_
YQb:__ZN12ScriptMapperD2Ev
fvf:__ZN9Rigidbody13AwakeFromLoadE17AwakeFromLoadMode
HUl:_Mesh_get_colors32_m1253190811
pwd:__ZN9SubModule8TransferI14SafeBinaryReadEEvRT_
OGq:_GC_stopped_mark
y3q:dynCall_viii
cIl:_AnimationCurve_Finalize_m2397002729
cqd:__ZN14ParticleSystem15AddCustomLightsERK27LocalLightCullingParametersRK11CullResultsR12ActiveLightsRi9LightType
Dxe:__ZNK5physx14NpSceneQueries10multiQueryINS_12PxOverlapHitEEEbRKNS_15MultiQueryInputERNS_13PxHitCallbackIT_EENS_7PxFlagsINS_9PxHitFlag4EnumEtEEPKNS_12PxQueryCacheERKNS_17PxQueryFilterDataEPNS_21PxQueryFilterCallbackEPNS_20BatchQueryFilterDataE
Kqj:_SerializationCallbacks__cctor_m1674315180
B3c:__Z52Register_UnityEngine_RenderTexture_Internal_GetWidthv
IHq:_GC_check_leaked
AOa:__ZN9ShaderLab20SerializedSubProgram16TextureParameter8TransferI19StreamedBinaryWriteILb0EEEEvRT_
rc:invoke_fiiiiiiiifiiiif
Uod:__ZN14ParticleSystem23RendererBecameInvisibleEv
Xab:__ZNK7Hash12812PackToUInt32Ev
Jtg:_NPC_OnTriggerStay2D_m1779414465
Vmg:_TMP_SubMeshUI_OnDestroy_m4279727478
MUf:__ZZN20TextRenderingPrivate8TextMesh15InitializeClassEvEN31FunctorImpl_299kDidAddComponent4CallEPviR11MessageData
uua:__ZNSt3__227__insertion_sort_incompleteIRNS_6__lessI14ObjectLoadDataS2_EEPS2_EEbT0_S6_T_
Rla:__ZN11UnityEngine15CloudWebService16SessionContainer8AddEventEPNS0_14CloudEventInfoE
j8a:__Z4TrimRKN4core12basic_stringIcNS_20StringStorageDefaultIcEEEES5_
gTd:__ZN13dynamic_arrayIN19CompositeCollider2D11SubColliderELj4EE12emplace_backEv
xzk:_Dictionary_2_Do_ICollectionCopyTo_TisKeyValuePair_2_t3842366416_m1399105608_gshared
Qol:_X509Certificate2_Import_m4026562329
wym:_Convert_ToDouble_m996590115
q5j:_DynamicMethod_destroy_dynamic_method_m2651031212
WHg:_BoundariesAnimator__ctor_m552030375
Pbr:_glGetStringi__wrapper
lYp:_BoxCollider_get_center_m3697516117
Ibo:_DefaultComparer_Equals_m4141672650_gshared
$Bb:__ZN10VertexData8TransferI14SafeBinaryReadEEvRT_
dre:__ZN5physx19NpArticulationJointD0Ev
y5:__ZN4FMOD8ChannelI8setDelayE14FMOD_DELAYTYPEjj
dDg:_Clipper_AddLocalMinPoly_m891229767
vzf:__ZN5physx9NpPhysics14createInstanceEjRNS_12PxFoundationERKNS_17PxTolerancesScaleEbPNS_20PxProfileZoneManagerE
hEf:__Z59Register_UnityEngine_Physics_INTERNAL_CALL_Internal_Raycastv
egn:_HashSet_1_GetEnumerator_m3346268098_gshared
rLq:__ZN6il2cpp5utils6Memory13AlignedMallocEjj
_em:_BinaryWriter_Write_m3922404942
UPj:_StrongNameKeyPair_GetRSA_m2008774769
k1k:_Selectable_get_animator_m2899312855
Kpa:__ZL20SortItemByInstanceIDRKN18AwakeFromLoadQueue4ItemES2_
Qvp:_Vector2_op_Multiply_m2347887432
bzf:__ZN5physx6shdfnd5ArrayIPvNS0_15InlineAllocatorILj256ENS0_19ReflectionAllocatorINS_24NpPtrTableStorageManager8PtrBlockILi16EEEEEEEE15growAndPushBackERKS2_
MLm:_UTF32Encoding_GetBytes_m3180303867
Dkl:_TypeConverterAttribute__ctor_m1774069684
wU:__ZNK34AnimationStateMachineMixerPlayable26GetInterruptedPosePlayableEv
v3f:__ZN20UnityConnectSettings8TransferI24GenerateTypeTreeTransferEEvRT_
qxd:__ZN25IParticleSystemProperties8PropertyIfNS_11ClampRadiusEE8TransferI14SafeBinaryReadEEvRT_PKc
xW:__ZN34BlobWriteTransferSTLStyleArrayImplI22OffsetPtrArrayTransferIbEEclERS1_17TransferMetaFlagsR9BlobWrite
Sad:__Z60Register_UnityEngine_Rigidbody2D_AddForceAtPosition_Injectedv
TZj:_MonoType_GetConstructors_m2574682189
J3l:_SceneManager_LoadSceneAsyncNameIndexInternal_m4031498323
ZBe:__ZN5physx7NpShape13setRestOffsetEf
mx:__ZN12NavMeshAgent5ResetEv
qll:_ServicePointManager_FindServicePoint_m4119451290
mEn:_ReadOnlyCollection_1_System_Collections_IList_Clear_m2007013334_gshared
zFa:__ZL31InitializeRendererUpdateManagerPv
_Hj:_ParameterInfo__ctor_m2779026345
Vrp:_Shader_EnableKeyword_m3103559844
e$k:_InputField_set_onValueChange_m1251390545
zCe:__ZN5physxL11getTriangleERKNS_2Gu12TriangleMeshEjPNS_6PxVec3EPKS4_PKvRKNS_2Cm8Matrix34Eb
mZf:__ZN2UI13CanvasManager14GetRenderOrderEPKNS_6CanvasE
O$j:_NumberFormatter_get_IsZeroInteger_m2263284741
gdd:__ZN8GUIState12GetControlIDEi9FocusTypeRK5RectTIfE
wTl:_Matrix4x4_INTERNAL_CALL_Inverse_m149548436
FDe:__ZNK5physx7NpCloth16lockParticleDataEv
YGj:_ObjectWriter_GetAssemblyNameId_m2316410453
C3o:_X509Certificate_PEM_m2020851166
ltj:_SByte_Equals_m865896384_AdjustorThunk
p1n:_Array_InternalArray__Insert_TisDateTime_t3738529785_m2308632330_gshared
KKb:__ZN11TimeManager8TransferI19StreamedBinaryWriteILb0EEEEvRT_
ZOl:_UnityEventBase_RemoveListener_m3326364145
hMk:_TlsServerCertificateRequest_ProcessAsTls1_m3214041063
kwp:_Vector2_op_UnaryNegation_m2172448356
O5c:__Z41Register_UnityEngine_GL_set_invertCullingv
AKf:_compare_uni_maps
rAo:_Collection_1_Insert_m3559276190_gshared
p1f:__ZN11UnityEngine15PlatformWrapper27GetGraphicsCapsSupportFlagsEv
Q0:__Z34AnimationClip_Get_Custom_PropEmptyP12Il2CppObject
vEf:__Z63Register_UnityEngine_Rigidbody_INTERNAL_CALL_AddForceAtPositionv
dZe:__ZN5physx13NpRigidStatic9visualizeERNS_2Cm12RenderOutputEPNS_7NpSceneE
y3b:__ZN12NativeBufferI16Converter_StringE15SetupForWritingER9ArrayInfo
czn:_SequentialSearchPrimeGeneratorBase_GenerateSearchBase_m3595783982
JIa:__ZN13RuntimeStaticI18AssetBundleManagerLb1EE16StaticInitializeEPv
Kil:_Water2D_Simulation_GenerateParticleSystemAndSoundEffect_m3894864872
yl:_emscripten_glVertexAttrib3fv
EDd:__ZL24GenerateParticleGeometryIL24ParticleSystemRenderMode0ELb1ELb0EL25ParticleSystemRenderSpace4EEvPfRK22ParticleSystemTempDataRK26ParticleSystemRendererDataRK21ParticleSystemModulesRK23ParticleSystemParticlesRK31ParticleSystemParticlesTempData
z$e:__ZN5physx6shdfnd8PoolBaseINS_2Sc35ParticleElementRbElementInteractionENS0_19ReflectionAllocatorIS3_EEE15disposeElementsEv
ykm:_SHA1CryptoServiceProvider_Dispose_m1653611664
RCl:_Char_ToString_m278452217
IZl:_PlayableOutputHandle_GetPlayableOutputType_Injected_m2312897756
hCm:_DateTime_System_IConvertible_ToUInt16_m4182197229_AdjustorThunk
Zmm:_String_Format_m1881875187
CEk:_BigInteger_op_RightShift_m460065452
Lil:_Water2D_Simulation_ResetVariables_m4021968959
Nac:__ZN13MonoBehaviour22DoScriptRebuildWarningEv
Gvo:_Collection_1_set_Item_m3876769672_gshared
OWc:__Z38Camera_CUSTOM_INTERNAL_CALL_RaycastTryP12Il2CppObjectRK3Rayfi
gFm:_Decimal_Multiply_m462893147
WQk:_Array_InternalArray__ICollection_Contains_TisTMP_MeshInfo_t2771747634_m644520357_gshared
iJc:__ZNK10GameObject22GetComponentPtrAtIndexEi
NHc:__ZZL23RegisterLightPropertiesR22GenericPropertyBindingEN22Wrapper_LightSpotAngle13GetFloatValueEPv
n$i:_U3CInsideTriggerRoutineU3Ec__Iterator0_Reset_m2947111541
Mmp:_VertexGradient__ctor_m3789996119
odj:_ExecuteEvents_get_cancelHandler_m1220395193
ihl:_Water2D_Ripple_Start_m3267655033
xVf:__Z38TextGenerator_Get_Custom_PropLineCountP12Il2CppObject
i3o:_InternalAsyncResult_SetComplete_m963842420
OJm:_Encoding_GetEncoding_m2801244948
Sed:__ZN11IMGUIModule25GetGUIStyleScriptingClassEv
cNf:_tt_get_interface
ZOk:_SslStreamBase_EndRead_m495357226
lrq:__ZN6il2cpp5utils9PathUtils7CombineIcEENSt3__212basic_stringIT_NS3_11char_traitsIS5_EENS3_9allocatorIS5_EEEERKSA_SC_
sEf:__Z46Register_UnityEngine_Rigidbody_set_isKinematicv
a8e:__ZN5physx14PxsAABBManager16processBPResultsERKNS_20PxsComputeAABBParamsE
ald:__ZN9JSONWrite8TransferI13dynamic_arrayIiLj4EEEEvRT_PKc17TransferMetaFlags
h6e:__ZN5physx23PxsBroadPhaseContextSapD2Ev
B1g:__Z64RuntimeInvoker_RuntimeObject_SByte_t1669577662_SByte_t1669577662PFvvEPK10MethodInfoPvPS4_
CLc:__ZN13PlayableGraph21InvalidateMultithreadEv
pqp:_GUIScrollGroup_CalcHeight_m3173593443
gwd:__ZN11ForceModule8TransferI14SafeBinaryReadEEvRT_
vde:__ZNK5physx15PxDistanceJoint19getConcreteTypeNameEv
$Rn:_Nullable_1_Equals_m826260106_gshared
sra:__Z18ConvertUTF16toUTF8PPKtS0_PPhS2_15ConversionFlags
hCq:__ZN6il2cpp2os20PathErrnoToErrorCodeERKNSt3__212basic_stringIcNS1_11char_traitsIcEENS1_9allocatorIcEEEEi
ooi:__ZL68InputField_t3762917431_CustomAttributesCacheGenerator_m_KeyboardTypeP21CustomAttributesCache
F_p:__ZL16my_g_bit_nth_msfj
Jil:_Water2D_Simulation_Cross_m689825153
F_:__ZN9Animation12CleanupClassEv
Tto:_Enumerator_MoveNext_m3662315381_AdjustorThunk
RLk:_TlsClientFinished_ProcessAsTls1_m2429863130
mjc:__Z23SetupStereoFlareElementP11FlareVertexRK8Vector2fS3_S3_RK11ColorRGBA32RK10Matrix4x4fRK8Vector3fb
JQk:_Array_InternalArray__ICollection_Contains_TisUInt16_t2177724958_m3393176156_gshared
n5j:_DerivedType_GetCustomAttributes_m851300494
vb:invoke_iiiifiiii
aHn:_ReadOnlyCollection_1_IndexOf_m3549361731_gshared
mHd:__ZN11ShapeModule13DidDeleteMeshEv
dGe:__ZNK5physx2Sc9ClothCore16getRestPositionsEPNS_6PxVec4E
xpj:_Image_get_preferredWidth_m580264960
Q2e:__ZN5physx20PxcSweepConvexConvexERKNS_11PxsCCDShapeES2_PKNS_12PxsRigidBodyES5_RKNS_11PxTransformES8_S8_S8_fRNS_6PxVec3ESA_RNS_10PxcNpCacheERNS_18PxcNpThreadContextEf
nsm:_String_Join_m2050845953
kJe:__ZN5physx15PxsParticleDataD0Ev
t4a:__ZL19BlitFramebufferImplRN4gles23BlitFramebufferDrawQuadER9GfxDevice9TextureIDRK8Vector4f
Jnf:__ZN5physx6shdfnd5ArrayIPvNS0_19ReflectionAllocatorIN17PxcPoolMallocData9PoolData8EEEE15growAndPushBackERKS2_
v4n:_Array_qsort_TisChar_t3634460470_m1841999294_gshared
E3k:_LayoutUtility_U3CGetPreferredWidthU3Em__1_m74273510
Z1q:dynCall_viiiiiiiiiiiiii
Tpg:_TMP_Text_IsTagName_m4130576521
tOf:_UNITY_FT_List_Add
IFc:__ZN14Texture2DArray11InitTextureEiii13TextureFormatb
KXn:_InvokableCall_1_Invoke_m1524307439_gshared
Prf:__ZN5physx15PxGeometryQuery14getWorldBoundsERKNS_10PxGeometryERKNS_11PxTransformEf
bpn:_List_1_IndexOf_m3191092948_gshared
sHe:__ZN5physx2Sc9ClothCore18setSolverFrequencyEf
ffm:_Directory_CreateDirectoriesInternal_m3735342319
rAf:__ZN8ColliderC2E10MemLabelId18ObjectCreationMode
fMg:_ProCamera2D_get_CameraTargetPosition_m3423639308
glq:__ZN15dense_hashtableINSt3__24pairIK10KeyWrapperINS1_IPK11Il2CppImageP11Il2CppClassEEEjEES9_17ReflectionMapHashIS8_EN14dense_hash_mapIS9_jSD_NS9_14EqualsComparerINS0_8equal_toIS8_EEEENS0_9allocatorISB_EEE9SelectKeyESI_SK_E14squash_deletedEv
Flm:_SHAConstants__cctor_m1699027474
tKb:__ZN9InputAxis8TransferI18StreamedBinaryReadILb0EEEEvRT_
A1d:__ZN5physx2Gu16buildPartialHullERKNS0_13PolygonalDataEPNS0_12SupportLocalERNS0_14SeparatingAxesERKNS_6shdfnd3aos5Vec3VESC_
QNb:__Z14resize_trimmedINSt3__26vectorIN4core12basic_stringIcNS2_20StringStorageDefaultIcEEEE13stl_allocatorIS6_L18MemLabelIdentifier13ELi16EEEEEvRT_j
NWb:__Z18Transfer_BlittableI14SafeBinaryReadLb0EaEvRK29SerializationCommandArgumentsR31RuntimeSerializationCommandInfo
Q0n:_Array_InternalArray__ICollection_CopyTo_TisDoublePoint_t3941534089_m3111076328_gshared
Hcl:_Int128__ctor_m1269852507_AdjustorThunk
Xln:_Enumerator_System_Collections_IEnumerator_Reset_m1420519084_gshared
jbn:_Dictionary_2_CopyToCheck_m2443857744_gshared
Gtd:__ZN11NoiseModule17CalculateNoiseJobILi3ELb1ELb1EEEvP12NoiseJobData
Y5q:_emscripten_glFrustum__wrapper
mmm:_TripleDES_IsWeakKey_m2147489852
rqe:__ZNK5physx2Sc16ArticulationCore17releaseDriveCacheERNS_9PxcFsDataE
J5k:_GetRayIntersectionAllCallback_Invoke_m1316694896
ZOf:_UNITY_FT_List_Iterate
uYl:_PlayableHandle_GetInputCount_m888565651
Dee:__ZN5physx11NpAggregate7releaseEv
iCl:_Char_System_IConvertible_ToUInt64_m3536560782
Xdo:_EqualityComparer_1__cctor_m3452395357_gshared
Meq:__ZN6il2cpp2vm4Type6IsEnumEPK10Il2CppType
WN:__ZN19StreamedBinaryWriteILb0EE8TransferIKN4math7_float3EEEvRT_PKc17TransferMetaFlags
Thc:__Z20SyncFenceCullResultsR11CullResults
X6a:__ZN15TextureTFMethod20IsBoneCountSupportedEi
c0:__ZN26AnimatorControllerPlayable9GotoStateEiifff
q3h:__ZL109RenderTexture_t2108887433_CustomAttributesCacheGenerator_RenderTexture_GetTemporary_m1832746092____readWrite4P21CustomAttributesCache
FHm:_Double_ToString_m3828879243_AdjustorThunk
r9i:_TextMeshProUGUI_SetLayoutDirty_m2435243477
g$a:__ZL8StbAllocjPv
g$b:__Z22TransferField_NonArrayI17RemapPPtrTransfer27Converter_SimpleNativeClassI8GUIStyleEEvRK23StaticTransferFieldInfoR31RuntimeSerializationCommandInfoRT0_
TBe:__ZN5physx7NpShape12setMaterialsEPKPNS_10PxMaterialEt
kao:_Dictionary_2_System_Collections_Generic_ICollectionU3CSystem_Collections_Generic_KeyValuePairU3CTKeyU2CTValueU3EU3E_Contains_m904304246_gshared
Syc:__ZNK17AnimationCurveTplIfE20EvaluateWithoutCacheEfRf
_7g:__Z67RuntimeInvoker_Boolean_t97287965_Rect_t2360479859_SByte_t1669577662PFvvEPK10MethodInfoPvPS4_
o7:__ZN10AudioMixer23GetInitialSnapshotIndexEv
qYq:__ZNKSt3__25ctypeIcE9do_narrowEcc
g3j:_CustomAttributeData__ctor_m2966233049
Mfg:_TMP_InputField_get_onFocusSelectAll_m1824877463
HOc:__ZN4Mesh10SetNormalsEPK8Vector3fj
n_d:__Z66Register_UnityEngine_Physics2D_INTERNAL_CALL_GetRayIntersectionAllv
DFp:_AesManaged_CreateDecryptor_m692040246
sEg:_ArrestEventNPC_OnTriggerEnter2D_m3401454136
CL:__ZN17AnimationCurveTplIfE8TransferI14SafeBinaryReadEEvRT_
wGl:_Comparer__ctor_m2580215220
oxl:_ArithmeticException__ctor_m3551809662
pGd:__ZN22ParticleSystemRenderer15InitializeClassEv
xwc:__Z29StdTemplateConversionFunctionIybEbPvR14SafeBinaryRead
AAb:__ZNSt3__26vectorIN15QualitySettings14QualitySettingENS_9allocatorIS2_EEE6assignIPS2_EENS_9enable_ifIXaasr21__is_forward_iteratorIT_EE5valuesr16is_constructibleIS2_NS_15iterator_traitsIS9_E9referenceEEE5valueEvE4typeES9_S9_
c9d:__Z15raycast_capsuleRKN5physx10PxGeometryERKNS_11PxTransformERKNS_6PxVec3ES8_fNS_7PxFlagsINS_9PxHitFlag4EnumEtEEjPNS_12PxRaycastHitEbPFbRSD_PvESG_
grn:_List_1_CheckCollection_m1671972112_gshared
GLm:_UnicodeEncoding_GetPreamble_m3002287178
vId:__Z44Register_UnityEngine_ParticleSystem_get_timev
Tgf:__ZNK5physx34PxsSolverConstraintPostProcessTask7getNameEv
w7g:__Z52RuntimeInvoker_Color_t2555686324_Color32_t2600501292PFvvEPK10MethodInfoPvPS4_
ZPa:__ZN20GpuProgramParameters14AddVectorParamEPKcii15ShaderParamTypeiiiP16PropertyNamesSet
K2d:__ZN5physx2Gu23distancePointBoxSquaredERKNS_6PxVec3ES3_S3_RKNS_7PxMat33EPS1_
mzf:__ZN5physx9NpPhysics20MeshDeletionListener28onGuMeshFactoryBufferReleaseEPKNS_6PxBaseEtb
Rqg:_TMP_Text_StringBuilderToIntArray_m1857432271
rBk:_Array_InternalArray__get_Item_TisFPSColor_t1412560116_m1023441260_gshared
k5f:__ZNK12HeaderHelper3GetERKN4core12basic_stringIcNS0_20StringStorageDefaultIcEEEE
Lwk:_Array_Sort_TisRaycastResult_t3360306849_m3896233353_gshared
qKb:__ZN9InputAxis8TransferI14SafeBinaryReadEEvRT_
dqa:__ZNK21ExecutionOrderManager30GetCustomAwakeFromLoadQueueForEPKN5Unity4TypeE
nTe:__ZNK5physx7NpScene9getActorsENS_7PxFlagsINS_15PxActorTypeFlag4EnumEtEEPPNS_7PxActorEjj
F4f:__Z27RegisterModule_UnityConnectv
ZKc:__ZN13PlayableGraph15GetRootPlayableEi
Xhm:_MemoryStream_Expand_m3554752073
N7l:_DateTimeFormatInfo_get_RoundtripPattern_m796050488
d$e:__ZN5physx11NodeManagerD0Ev
Ivg:_SecretBlock_OnTriggerStay2D_m2793009965
a4l:_ScriptableObject_CreateInstance_m2611081756
GAg:_VertexShakeB_Awake_m2034102834
Hqj:_ObjectRecord_get_IsInstanceReady_m2304516395
jok:_InternalEnumerator_1_System_Collections_IEnumerator_get_Current_m1635397542_gshared
Cim:_Path__cctor_m3273994011
cAo:_Collection_1_System_Collections_IList_Insert_m1105646123_gshared
CNa:__ZN24GenerateTypeTreeTransfer8TransferINSt3__26vectorIN9ShaderLab20SerializedSubProgram14ConstantBufferENS1_9allocatorIS5_EEEEEEvRT_PKc17TransferMetaFlags
y$q:__ZNSt11logic_errorD2Ev
cCm:_DateTimeUtils_CountRepeat_m3396693018
TVd:__ZNK17Physics2DSettings22GetTypeVirtualInternalEv
Ybm:_Int32_System_IConvertible_ToUInt64_m2502338186
Xdl:_FloatingObject2D_GetPolygonVerticesWorldPosition_m1882048625
S6:__ZN10ObjectPoolIN4FMOD12ChannelGroupENS0_13ChannelGroupIEE7SetSizeEi
Mvg:_SettingsScript_SetVolume_m1584071520
H_q:__ZNSt3__212basic_stringIwNS_11char_traitsIwEENS_9allocatorIwEEED2Ev
nFp:_SymmetricTransform_FinalDecrypt_m764004682
VCn:_ReadOnlyCollection_1_System_Collections_Generic_ICollectionU3CTU3E_Remove_m2225120515_gshared
TAq:__ZN6il2cpp2os10ThreadImpl33UnregisterCurrentThreadForCleanupEv
$lp:_TMP_UpdateRegistry__ctor_m3647868402
Qap:_Parser_ParseGroupingConstruct_m263270497
X1p:__ZN6il2cpp2vm5Class16SetupNestedTypesEP11Il2CppClass
OBc:__ZN9Polygon2D7SetPathEiRK13dynamic_arrayI8Vector2fLj4EE
TZp:_RaycastHit_get_transform_m942054759_AdjustorThunk
xE:__ZN15SerializeTraitsINSt3__24pairI8StateKey10StateRangeEEE8TransferI14SafeBinaryReadEEvRS4_RT_
mlq:__ZN14dense_hash_mapI10KeyWrapperINSt3__24pairIPK9EventInfoP11Il2CppClassEEEj17ReflectionMapHashIS8_ENS9_14EqualsComparerINS1_8equal_toIS8_EEEENS1_9allocatorINS2_IKS9_jEEEEE15set_deleted_keyERSH_
ukj:_Dropdown_RefreshShownValue_m2806045241
nEe:__ZNK5physx7NpCloth25getMotionConstraintConfigEv
WBo:_Collection_1_ConvertItem_m1251806599_gshared
Osc:__ZN25CameraStackRenderingState19SetupLastEyeCamerasERK11CameraStack
ugb:__Z12GUIDToStringRK9UnityGUID
eFg:_Bossmon_Update_m2409359226
DGj:_CodeGenerator_EmitLoadTypeAssembly_m1985536832
Bzq:__ZN6il2cpp6icalls8mscorlib6System4Enum12get_hashcodeEP12Il2CppObject
P2:__ZN11SoundHandleC2ERKS_
NO:__ZN17AnimationPlayableC2E18DirectorPlayerType
B4f:__ZN22UnityAnalyticsSettingsC2Ev
J6p:__ZNK6il2cpp5utils11collections13ArrayValueMapIPK10Il2CppType17Il2CppInteropData26InteropDataToTypeConverterNS_8metadata14Il2CppTypeLessENS8_26Il2CppTypeEqualityComparerEE10find_firstERKS5_
XD:__ZN18AnimatorController23VirtualRedirectTransferER18StreamedBinaryReadILb0EE
Agm:_FileStream_get_CanSeek_m331583577
dvj:_DSAParameters_t1885824122_marshal_pinvoke_back
Uae:__ZN5physx3Cct26CharacterControllerManager24setOverlapRecoveryModuleEb
aV:__ZN8Animator22OnGraphTopologyChangedEP8Playablei
Tyn:_Kernel_MultiplyByDword_m1266935086
NDq:__ZN4utf89unchecked8utf8to16INSt3__220back_insert_iteratorINS2_12basic_stringIDsNS2_11char_traitsIDsEENS2_9allocatorIDsEEEEEEPKcEET_T0_SE_SD_
mR:__ZN17AnimationPlayable18DeallocateBindingsEv
wuc:__ZN6Camera25StandaloneRenderToCubemapEP7TextureiPFvPK9SceneNodePK4AABBR9IndexListPvESA_j
Eqb:__ZN14RenderSettings18TransferDeprecatedI14SafeBinaryReadEEvRT_
Xmp:_Event__ctor_m526447123
w2g:__Z88RuntimeInvoker_RuntimeObject_RuntimeObject_RuntimeObject_RuntimeObject_Int32_t2950945753PFvvEPK10MethodInfoPvPS4_
_Rm:_Type_ToString_m3975981286
Xpa:__ZN12TLSAllocatorI14StackAllocatorE8AllocateEji
Yra:__ZN16ScriptingManager18GetMonoScriptCacheEi
cbp:_ExpressionAssertion__ctor_m2554412824
Hop:_GUIUtility_Internal_GetHotControl_m2856765646
G6c:__Z51Register_UnityEngine_Renderer_set_shadowCastingModev
Cee:__ZNK5physx3Ext5JointINS_15PxDistanceJointENS_30PxDistanceJointGeneratedValuesEE11getBodyPoseEPKNS_12PxRigidActorE
$uk:_Array_Resize_TisCustomAttributeTypedArgument_t2723150157_m3021884250_gshared
h9c:__Z59AnimationOffsetPlayable_CUSTOM_GetRotationInternal_InjectedR9HPlayableR11Quaternionf
UWb:__Z18Transfer_BlittableI14SafeBinaryReadLb1EyEvRK29SerializationCommandArgumentsR31RuntimeSerializationCommandInfo
K9p:_WeakReference_Finalize_m2841826116
Zrd:__ZNSt3__27__sort5IR31SortCollisionEventsByGameObjectP22ParticleCollisionEventEEjT0_S5_S5_S5_S5_T_
c$j:_NullReferenceException__ctor_m3076065613
Yhd:__ZN8JSONRead8TransferIfEEvRT_PKc17TransferMetaFlagsb
xXm:_Enumerator_System_Collections_IDictionaryEnumerator_get_Entry_m3271511461_AdjustorThunk
G2k:_LayoutGroup_OnDisable_m3483954898
wPa:__ZN9ShaderLab7Program22ComputeSupportsShadowsEv
wBk:_Array_InternalArray__get_Item_TisChar_t3634460470_m324132692_gshared
_Ee:__ZN5physx7NpCloth25setSelfCollisionStiffnessEf
Nqm:_String_System_IConvertible_ToUInt16_m2888090399
qaa:__ZN11AudioSource21ApplyCachedParametersE12SoundChannel
S1j:_Assembly_InternalGetType_m3065345470
Hmo:_DiscreteTime_CompareTo_m1787608144
Lha:__ZN13Simd4iFactoryIN6detail9FourTupleEEC2Eiiii
CKl:_Camera_INTERNAL_CALL_ResetProjectionMatrix_m2771147534
$7i:_TextMeshPro_get_meshFilter_m3041871163
wRj:_ResourceSet__ctor_m3356376607
H4m:_Enumerator_MoveNext_m1018375923_gshared
MLh:__ZL56_ParameterInfo_t489405856_CustomAttributesCacheGeneratorP21CustomAttributesCache
Fzb:__ZN15SerializeTraitsI33EnlightenTerrainChunksInformationE8TransferI14SafeBinaryReadEEvRS0_RT_
yTm:_UInt32_System_IConvertible_ToByte_m4072781199_AdjustorThunk
dOd:__ZN6b2Body12SetTransformERK6b2Vec2f
uGc:__ZNK32RendererMaterialAnimationBinding9BindValueER6ObjectRKN11UnityEngine9Animation14GenericBindingERNS3_10BoundCurveE
kgq:__ZN15dense_hashtableINSt3__24pairIK10KeyWrapperIPK10Il2CppTypeEjEES6_N6il2cpp8metadata14Il2CppTypeHashEN14dense_hash_mapIS6_jSB_NS6_14EqualsComparerINSA_26Il2CppTypeEqualityComparerEEENS0_9allocatorIS8_EEE9SelectKeyESF_SH_E4findERS7_
Y3m:_Transform_1_Invoke_m1731820209_gshared
Jrb:__Z13GetIAnimationv
u$a:__ZL18stbir__support_onef
IUf:__ZN20TextRenderingPrivate8TextMesh11SetFontSizeEi
cqm:_Single_CompareTo_m189772128
Jjd:__Z26Transfer_UnityEngineObjectI9JSONWriteLb0EEvRK29SerializationCommandArgumentsR31RuntimeSerializationCommandInfo
Grk:_DefaultComparer_Compare_m4042058291_gshared
ZJl:_Camera_set_transparencySortMode_m2548686628
jBd:__ZN14VelocityModuleD2Ev
cvb:__ZNSt3__26vectorIN4core12basic_stringIcNS1_20StringStorageDefaultIcEEEE13stl_allocatorIS5_L18MemLabelIdentifier1ELi16EEE6assignINS_11__wrap_iterIPS5_EEEENS_9enable_ifIXaasr21__is_forward_iteratorIT_EE5valuesr16is_constructibleIS5_NS_15iterator_traitsISF_E9referenceEEE5valueEvE4typeESF_SF_
a1q:dynCall_iiiifii
HXf:__ZNSt3__27__sort5IRNS_6__lessIN2UI14DepthSortEntryES3_EEPS3_EEjT0_S7_S7_S7_S7_T_
jgm:_FileLoadException_ToString_m2989457882
C_g:__Z165RuntimeInvoker_Void_t1185182177_UInt32U26_t3735378166_Int32_t2950945753_UInt32U26_t3735378166_Int32_t2950945753_Int32_t2950945753_Int32_t2950945753_Int32_t2950945753PFvvEPK10MethodInfoPvPS4_
qod:__Z39ParticleSystemRenderer_RenderBillboardsIL21SpriteMaskInteraction0EEvRK15RenderNodeQueuej17ShaderChannelMaski
zpl:_X509Chain_get_Roots_m317091712
SFf:_UNITY_FT_DivFix
PBk:_Array_InternalArray__get_Item_TisDecimal_t2948259380_m3511003792_gshared
Gng:_TMP_Text_set_colorGradient_m1641428648
AWd:__ZN17PolygonCollider2D12SetPolygon2DEP9Polygon2D
unm:_SecurityElement_IsValidAttributeValue_m948345692
sCf:__ZNK9Rigidbody11GetPositionEv
VFc:__ZN14Texture2DArrayC2E10MemLabelId18ObjectCreationMode
Wa:invoke_vdd
wq:FUNCTION_TABLE_fiii
eYh:__ZL75g_UnityEngine_SharedInternalsModule_Assembly_CustomAttributesCacheGeneratorP21CustomAttributesCache
SJc:__Z19RegisterModule_Corev
BAk:_Mesh_SetUvsImpl_TisRuntimeObject_m2275316106_gshared
xrp:_SliderHandler_ThumbRect_m2303330165_AdjustorThunk
MEc:__ZNK30SpriteRendererAnimationBinding12GetPPtrValueERKN11UnityEngine9Animation10BoundCurveE
UUf:__ZZ29InitializeTextRenderingModulevEN27cleanupAfterLoadRegistrator7ForwardEv
Ut:__ZN20NavMeshBuildSettings8TransferI19StreamedBinaryWriteILb0EEEEvRT_
_Rb:__ZNSt3__26__sortIRPFbRK23TransformAccessReadOnlyS3_EPS1_EEvT0_S8_T_
o5l:_CCFixed_FromDateTime_m3894190577
Wzg:_TMPro_InstructionOverlay_Set_FrameCounter_Position_m3760834117
ILq:__ZN6il2cpp6icalls8mscorlib4Mono8Security12Cryptography18KeyPairPersistence19_IsMachineProtectedEP12Il2CppString
Bsc:__Z29PluginsIssueRenderingExtEvent26UnityRenderingExtEventTypePv
wVg:__Z116RuntimeInvoker_RuntimeObject_RuntimeObject_Int32_t2950945753_RuntimeObject_RuntimeObject_RuntimeObject_RuntimeObjectPFvvEPK10MethodInfoPvPS4_
Rzk:_Dictionary_2_Do_ICollectionCopyTo_TisConnectionCache_t1120597666_m2561257866_gshared
uNn:_ReadOnlyCollection_1_System_Collections_IList_Remove_m4206169243_gshared
HFj:_MessageFormatter_ReadMethodCall_m2327590823
dFd:__Z19UpdateSingleRow2TplIL27ParticleSystemCurveEvalMode2ELS0_2EEvfRK11MinMaxCurveS3_RK23ParticleSystemParticlesPfbiii
vFc:__Z14RandomRotationP9Texture2DPhiiii
m_n:_Array_InternalArray__ICollection_Add_TisUInt16_t2177724958_m3981262878_gshared
Xxf:__ZThn132_N5physx7profile8ZoneImplINS_28PxProfileNameProviderForwardEED1Ev
agn:_HashSet_1_Contains_m3173358704_gshared
wIp:_ToggleEvent__ctor_m834619998
IGk:_PKCS1_Encode_v15_m2077073129
sFg:_U3CMoveAfterU3Ec__Iterator1_Dispose_m3286280129
mfa:__ZN14VideoAudioData15PCMReadCallbackEP14FMOD_DSP_STATEPfS2_jii
Blk:_InternalEnumerator_1_get_Current_m2305379241_AdjustorThunk
Ruk:_Array_Resize_TisConstantShakeLayer_t1896703246_m3967981918_gshared
xB:__ZN7NavMesh18SetSurfaceSettingsEiRK20NavMeshBuildSettings
MTe:__ZN5physx7NpScene27setCCDContactModifyCallbackEPNS_26PxCCDContactModifyCallbackE
uof:__ZNK5physx17ConvexHullBuilder17ComputeGeomCenterERNS_6PxVec3E
dIl:_AnimationCurve_Evaluate_m2125563588
w$l:_Random_INTERNAL_get_insideUnitSphere_m2687634800
xso:_U3CU3Ec__Iterator0_MoveNext_m3897938971
J6e:__ZN3MBPD0Ev
v2a:__ZN4gles14UseGLSLProgramER15DeviceStateGLESjbij
JTm:_UInt32_System_IConvertible_ToInt32_m220754611
e1n:_Array_InternalArray__Insert_TisKeyValuePair_2_t727985506_m2838910857_gshared
par:_glDeleteProgram__wrapper
mXc:__Z50Register_UnityEngine_Camera_INTERNAL_get_pixelRectv
fyd:__ZN11ShapeModule18MultiModeParameterIN25IParticleSystemProperties8PropertyIfNS1_11ClampRadiusEEEE8TransferI24GenerateTypeTreeTransferEEvRT_
$9m:_Dictionary_2_System_Collections_IDictionary_Remove_m452203598_gshared
D0a:__ZN6prcoreL18BlitFloatToIntegerERK14ImageReferenceRS0_
sRn:_Nullable_1__ctor_m3106756759_gshared
dEm:_DBNull_System_IConvertible_ToUInt32_m3784627971
iKk:_ClientSessionCache_Add_m964342678
SWe:__ZNK5physx10PxsContext18getBounceThresholdEv
F6a:__ZN13dynamic_arrayI15ComputeShaderCBLj4EE6assignEPKS0_S3_
bTk:_Array_InternalArray__ICollection_Remove_TisConnectionCache_t1120597666_m1662229316_gshared
kla:__ZN11UnityEngine15CloudWebService14RestDownloader17OnCompleteContentEv
FXp:_CanvasRenderer_SetTexture_m1600559835
sup:_Transform_get_localScale_m129152068
jFm:_DivideByZeroException__ctor_m3496959969
VRe:__ZN5physx6shdfnd5ArrayIPvNS0_15InlineAllocatorILj256ENS0_19ReflectionAllocatorINS_2Gu31SpherePersistentContactManifoldEEEEEE15growAndPushBackERKS2_
$if:__ZN5physx2Cm18DelegateFanoutTaskINS_2Sc5SceneEXadL_ZNS3_17finalizationPhaseEPNS_10PxBaseTaskEEEE11runInternalEv
Xeg:_TMP_InputField_SendOnValueChanged_m1817765550
Bog:_TMP_Text_set_isLinkedTextComponent_m4238263706
IU:__ZN17AnimationPlayable28UpdateInternalStateRecursiveILi1ELb0EEEvPK35AnimationPlayableEvaluationConstant
lyq:__ZN6il2cpp2gcL10CleanupCCWEPvS1_
xb:invoke_vifff
Iue:__ZN5physx6shdfnd15atomicDecrementEPVi
Lg:_emscripten_request_fullscreen
aTn:_Predicate_1_Invoke_m851618236_gshared
Vxq:__ZNSt3__218uninitialized_copyIPNS_4pairIK10KeyWrapperIP12Il2CppObjectEN6il2cpp2gc9CachedCCWEEESB_EET0_T_SD_SC_
Hbc:__ZN20LocalFileSystemWebGL6DeleteER13FileEntryDatab
Ng:_emscripten_glDisableVertexAttribArray
tSk:_Array_InternalArray__ICollection_Remove_TisSingle_t1397266774_m3361324455_gshared
pq:FUNCTION_TABLE_iiiifiiii
rJa:__ZN4core8hash_mapINS_12basic_stringIcNS_20StringStorageDefaultIcEEEE13dynamic_arrayI4PPtrI6SpriteELj4EENS_4hashIS4_EENSt3__28equal_toIS4_EEE12delete_nodesEv
Ad:invoke_fifffi
CHo:_Collection_1_System_Collections_IList_Add_m2969482770_gshared
vGp:_AudioMixerPlayable__ctor_m4157269881
kel:_FloatingObject2D_SetParticleSystemInstantiated_m1001921181
RYa:__ZN4gles23ClearCurrentFramebufferEP7ApiGLESbbbRK10ColorRGBAffi
fT:__ZN7mecanim12statemachine20CreateStateWorkspaceEjjjRNS_6memory9AllocatorE
BBp:_UnityEvent_1_Invoke_m3604335408_gshared
IAm:_Convert_ToUInt32_m2045194461
aof:__ZN5physx2Gu11HeightField13releaseMemoryEb
Zg:_emscripten_glDeleteObjectARB
acj:_EventSystem_RaycastComparer_m3685368675
h2a:__Z14DecompressDXT3iiiPKjPj
hFo:_Collection_1_InsertItem_m1026790058_gshared
Iyg:_U3CRevealWordsU3Ec__Iterator1_MoveNext_m1190869961
XZg:__Z131RuntimeInvoker_Void_t1185182177_RuntimeObject_RuntimeObject_Int64_t3736567304_ObjectU26_t2146539884_SerializationInfoU26_t419328957PFvvEPK10MethodInfoPvPS4_
sqd:__ZN12LightsModule5StartER23ParticleSystemParticlesjj
xAn:_DSAManaged_CreateSignature_m2233977444
qCk:_Array_InternalArray__get_Item_TisMaterialReference_t1952344632_m860338671_gshared
uul:_PKCS12_RemoveCertificate_m1421555398
ffp:_CrossPlatformInputManager_GetButtonDown_m1689635996
E1a:__ZN6prcoreL17RemapGenericFloatI17TexFormatRGBAHalf18TexFormatARGBFloatEEvPKNS_9InnerInfoE
jRd:__ZNSt3__27__sort4IRN18Overlap2DQueryBase29ColliderHitsByDepthComparitorEPP10Collider2DEEjT0_S7_S7_S7_T_
Eed:__Z14GetBuiltinSkini
eBj:_MethodDictionary_get_Item_m1201458851
Qfj:_StandaloneInputModule_ProcessMouseEvent_m2923582521
qjh:__Z86RuntimeInvoker_Void_t1185182177_SByte_t1669577662_Single_t1397266774_Int32_t2950945753PFvvEPK10MethodInfoPvPS4_
sAa:___cxx_global_var_init_18
An:_JS_SystemInfo_GetBrowserVersionString
ARb:__ZN2UI13RectTransform23VirtualRedirectTransferER14SafeBinaryRead
vUe:__ZN5physx7NpScene17flushQueryUpdatesEv
hHg:_U3CFormation2U3Ec__Iterator1_Reset_m4272536852
_Mq:__ZN6il2cpp2vm16GenericContainer16GetDeclaringTypeEPK22Il2CppGenericContainer
V_k:_InputField_get_caretColor_m2973283772
RMa:__ZNSt3__26vectorIN9ShaderLab20SerializedSubProgramENS_9allocatorIS2_EEE6assignIPS2_EENS_9enable_ifIXaasr21__is_forward_iteratorIT_EE5valuesr16is_constructibleIS2_NS_15iterator_traitsIS9_E9referenceEEE5valueEvE4typeES9_S9_
Vld:__Z18Transfer_BlittableI8JSONReadLb0E8BitFieldEvRK29SerializationCommandArgumentsR31RuntimeSerializationCommandInfo
Knl:_OidCollection__ctor_m4001685071
JMg:_ProCamera2D_ApplyInfluencesTimed_m4186446645
Wfn:_HashSet_1_CopyTo_m2849056227_gshared
Nfd:__Z46Register_UnityEngine_GUI_get_usePageScrollbarsv
S4b:__ZL17Transfer_GUIStyleI18StreamedBinaryReadILb1EELb0EEvRK29SerializationCommandArgumentsR31RuntimeSerializationCommandInfo
bSp:_AnimationMotionXToDeltaPlayable__ctor_m1725027713_AdjustorThunk
Byn:_ModulusRing_Multiply_m343333088
lBf:__ZN12PhysXRaycast15InitializeClassEv
NUe:__ZN5physx7NpScene10unlockReadEv
jcl:_ClipperOffset_set_ArcTolerance_m360751861
GKa:__ZN9ShaderLab14SerializedPass8TransferI14SafeBinaryReadEEvRT_
Ufd:__Z71Register_UnityEngine_GUILayoutUtility_INTERNAL_CALL_Internal_MoveWindowv
qea:__ZN12AudioManager16SetListenerPauseEb
DWd:__ZThn160_N17PolygonCollider2DD0Ev
vTd:__ZNSt3__26__sortIRN10ClipperLib12LocMinSorterEPNS1_12LocalMinimumEEEvT0_S6_T_
n9i:_TextMeshProUGUI_get_canvasRenderer_m4225263066
Ork:_DefaultComparer_Compare_m1284039696_gshared
K2l:_RenderTextureDescriptor__ctor_m505960146_AdjustorThunk
Isq:__ZN6il2cpp2vm9Exception25RaiseOutOfMemoryExceptionERKNS_5utils10StringViewIDsEE
SZm:_Enumerator_System_Collections_IDictionaryEnumerator_get_Entry_m2772123357_gshared
la:invoke_viiiiiiiiiii
ZNq:___syscall_ret
iej:_PointerEventData_set_worldNormal_m1888481930
Tbp:_AnchorInfo__ctor_m46784903
a5p:__ZN15dense_hashtableI10KeyWrapperIPK17Il2CppGenericInstES4_N6il2cpp8metadata21Il2CppGenericInstHashEN14dense_hash_setIS4_S7_NS4_14EqualsComparerINS6_24Il2CppGenericInstCompareEEENSt3__29allocatorIS4_EEE8IdentityESB_SE_E6insertERKS4_
xCk:_Array_InternalArray__get_Item_TisTMP_LinkInfo_t1092083476_m3566166225_gshared
QIk:_CipherSuiteCollection_get_Item_m4188309062
pp:FUNCTION_TABLE_iiifffi
yOk:_SslHandshakeHash_HashFinal_m2573455475
Zxj:_SynchronizationAttribute_ReleaseLock_m1030353464
TBc:__ZN14qsort_internal30FindAndMovePivotToLastPositionIP8Vector2fi26PointDistanceSortPredicateEEvT_S4_T0_T1_
DCb:__ZN11ChannelInfo8TransferI19StreamedBinaryWriteILb0EEEEvRT_
KAg:_VertexShakeB_AnimateVertexColors_m3313523349
TDq:__ZN4utf88internal13validate_nextIPKcEENS0_9utf_errorERT_S5_Rj
xqi:__ZL53ToggleGroup_t123837990_CustomAttributesCacheGeneratorP21CustomAttributesCache
pGe:__ZN5physx2Sc9ClothCore22setFrictionCoefficientEf
Fyj:_Lease_get_CurrentLeaseTime_m3433257884
akc:__ZN14qsort_internal13Partition3WayIP17RODataReplacementi19ROSorterReplacementEENSt3__24pairIT_S6_EES6_S6_T0_T1_
nAe:__ZNK5physx9NpPhysics17getNbConvexMeshesEv
iUe:__ZNK5physx7NpScene29getContactCorrelationDistanceEv
jZc:__Z34Register_UnityEngine_Gradient_Initv
nKh:__ZL45PropertyInfo_t_CustomAttributesCacheGeneratorP21CustomAttributesCache
q_k:_InputField_set_text_m1877260015
INc:__Z15WriteLineVertexILb0EEvRPhRKN4math8float4x4ERKNS2_7_float3ERK11ColorRGBA32RKffRKNS2_7_float2E
kyd:__ZN13InitialModule8TransferI17RemapPPtrTransferEEvRT_
KJj:_OpCode_get_OperandType_m1634816806
ozd:__ZN25IParticleSystemProperties8PropertyI8Vector3fNS_3MinILi0EEEE8TransferI18StreamedBinaryReadILb0EEEEvRT_PKc
leo:_EqualityComparer_1_System_Collections_IEqualityComparer_GetHashCode_m3690690972_gshared
g_k:_InputField_EnforceTextHOverflow_m3400115777
_H:__ZN9Animation13AwakeFromLoadE17AwakeFromLoadMode
BFm:_Decimal_op_Increment_m2045993911
rQq:_readlink
nEf:__Z39Register_UnityEngine_Rigidbody_get_dragv
uKb:__ZN9InputAxis8TransferI19StreamedBinaryWriteILb0EEEEvRT_
nbm:__Z33il2cpp_codegen_check_sub_overflowxx
X1q:dynCall_viififiii
gkg:_TMP_ScrollbarEventHandler_OnSelect_m3455494218
yce:__ZN5physx6shdfnd8SyncImpl4waitEj
pDf:__Z50Physics_CUSTOM_INTERNAL_CALL_OverlapSphereNonAllocRK8Vector3ffP11Il2CppArrayi23QueryTriggerInteraction
Agg:_TMP_InputField_set_caretSelectPositionInternal_m1998645776
cpg:_TMP_Text_set_maxVisibleCharacters_m401803337
UJp:_Resources_ConvertObjects_TisRuntimeObject_m1486780300_gshared
dHm:_Double_System_IConvertible_ToInt16_m3591921965_AdjustorThunk
BOn:_Comparison_1_Invoke_m2925518770_gshared
QCd:__ZN33SizeBySpeedModulePropertyBindings13GetFloatValueERK14ParticleSystemi
shb:__ZN10GameObject23VirtualRedirectTransferER18StreamedBinaryReadILb0EE
YEp:_SymmetricTransform__ctor_m2693628991
KVj:_ObjectDisposedException__ctor_m1034312941
a_p:_Rigidbody_INTERNAL_set_angularVelocity_m4188482450
i7g:__Z67RuntimeInvoker_Void_t1185182177_Scene_t2348375561_Scene_t2348375561PFvvEPK10MethodInfoPvPS4_
si:_glFrontFace
R6p:__ZNK15dense_hashtableINSt3__24pairIK10KeyWrapperIPK11Il2CppClassEPKcEES6_N6il2cpp5utils11PointerHashIS3_EEN14dense_hash_mapIS6_S9_SE_NS6_14EqualsComparerINS0_8equal_toIS5_EEEENS0_9allocatorISA_EEE9SelectKeyESJ_SL_E13find_positionERS7_
Xsd:__Z13DragUpdateTplIL27ParticleSystemCurveEvalMode4EEvRK11MinMaxCurvebbR23ParticleSystemParticlesjjRKN4math7_float4E
IXl:_PlayableGraph_IsValid_m2795737541
Eu:__ZN11OffMeshLink14OnNavMeshAddedEv
cQj:_TypeDelegator_get_AssemblyQualifiedName_m907578895
kga:__Z35AudioListener_Set_Custom_PropVolumef
hyd:__ZN14ParticleSystem8TransferI17RemapPPtrTransferEEvRT_
L$i:_U3CInsideTriggerRoutineU3Ec__Iterator0_Reset_m2075319313
$v:__ZN22NavMeshProjectSettingsD0Ev
AD:__Z55NavMeshAgent_CUSTOM_INTERNAL_CALL_CalculatePathInternalP12Il2CppObjectRK8Vector3fS0_
v4k:_MaskUtilities_IsDescendantOrSelf_m2247511982
aWe:__ZN5physx13NpVolumeCache17getNbCachedShapesEv
Yoc:__ZNSt3__26vectorI16ShadowCasterData13stl_allocatorIS1_L18MemLabelIdentifier2ELi16EEE21__push_back_slow_pathIKS1_EEvRT_
UVf:__Z51Register_UnityEngine_TextGenerator_GetLinesInternalv
B5m:_Enumerator_get_Current_m2250080680_AdjustorThunk
Gom:_SecurityElement__cctor_m3326869319
rYm:_Enumerator_System_Collections_IEnumerator_Reset_m3571093090_AdjustorThunk
KFp:_AesManaged_set_Key_m767972181
EAh:__Z55RuntimeInvoker_Boolean_t97287965_Nullable_1_t1819850047PFvvEPK10MethodInfoPvPS4_
qam:_Int16_System_IConvertible_ToBoolean_m1656400658_AdjustorThunk
vKd:__ZN14AreaEffector2D8TransferI24GenerateTypeTreeTransferEEvRT_
cBl:_Byte_System_IConvertible_ToInt64_m285584218
Mi:_strftime_l
iWa:__ZN13GfxDeviceGLES22SetScissorRectPlatformERK5RectTIiE
V0a:__ZN6prcoreL17RemapGenericFloatI17TexFormatRGBFloat18TexFormatRGBAFloatEEvPKNS_9InnerInfoE
DXe:__ZN5physx2Sc5Scene15getRenderBufferEv
Qeq:__ZN6il2cpp2vm4Type15IsSystemDecimalEPK10Il2CppType
yZn:_Array_InternalArray__ICollection_Add_TisDictionaryEntry_t3123975638_m665385049_gshared
EZb:__Z35Transfer_Blittable_SingleValueFieldI14SafeBinaryReadiEvRT_R17GeneralMonoObjectRK23StaticTransferFieldInfo
mar:_glClearStencil__wrapper
KYj:_MissingMemberException__ctor_m2707802176
x4f:__ZN20UnityConnectSettings10InitializeEv
KWp:_Canvas_get_renderMode_m841659411
Lzb:__ZN15SerializeTraitsI13dynamic_arrayI28EnlightenRendererInformationLj8EEE19ResizeSTLStyleArrayERS2_i
shp:_TouchPad__ctor_m1845169266
Nvp:_Vector2_get_magnitude_m2752892833
_Fm:_DelegateSerializationHolder_GetDelegateData_m2109044103
dcq:_NativeTypeAttribute__ctor_m133676646
pZd:__ZN16PhysicsManager2D12BeginContactEP9b2Contact
D9b:__ZN13MonoBehaviour23VirtualRedirectTransferER19StreamedBinaryWriteILb0EE
G2:__ZN9AudioClip11CreateSoundEv
E5g:__Z98RuntimeInvoker_Void_t1185182177_Single_t1397266774_Vector3U26_t3464235976_QuaternionU26_t651104941PFvvEPK10MethodInfoPvPS4_
bEg:_Clipper_CleanPolygons_m3149376444
XAf:__Z19ExtractDataFromMeshR4MeshR13dynamic_arrayI8Vector3fLj4EERS1_IjLj4EES6_b
e5m:_Enumerator_get_Current_m1879183223_AdjustorThunk
Ygq:__ZNK15dense_hashtableINSt3__24pairIK10KeyWrapperINS1_IPK10MethodInfoP11Il2CppClassEEEjEES9_17ReflectionMapHashIS8_EN14dense_hash_mapIS9_jSD_NS9_14EqualsComparerINS0_8equal_toIS8_EEEENS0_9allocatorISB_EEE9SelectKeyESI_SK_E13find_positionERSA_
Izc:__Z10tesvertLeqP10TESSvertexS0_
S3f:__ZN11UnityEngine7Connect16PersistentValues13RestoreValuesER8JSONRead
khj:_U3COnFinishSubmitU3Ec__Iterator0_MoveNext_m2729496168
Nvf:__ZN14SphereCollider22FetchPoseFromTransformEv
dam:_Guid_BaseToString_m3600006650
C8p:_VideoPlayer_InvokeFrameDroppedCallback_Internal_m984464440
Zeb:__ZN20ArchiveStorageReader31TryToReadDirectoryFromBlockDataEyPKvj
tdl:_PolyTree_Finalize_m2388020853
mef:__ZNK5physx2Gu11HeightField17getHeightInternalEff
d$l:_Quaternion_get_identity_m3722672781
Dsg:_IcicleScript_FixedUpdate_m447175980
Quq:__ZN6il2cpp2vmL11GetIdentityEP14Il2CppIUnknown
q7p:__ZN6il2cpp2vm13MetadataCache26GetWindowsRuntimeClassNameEPK11Il2CppClass
rHq:_GC_push_gc_structures
$Lk:_TlsServerCertificate_ProcessAsTls1_m819212276
CTe:__ZNK5physx7NpScene22getClientBehaviorFlagsEh
Kzk:_Dictionary_2_Do_ICollectionCopyTo_TisRuntimeObject_m3942192587_gshared
UAe:__ZN5physx9NpFactory14createMaterialEfff
tHl:_Hashtable_GetObjectData_m2584507417
Oha:__ZN5physx5cloth11PhaseConfigC2Et
nFd:__Z19UpdateSingleRow2TplIL27ParticleSystemCurveEvalMode0ELS0_2EEvfRK11MinMaxCurveS3_RK23ParticleSystemParticlesPfbiii
KL:__ZNSt3__26vectorIN13AnimationClip10FloatCurveE13stl_allocatorIS2_L18MemLabelIdentifier26ELi16EEE6resizeEj
ZXl:_PlayableGraph_CreateScriptOutputInternal_m3202089198_AdjustorThunk
fEk:_Kernel_DwordDivMod_m1540317819
hDd:__ZN22ParticleSystemRenderer23UpdateVertexInputLayoutEv
oHj:_MetadataReference__ctor_m15653650
mSe:__ZThn8_N5physx2Sc19ShapeInstancePairLLD0Ev
m9e:__ZN5physx19PxcContactSphereBoxERKNS_2Gu13GeometryUnionES3_RKNS_11PxTransformES6_RKfRNS_10PxcNpCacheERNS0_13ContactBufferE
Bxm:_Convert_ToDateTime_m1567637286
QTe:__ZNK5physx7NpScene21getBroadPhaseCallbackEh
oje:__ZN5physx6shdfnd5ArrayIPNS_12PxConstraintENS0_19ReflectionAllocatorIS3_EEE15growAndPushBackERKS3_
lee:__ZN5physx3Ext5JointINS_15PxDistanceJointENS_30PxDistanceJointGeneratedValuesEE10onComShiftEj
eFn:_ReadOnlyCollection_1_System_Collections_IList_set_Item_m3238536669_gshared
XCb:__ZNSt3__213__stable_sortIRNS_4lessI4PPtrI11SpriteAtlasEEENS_11__wrap_iterIPS4_EEEEvT0_SA_T_NS_15iterator_traitsISA_E15difference_typeEPNSD_10value_typeEi
vdm:_Int64_ToString_m2085073918_AdjustorThunk
vqe:__ZNK5physx2Sc15ArticulationSim11checkResizeEv
OLj:_FieldInfo_GetFieldOffset_m1356898082
RWi:_ProCamera2DPixelPerfectSprite_Start_m2611440838
hdl:_MyIntersectNodeSort_Compare_m1865971160
bLl:_Camera_RaycastTry_m3913529496
hZk:_Array_InternalArray__IndexOf_TisTypeTag_t3541821701_m2988972362_gshared
KBa:__ZN8keywords6CreateEPKc
f3d:__ZN5physx2Gu11gjkRelativeINS0_8CapsuleVENS0_11ConvexHullVEEEjRKT_RKT0_RKNS_6shdfnd3aos15PsMatTransformVERNSB_5Vec3VESG_SG_RNSB_6FloatVE
Ntg:_SpeechManager_TypeSentence_m3667312346
T_p:__ZL7log2_32j
PDp:_IndexedSet_1_Sort_m2612539420_gshared
S:Math_imul
k$p:_ParticleSystem_set_randomSeed_m1284801121
hwf:__ZN5Unity5Joint22JointTransferPreNoAxisI14SafeBinaryReadEEvRT_
ojo:_TrackAsset_get_clips_m2358754088
uFd:__Z17UpdateSprites2TplIL27ParticleSystemCurveEvalMode4ELS0_4EEvfRK11MinMaxCurveS3_RK23ParticleSystemParticlesPf
oaj:_TextMeshProUGUI_OnCanvasHierarchyChanged_m3631458015
OAb:__ZN11PlayerPrefs6GetIntERKN4core12basic_stringIcNS0_20StringStorageDefaultIcEEEEi
XIk:_CipherSuiteCollection_System_Collections_IList_IndexOf_m1361500977
gbl:_Text_set_fontStyle_m648756124
tVf:__Z45TextGenerator_CUSTOM_INTERNAL_get_rectExtentsP12Il2CppObjectP5RectTIfE
BBm:_DateTime__ctor_m2135476686_AdjustorThunk
vfa:__ZN11AudioSource12SetAudioClipEP9AudioClip
K1l:_RectTransform_GetLocalCorners_m823861473
zdb:__Z18ReadStringFromFilePN4core17string_with_labelILi1EEERKNS_12basic_stringIcNS_20StringStorageDefaultIcEEEE
mro:_TimelineMarker__ctor_m1584969165
dDd:__ZN30VelocityModulePropertyBindings13GetFloatValueERK14ParticleSystemi
BVq:__ZNKSt3__28time_getIwNS_19istreambuf_iteratorIwNS_11char_traitsIwEEEEE11__get_am_pmERiRS4_S4_RjRKNS_5ctypeIwEE
SNm:_RegisteredWaitHandle_DoCallBack_m365365633
Tel:_FloatingObject3D_GetCapsuleRadius_m2709339425
era:__ZN18ScriptingArguments9AddObjectE18ScriptingObjectPtr
TZf:__Z39CanvasGroup_Get_Custom_PropInteractableP12Il2CppObject
zVd:__ZN16CircleCollider2D23VirtualRedirectTransferER18StreamedBinaryReadILb0EE
g5a:__ZN7ApiGLES15BindVertexArrayEN2gl6HandleILNS0_10ObjectTypeE3EEE
jtc:__ZN13ProbeRenderer8ConvolveEbijjb
Pqp:_GUIUtility_set_systemCopyBuffer_m608712289
jZa:__ZN17GenericDynamicVBOC2ER9GfxDevice13GfxBufferModejj
yRd:__Z28GetPhysics2DScriptingClassesv
Fdd:__ZZN10GUIManager14InitGUIManagerEvEN41PreUpdateIMGUISendQueuedEventsRegistrator7ForwardEv
xKg:_IntPoint_ToString_m83661580
xml:_ServicePointManager_get_SecurityProtocol_m966397919
TPe:__ZNK5physx2Sc5Scene7isValidEv
z5l:_CCGregorianCalendar_day_from_fixed_m1674702403
Hja:__ZN11UnityEngine15CloudWebService17SessionEventQueue10PurgeItemsEj
TVe:__ZN5physx2Sq17SceneQueryManager29setDynamicTreeRebuildRateHintEj
Ptc:__ZN6Camera16StandaloneRenderENS_10RenderFlagEP6ShaderRKN4core12basic_stringIcNS3_20StringStorageDefaultIcEEEE
sig:_TMP_InputField__cctor_m2566568199
gpl:_X509Chain_PrepareForNextCertificate_m3691934993
sug:_PearlUI2_Update_m3172955862
k4b:__Z18Transfer_BlittableI18StreamedBinaryReadILb1EELb1EtEvRK29SerializationCommandArgumentsR31RuntimeSerializationCommandInfo
qei:__ZL58EventType_t3528516131_CustomAttributesCacheGenerator_keyUpP21CustomAttributesCache
cOh:__ZL57X509Certificate_t713131622_CustomAttributesCacheGeneratorP21CustomAttributesCache
PFb:__ZN12BoneWeights48TransferI19StreamedBinaryWriteILb0EEEEvRT_
uTa:__ZN9GfxDevice20DeallocRenderSurfaceEP17RenderSurfaceBase
kpe:__ZN5physx6shdfnd5ArrayIPvNS0_19ReflectionAllocatorINS_18NpArticulationLinkEEEE4copyINS0_15InlineAllocatorILj256ES5_EEEEvRKNS1_IS2_T_EE
NPa:__ZN20GpuProgramParameters36UpdatePrepareValuesMaximumBufferSizeEv
cvn:_List_1_GetIndex_m1066515638_gshared
m$d:__ZNK5physx3Cct10Controller12getKineShapeEv
Oud:__Z15GetPositionMeshIL20MeshDistributionMode1ELb1E11ColorRGBA32EvRN4math8floatNx3ES4_RNS2_4pix4ERK13dynamic_arrayIS1_Lj4EERK14StrideIteratorI8Vector3fESF_RKSB_IT1_ERKS7_I16MeshTriangleDataLj4EERKS7_I11MeshAreaLUTLj4EERKfRKiST_R5RandNP12SkinMeshInfo
Gzd:__ZN20ExternalForcesModule8TransferI19StreamedBinaryWriteILb0EEEEvRT_
Ehe:__ZN5physx6shdfnd4sortIPvNS0_4LessIS2_EENS0_19ReflectionAllocatorINS_2Sc18TriggerInteractionEEEEEvPT_jRKT0_RKT1_j
Fng:_TMP_Text_get_colorGradient_m3085792608
bC:__ZN12PathCorridor25MoveOverOffmeshConnectionEyRK8Vector3fRS0_S3_PK12NavMeshQuery
Sib:__ZN12BaseRenderer23RendererBecameInvisibleEv
cOe:__ZNK5physx2Sc8BodyCore14getMaxAngVelSqEv
gRf:__ZN20TextRenderingPrivate8FontImpl13CharacterInfo8TransferI18StreamedBinaryReadILb0EEEEvRT_
z1b:__Z29Transfer_Blittable_ArrayFieldI24GenerateTypeTreeTransferfEvRT_R9ArrayInfoRK23StaticTransferFieldInfo
mEa:__ZNSt3__26__treeINS_12__value_typeIN4core12basic_stringIcNS2_20StringStorageDefaultIcEEEES6_EENS_19__map_value_compareIS6_S7_NS_4lessIS6_EELb1EEE13stl_allocatorIS7_L18MemLabelIdentifier13ELi16EEE7destroyEPNS_11__tree_nodeIS7_PvEE
ROl:_UnityEvent_FindMethod_Impl_m2312362624
dvc:__ZN19CustomRenderTexture9AddParentE4PPtrIS_E
Iza:__ZN8Gradient8TransferI14SafeBinaryReadEEvRT_
Yjj:_FloatTween_AddOnChangedCallback_m2814315272
Oap:_Parser_ParseSpecial_m1961501104
Wpm:_Single_System_IConvertible_ToUInt64_m3299129161_AdjustorThunk
bvb:__ZNSt3__26vectorIN4core12basic_stringIcNS1_20StringStorageDefaultIcEEEE13stl_allocatorIS5_L18MemLabelIdentifier1ELi16EEE7reserveEj
pDl:_ArrayList_Shift_m395607654
GBg:_TMP_TextEventHandler_SendOnLinkSelection_m2556687928
Kng:_TMP_Text_set_spriteAsset_m3315416536
yXm:_Enumerator_System_Collections_IDictionaryEnumerator_get_Key_m554883757_gshared
cml:_IPv6Address_AsIPv4Int_m844941024
MXd:__Z13RegisterClassI10Effector2DEvv
laf:__ZN5physx2Gu32PCMConvexVsMeshContactGeneration15processTriangleEPKNS_6PxVec3EjhPKj
STl:_Matrix4x4_MultiplyPoint_m1575665487_AdjustorThunk
rNq:__ZN6il2cpp6icalls8mscorlib6System10Reflection4Emit13DynamicMethod22destroy_dynamic_methodEP29Il2CppReflectionDynamicMethodS7_
Fno:_Extrapolation__cctor_m3894897802
ISj:_Marshal__cctor_m4007734770
lGq:_GC_new_free_list_inner
Dgl:_Water2D_Mesh__ctor_m549474797
weo:_EqualityComparer_1_System_Collections_IEqualityComparer_Equals_m3876978661_gshared
kIq:_GC_exclude_static_roots_inner
SFq:_GC_err_printf
g8c:__Z60Register_UnityEngine_Playables_PlayableHandle_Pause_Injectedv
ADn:_ReadOnlyCollection_1_System_Collections_Generic_IListU3CTU3E_RemoveAt_m4242223828_gshared
Pdf:__ZN5physx6shdfnd5ArrayINS_2Cm8Matrix34ENS0_19ReflectionAllocatorIS3_EEE15growAndPushBackERKS3_
iHk:_RSAManaged_DecryptValue_m1804388365
saf:__ZN5physx2Gu32PCMConvexVsMeshContactGeneration31generatePolyDataContactManifoldERNS0_9TriangleVEjjhPNS0_21MeshPersistentContactERjRKNS_6shdfnd3aos6FloatVERNS8_5Vec3VE
KEo:_Collection_1_IsSynchronized_m2333094689_gshared
rak:_InternalEnumerator_1_System_Collections_IEnumerator_get_Current_m2980550840_AdjustorThunk
Xpf:__ZN5physx10SubSortSAH5splitEPjj
VFj:_ObjectReader_ReadArrayOfPrimitiveType_m3374303005
kE:__ZN25RuntimeAnimatorController8TransferI14SafeBinaryReadEEvRT_
Jmd:__ZN8JSONRead8TransferI10RectOffsetEEvRT_PKc17TransferMetaFlagsb
pja:__ZN9JSONWrite8TransferIN11UnityEngine15CloudWebService14DataErrorEvent15FileErrorDetailEEEvRT_PKc17TransferMetaFlags
WTm:_UInt32_System_IConvertible_ToUInt64_m1094958903
jcm:_Int32_Parse_m2087562008
EBn:_PrivateKeyInfo__ctor_m2414235375
H4d:__ZN5physx2Gu3EPA8addFacetEjjjRKNS_6shdfnd3aos6FloatVES6_
oyd:__ZN14RotationModule8TransferI17RemapPPtrTransferEEvRT_
SOj:_MonoProperty_GetAccessors_m412928203
M5:__ZN12SoundManager20RegisterModifiedClipEP10SampleClip
T1j:_Assembly_FillName_m1660001542
JGb:__ZN12MeshRenderer15AddAsRenderNodeER15RenderNodeQueueRK20DeprecatedSourceData
ALh:__ZL56_EventBuilder_t2558055199_CustomAttributesCacheGeneratorP21CustomAttributesCache
flm:_SHA384Managed_processBlock_m1272529332
haa:__ZN11AudioSource4PlayEd
Tyq:__ZN6il2cpp2vm6Object16GetVirtualMethodEP12Il2CppObjectPK10MethodInfo
zZk:_Array_InternalArray__IndexOf_TisTMP_LinkInfo_t1092083476_m2097520058_gshared
SCl:_Char_ToString_m278452217_AdjustorThunk
pce:__ZN5physx3Cct9CCTParamsC2Ev
m4p:__ZN15dense_hashtableI10KeyWrapperIPK17Il2CppGenericInstES4_N6il2cpp8metadata21Il2CppGenericInstHashEN14dense_hash_setIS4_S7_NS4_14EqualsComparerINS6_24Il2CppGenericInstCompareEEENSt3__29allocatorIS4_EEE8IdentityESB_SE_E13set_empty_keyERKS4_
WSg:__Z63RuntimeInvoker_Char_t3634460470_Int16_t2552820387_RuntimeObjectPFvvEPK10MethodInfoPvPS4_
tym:_Convert_ToDouble_m2924063577
QDe:__ZN5physx7NpCloth21setStiffnessFrequencyEf
P2e:__ZN5physx17PxcSweepBoxConvexERKNS_11PxsCCDShapeES2_PKNS_12PxsRigidBodyES5_RKNS_11PxTransformES8_S8_S8_fRNS_6PxVec3ESA_RNS_10PxcNpCacheERNS_18PxcNpThreadContextEf
s3h:__ZL114RenderTexture_t2108887433_CustomAttributesCacheGenerator_RenderTexture_GetTemporary_m1832746092____memorylessMode6P21CustomAttributesCache
hmf:__ZThn8_N5physx2Gu11HeightField14onRefCountZeroEv
BPk:_Array_get_swapper_TisQuaternion_t2301928331_m1654046966_gshared
Yge:__ZN5physx2Sc5Actor9setActiveEbj
W2d:__ZN12_GLOBAL__N_127SphereMeshContactGeneration15processTriangleEjRKN5physx6PxVec3ES4_S4_PKj
I8m:_ValueCollection_System_Collections_Generic_ICollectionU3CTValueU3E_Remove_m3673494156_gshared
Mxb:__ZN7Cubemap23VirtualRedirectTransferER18StreamedBinaryReadILb0EE
Clg:_TMP_StyleSheet_GetStyle_m118752901
Lhj:_CanvasScaler_OnEnable_m2728005489
x$c:__ZNSt3__27__sort4IRNS_6__lessI11KeyframeTplIfES3_EEPS3_EEjT0_S7_S7_S7_T_
JNf:_Read_CVT
she:__ZN5physx2Sc10NPhaseCore28reserveContactReportPairDataEjjRj
l3d:__ZN5physx2Gu22barycentricCoordinatesERKNS_6shdfnd3aos5Vec3VES5_S5_RNS2_6FloatVE
kfb:__ZN12FileAccessor4SeekEx10FileOrigin
n0b:__ZL26Transfer_SimpleNativeClassI24GenerateTypeTreeTransfer17AnimationCurveTplIfELb0EEvRK29SerializationCommandArgumentsR31RuntimeSerializationCommandInfo
Jnd:__ZN8JSONRead21TransferSTLStyleArrayI13dynamic_arrayI9BoundsIntLj4EEEEvRT_17TransferMetaFlags
Tzb:__ZN24GenerateTypeTreeTransfer8TransferI13dynamic_arrayI33EnlightenTerrainChunksInformationLj4EEEEvRT_PKc17TransferMetaFlags
U5l:_DateTimeFormatInfo__ctor_m3106345035
NJk:_TlsServerKeyExchange_verifySignature_m3412856769
Bu:__ZN14NavMeshManager11ReplaceTileEiiPhi
Odo:_EqualityComparer_1_System_Collections_IEqualityComparer_GetHashCode_m4137147946_gshared
pof:__ZL18TestUnifiedNormalsjPKN5physx6PxVec3EjPNS_2Gu9TriangleTIjEEb
ixf:__ZN5physx7profile8ZoneImplINS_28PxProfileNameProviderForwardEE21getProfileZoneManagerEv
JFa:__ZN16LightmapSettings20DidChangeActiveSceneEP10UnitySceneS1_
e5p:__ZNK15dense_hashtableI10KeyWrapperIPK17Il2CppGenericInstES4_N6il2cpp8metadata21Il2CppGenericInstHashEN14dense_hash_setIS4_S7_NS4_14EqualsComparerINS6_24Il2CppGenericInstCompareEEENSt3__29allocatorIS4_EEE8IdentityESB_SE_E12test_deletedEj
$Ai:__ZL59g_AssemblyU2DCSharp_Assembly_CustomAttributesCacheGeneratorP21CustomAttributesCache
Y3c:__Z39Register_UnityEngine_Time_get_timeScalev
tcq:__ZN6il2cpp5utils9PathUtils8BasenameIcEENSt3__212basic_stringIT_NS3_11char_traitsIS5_EENS3_9allocatorIS5_EEEERKSA_
VDj:_RemotingProxy__cctor_m4096951805
zjq:__ZN6il2cpp2vmL16IsGenericCMethodEP12Il2CppObject
ofd:__Z35Register_UnityEngine_Event_get_typev
Ugh:__Z188RuntimeInvoker_Void_t1185182177_Vector3_t3722313464_Vector3_t3722313464_Int32U26_t1369213839_Single_t1397266774_Single_t1397266774_Single_t1397266774_Single_t1397266774_Color32_t2600501292PFvvEPK10MethodInfoPvPS4_
Tsq:__ZN6il2cpp2vm9Exception23GetInvalidCastExceptionERKNS_5utils10StringViewIDsEE
JPo:_List_1_RemoveAll_m3668501215_gshared
Skf:__ZNK5physx13GuMeshFactory17getNbConvexMeshesEv
dHd:__ZN14ParticleSystem15InitializeClassEv
Npa:__Z63ThreadAndSerializationSafeCheckGetMonoBehaviourBeingTransferredv
qZk:_Array_InternalArray__IndexOf_TisUriScheme_t722425697_m3087882750_gshared
wun:_List_1_set_Item_m4224739467_gshared
v4j:_ConstructorBuilder_get_Name_m2426555260
H_c:__Z37Register_UnityEngine_Input_GetAxisRawv
Jmn:_Enumerator_System_Collections_IEnumerator_get_Current_m1643543708_AdjustorThunk
ysi:__ZL81g_TextMeshProU2D2017_3U2D1_0_56U2DRuntime_Assembly_CustomAttributesCacheGeneratorP21CustomAttributesCache
Gtm:_SyncHashtable__ctor_m2449935938
V9:__ZN11AudioSource5ResetEv
zPo:_List_1_CheckMatch_m1344934363_gshared
rkm:_RSAPKCS1SignatureFormatter_SetKey_m2935054088
Ajc:__ZN12ImageFilters27SetSurfaceUseResolvedBufferEP13RenderTextureb
N7f:__ZNK17VideoClipPlayback9IsPlayingEv
yvj:_HashAlgorithm_TransformBlock_m4006041779
OC:__ZN12NavMeshQuery22FinalizeSlicedFindPathEPi
kDb:__ZN14Texture2DArray23VirtualRedirectTransferER18StreamedBinaryReadILb0EE
pMm:_UTF7Encoding_GetByteCount_m209415911
rRb:__ZN2UI13RectTransform13AwakeFromLoadE17AwakeFromLoadMode
Cdp:_RegularExpression_Compile_m2385682508
R5c:__Z30Light_Set_Custom_PropIntensityP12Il2CppObjectf
woc:__ZN14qsort_internal30FindAndMovePivotToLastPositionIP20ShadowCasterSortDatai26ShadowCasterSortDataSorterEEvT_S4_T0_T1_
LVb:__Z18Transfer_BlittableI14SafeBinaryReadLb1EiEvRK29SerializationCommandArgumentsR31RuntimeSerializationCommandInfo
dRn:_QuickSort_1_MedianOfThree_m3222347171_gshared
mpl:_X509ExtensionEnumerator_get_Current_m256207749
NAa:__GLOBAL__sub_I_modules_profiler_public_0_cpp
X$k:_InputField_MoveTextStart_m1087475594
TPb:__ZN17PersistentManager13GetAllFileIDsERKN4core12basic_stringIcNS0_20StringStorageDefaultIcEEEER13dynamic_arrayIxLj8EE
Vyl:_Array_Sort_m182264525
n2k:_LayoutGroup_set_padding_m282562135
pzc:__Z13TransformAABBRK4AABBRK8Vector3fRK11QuaternionfRS_
L0j:_NumberFormatter_FormatRoundtrip_m1288785273
X2j:_Default_IsArrayAssignable_m953489228
QAm:_Convert_ToUInt32_m668801151
MHi:__ZL68ProCamera2DParallaxObject_t2236431792_CustomAttributesCacheGeneratorP21CustomAttributesCache
Yxe:__ZN18MultiQueryCallbackIN5physx12PxOverlapHitEE6invokeERfPKNS0_2Sq13PrunerPayloadEj
V6d:__ZN5physx2Gu18gjkRelativeRayCastINS0_4BoxVES2_NS0_10ShrunkBoxVES3_EEbRT_RT0_RKNS_6shdfnd3aos15PsMatTransformVERKNS9_6FloatVERKNS9_5Vec3VESI_RSD_RSG_SK_fb
Vm:_glGetStringi
ltm:_DecoderExceptionFallback_CreateFallbackBuffer_m1133375601
xlk:_InternalEnumerator_1_System_Collections_IEnumerator_get_Current_m1470676642_AdjustorThunk
_Og:_U3CGoToCinematicTargetRoutineU3Ec__Iterator1_Reset_m430366257
T_m:_Enumerator_get_CurrentKey_m889650866_gshared
kZp:_Physics_Raycast_m3133704280
ylf:__ZThn8_N5physx2Gu10ConvexMeshD0Ev
X$e:__ZNK5physx2Sq12BucketPruner7raycastERKNS_6PxVec3ES4_RfRNS0_14PrunerCallbackE
AEg:_U3CPlayU3Ec__AnonStorey0_U3CU3Em__0_m2770103149
$V:__ZN8Animator9WriteStepEy
hgl:_PlatformerCharacter2D_Awake_m3831072282
he:invoke_viiiiifffi
bka:__ZN11UnityEngine15CloudWebService20WebRequestRestClient18GetResponseHeadersEv
XAb:__ZNSt3__23mapIN4core12basic_stringIcNS1_20StringStorageDefaultIcEEEE9PrefValueNS_4lessIS5_EENS_9allocatorINS_4pairIKS5_S6_EEEEEixERSB_
dKc:__ZN15DirectorManager22ConstructPlayableGraphEv
wLn:_ReadOnlyCollection_1_System_Collections_ICollection_CopyTo_m546059009_gshared
FQo:_List_1_CheckIndex_m3485079058_gshared
Oxo:_Collection_1_ConvertItem_m1743542180_gshared
gBn:_MACAlgorithm__ctor_m3608996594
J9m:_ValueCollection_System_Collections_Generic_ICollectionU3CTValueU3E_Contains_m4172116474_gshared
JVf:__Z38Register_UnityEngine_Font_HasCharacterv
Djo:_AnimationTrack_AssignAnimationClip_m2928683343
tsc:__Z35IntersectSpherePlaneBoundsOptimizedRKN4math7_float4EPS1_i
F$o:_List_1_CheckIndex_m2250397830_gshared
YTq:__ZNKSt3__27num_putIcNS_19ostreambuf_iteratorIcNS_11char_traitsIcEEEEE6do_putES4_RNS_8ios_baseEcx
yjm:_RNGCryptoServiceProvider__cctor_m3587754670
ofe:__ZN5physx2Sc8ShapeSim20createLowLevelVolumeEjRKNS_9PxBounds3EjNS_9AABBMgrIdE
qCd:__ZN37InheritVelocityModulePropertyBindings13GetFloatValueERK14ParticleSystemi
yzq:__ZN6il2cpp2os5posix15PosixWaitObject13InterruptWaitEv
VDe:__ZNK5physx7NpCloth22getAngularInertiaScaleEv
I8d:__ZN26IntersectAnyVsMeshCallbackILi1ELb1EE10processHitERKN5physx12PxRaycastHitERKNS1_6PxVec3ES7_S7_RfPKj
aUq:__ZNKSt3__27num_putIcNS_19ostreambuf_iteratorIcNS_11char_traitsIcEEEEE6do_putES4_RNS_8ios_baseEce
Khl:_Water2D_Ripple_PhysicsBasedCharacterController_m3238871222
uzo:_Collection_1_System_Collections_IList_Remove_m1232015591_gshared
gFa:__Z22CleanupLODGroupManagerPv
lXe:__ZN5physx6shdfnd5ArrayINS_2Sc5Scene14SimpleBodyPairENS0_19ReflectionAllocatorIS4_EEE8recreateEj
Oe:_glUniform3fv
mMq:__ZNK6il2cpp8metadata24Il2CppGenericInstCompareclERK10KeyWrapperIPK17Il2CppGenericInstES8_
RMb:__ZNSt3__218__insertion_sort_3IRN15ResourceManager10Dependency6SorterEPS2_EEvT0_S6_T_
Hpl:_X509ChainElement_Set_m655180762
zQc:__ZNK8Gradient19InitializeOptimizedER17OptimizedGradient
hnc:__ZNK16LightmapSettings31GetRealtimeLightmapDecodeValuesEv
C7:__ZN5audio5mixer12SetSuspendedERNS0_16AudioMixerMemoryEb
LQb:__ZN17PersistentManager21UnloadNonDirtyStreamsEv
Reg:_TMP_InputField_set_shouldHideMobileInput_m3971511699
cep:_Uri_get_Parser_m3737125102
v0l:_Rect_set_xMin_m2413290617_AdjustorThunk
XUp:_Collider2D_get_bounds_m1364963828
lEb:__ZN12ImageFilters4BlitER17ShaderPassContextP7TextureP13RenderTextureiPK18SharedMaterialDataPKcP6ShaderiNS_9BlitFlagsE11CubemapFaceRK8Vector2fSH_
ezf:__ZN5physx6shdfnd8PoolBaseINS_24NpPtrTableStorageManager8PtrBlockILi4EEENS0_19ReflectionAllocatorIS4_EEE12allocateSlabEv
L8o:_Mark_get_Index_m3048692661
Qqi:__ZL69CanvasScaler_t2767979955_CustomAttributesCacheGenerator_m_ScaleFactorP21CustomAttributesCache
pUj:_ConfigHandler_CheckPath_m3079311646
Rja:__ZN11UnityEngine15CloudWebService10RestClientINS0_23WebRequestRestHeaderMapEED2Ev
zif:__ZN5physx2Sc5Scene13ccdBroadPhaseEPNS_10PxBaseTaskE
bo:_emscripten_glDepthMask
naf:__ZN5physx2Gu24PCMMeshContactGeneration15processContactsEhb
zEj:_RemotingServices_CreateClientProxy_m3886727610
y_a:__ZN4crnd25static_huffman_data_model22prepare_decoder_tablesEv
GDe:__ZN5physx7NpCloth12setParticlesEPKNS_15PxClothParticleES3_
Wwf:__ZN5physx7profile8ZoneImplINS_28PxProfileNameProviderForwardEE9doAddNameEPKctb
iMl:_Component_BroadcastMessage_m2662892479
hzk:_Dictionary_2_Do_CopyTo_TisKeyValuePair_2_t2245450819_TisRuntimeObject_m4016632719_gshared
ded:__Z23GUIStatePopDisplayIndexv
oA:__ZNSt3__27__sort5IR17DetailNodeYSorterP16DetailMeshBVNodeEEjT0_S5_S5_S5_S5_T_
Bmp:_TMPro_EventManager__cctor_m1706131459
OFa:__Znaj
Qar:_emscripten_glEnableClientState__wrapper
BAq:__ZN6il2cpp2os10ThreadImpl2IdEv
wCa:__ZN17MessageIdentifierC2EPKcNS_7OptionsEPKN5Unity4TypeES1_
YUl:_Mesh_SetTriangles_m1523451247
Lpm:_Single_System_IConvertible_ToSByte_m1208276900
ylm:_SHA512Managed_processLength_m2162821715
lId:__Z54Register_UnityEngine_ParticleSystem_MainModule_GetLoopv
TYg:__Z105RuntimeInvoker_Void_t1185182177_RuntimeObject_RuntimeObject_RuntimeObject_RuntimeObject_Int32_t2950945753PFvvEPK10MethodInfoPvPS4_
C4e:__ZN5physxL26solveFriction4_StaticBlockEPKNS_23PxcSolverConstraintDescERNS_16PxcSolverContextE
$ga:__Z55Register_UnityEngine_AudioSource_get_spatializeInternalv
Obb:__ZN14SafeBinaryRead8TransferI14ConstantStringEEvRT_PKc17TransferMetaFlags
bcp:_AnchorInfo_get_IsPosition_m2100552190
g9e:__ZN5physx30PxcGetMaterialShapeHeightFieldEPKNS_12PxsShapeCoreES2_RNS_18PxcNpThreadContextEPNS_15PxsMaterialInfoE
Nhc:__ZNK6Camera16GetStereoEnabledEv
T1g:__Z72RuntimeInvoker_Int32_t2950945753_TimeSpan_t881159249_TimeSpan_t881159249PFvvEPK10MethodInfoPvPS4_
vNk:_SendRecordAsyncResult_SetComplete_m153213906
yL:__ZN13AnimationClip9PPtrCurveaSERKS0_
rQa:__ZL24FindBelongingStructParamRPKcRNSt3__26vectorIN9ShaderLab20SerializedSubProgram14ConstantBufferENS2_9allocatorIS6_EEEE
YFc:__ZN12LightManager15InitializeClassEv
ijf:__ZN5physx6shdfnd8PoolBaseINS_2Sc19ParticlePacketShapeENS0_19ReflectionAllocatorIS3_EEE12allocateSlabEv
aub:__ZN9ShaderLab11shaderprops16GetComputeBufferEPK19ShaderPropertySheetS3_NS_16FastPropertyNameE
cEq:__ZN6il2cpp6icalls8mscorlib6System10Reflection10MethodBase31GetMethodFromHandleInternalTypeEii
ura:__ZN18ScriptingArgumentsC2Ev
Ucl:_Int128_op_UnaryNegation_m2294797994
mxp:_Vector3_op_Equality_m4231250055
h8q:_emscripten_glBlendFuncSeparate__wrapper
YQk:_Array_InternalArray__ICollection_Contains_TisTMP_WordInfo_t3331066303_m259378234_gshared
L1q:dynCall_iiiiiiiiii
Mfm:_FileSystemInfo__ctor_m3769019897
UCk:_Array_InternalArray__get_Item_TisContentType_t1787303396_m421427711_gshared
BXa:__Z17HasSampledTexture14GraphicsFormat13formatSupport
ajc:__ZNK25CameraStackRenderingState27GetStereoImageEffectTextureEb
Nph:__Z101RuntimeInvoker_Int32_t2950945753_RuntimeObject_Single_t1397266774_Int32_t2950945753_Int32_t2950945753PFvvEPK10MethodInfoPvPS4_
KSk:_Array_InternalArray__ICollection_Remove_TisTMP_PageInfo_t2608430633_m637965447_gshared
$Qc:__ZN13BuildSettings13GetSceneIndexERKN4core12basic_stringIcNS0_20StringStorageDefaultIcEEEE
js:FUNCTION_TABLE_ii
Iib:__ZN10TagManager8TransferI18StreamedBinaryReadILb0EEEEvRT_
OOg:_ProCamera2DCinematics_U3CSetupLetterboxU3Em__0_m4126374908
ERl:_Logger_IsLogTypeAllowed_m3527674834
jjd:__Z18Transfer_BlittableI9JSONWriteLb0E8BitFieldEvRK29SerializationCommandArgumentsR31RuntimeSerializationCommandInfo
Nhm:_MemoryStream_set_Capacity_m1773624579
poq:__ZNK15dense_hashtableINSt3__24pairIK10KeyWrapperINS1_IP11Il2CppClassjEEES4_EES6_N6il2cpp8metadata14ArrayClassHashEN14dense_hash_mapIS6_S4_SB_NS6_14EqualsComparerINSA_17ArrayClassCompareEEENS0_9allocatorIS8_EEE9SelectKeyESF_SH_E10test_emptyEj
BLa:__ZNSt3__26vectorIN9ShaderLab20SerializedSubProgram15StructParameterENS_9allocatorIS3_EEE8__appendEj
Ac:invoke_diiii
ZMc:__ZNK6Sprite15GenerateOutlineEfhbRNSt3__26vectorI13dynamic_arrayI8Vector2fLj4EENS0_9allocatorIS4_EEEEi
N7d:__ZL17sweepVolumeVsMeshPKN5physx3Cct9SweepTestEPKNS0_11TouchedMeshERNS0_12SweptContactERKNS_6PxVec3ERKNS_10PxGeometryERKNS_11PxTransformEjPKNS_10PxTriangleEj
Hno:_GroupTrack__ctor_m3787348977
Y3g:__Z95RuntimeInvoker_Void_t1185182177_RuntimeObject_RuntimeObject_SByte_t1669577662_SByte_t1669577662PFvvEPK10MethodInfoPvPS4_
Bdf:__ZN5physx2Gu31checkOverlapOBB_heightFieldGeomERKNS_10PxGeometryERKNS_11PxTransformERKNS0_3BoxE
mdb:__Z24CreateDirectoryRecursiveRKN4core12basic_stringIcNS_20StringStorageDefaultIcEEEE
y4l:_Environment_ReadXdgUserDir_m2654856189
yTn:_Predicate_1_Invoke_m3541220895_gshared
XNa:__ZN9ShaderLab20SerializedSubProgram8TransferI18StreamedBinaryReadILb0EEEEvRT_
mHi:__ZL86ProCamera2DSpeedBasedZoom_t3450403318_CustomAttributesCacheGenerator_ZoomOutSmoothnessP21CustomAttributesCache
F5q:b40
zdd:__Z22MonoGUIContentToNative18ScriptingObjectPtrR10GUIContent
D0d:__ZN5physx2Gu23findRotationMatrixFromZERKNS_6PxVec3E
IO:__ZN26AnimatorControllerPlayable13GenerateGraphEv
YBa:__ZN13RuntimeStaticI21ScalableBufferManagerLb0EE13StaticDestroyEPv
pWf:__ZN2UI13CanvasManager9AddCanvasEPNS_6CanvasE
cEb:__ZN9Texture3D8TransferI19StreamedBinaryWriteILb0EEEEvRT_
Fjc:__ZNK6Camera22CalculateRenderingPathEv
H5q:b42
Dkd:__ZN9JSONWrite8TransferI5RectTIfEEEvRT_PKc17TransferMetaFlags
_Ve:__ZN5physx13NpVolumeCache10invalidateEv
KX:__ZN11UnityEngine9Animation37SetGenericRootTransformPropertyValuesERKNS0_30AnimatorGenericBindingConstantERKN7mecanim10ValueArrayER9Transformbb
L4a:__Z13ConvertMipmap14GraphicsFormatPKvS_Pviiii
pno:_EventPlayable_PrepareFrame_m392818139
V_b:__ZL12InvokeMethodI17RemapPPtrTransferEvRK29SerializationCommandArgumentsR31RuntimeSerializationCommandInfo
ell:_RemoteCertificateValidationCallback_Invoke_m3086073466
qhp:_TiltInput_OnDisable_m1131217228
Lsm:_StringComparer_Compare_m991165676
qLf:_tt_sbit_decoder_load_image
aXi:_ProCamera2DPointerInfluence_PreMove_m2646174735
NVl:_MessageEvent__ctor_m1231650089
K5a:__ZN4core8hash_mapIPK17RenderSurfaceBaseP13RenderTexture19PointerHashFunctionIS3_ENSt3__28equal_toIS3_EEE6insertERKNS8_4pairIKS3_S5_EE
Zdd:__ZNSt3__24listIN10GUIManager12SortedScriptE11memory_poolIS2_EE6__sortI13OldSortScriptEENS_15__list_iteratorIS2_PvEESA_SA_jRT_
Pfe:__ZN5physx6shdfnd5ArrayIPvNS0_19ReflectionAllocatorINS_2Sc10NPhaseCore16ClothListElementEEEE15growAndPushBackERKS2_
NCo:_Collection_1_System_Collections_IList_Add_m3364892189_gshared
OYl:_PlayableHandle_SetSpeed_m3814546370_AdjustorThunk
s8j:_Action_3_BeginInvoke_m1200544450_gshared
qQo:_List_1_AddEnumerable_m3500350831_gshared
NMg:_ProCamera2D_AddCameraTargets_m473417095
EFg:_BunchofWats_waterSpawn_m2280358155
VGk:_PrivateKeyInfo_get_PrivateKey_m3647771102
Cmp:_TMPro_ExtensionMethods_ArrayToString_m1197947245
XXl:_PlayableGraph_CreatePlayableHandle_m1596980658_AdjustorThunk
h2f:__ZN18UnityConnectClient12CloseServiceEv
$M:__ZN13AnimationClip8TransferI17RemapPPtrTransferEEvRT_
K2k:_LayoutGroup_SetLayoutInputForAxis_m2458344630
zrq:__ZN6il2cpp6icalls8mscorlib6System9ThreadingL11ThreadStartEPv
tin:_Enumerator_get_Current_m2579293505_gshared
GHa:__ZN15DirectorManager12OnSampleTimeEv
lZk:_Array_InternalArray__IndexOf_TisMark_t3471605523_m2905388260_gshared
OIj:_TypeBuilder_check_not_created_m3652863637
Cfj:_StandaloneInputModule_UpdateModule_m450861257
ATp:_Font_add_textureRebuilt_m2164317336
DLn:_ReadOnlyCollection_1_System_Collections_IList_Insert_m2928873627_gshared
Tya:__ZN12CachedReader10Align4ReadEv
COd:__ZN15b2WorldManifold10InitializeEPK10b2ManifoldRK11b2TransformfS5_f
e6o:_X501__cctor_m2428304915
TWp:_Canvas_get_renderOrder_m1489855841
AL:__Z14resize_trimmedINSt3__26vectorIN13AnimationClip10FloatCurveE13stl_allocatorIS3_L18MemLabelIdentifier26ELi16EEEEEvRT_j
QTg:__Z50RuntimeInvoker_Void_t1185182177_Single_t1397266774PFvvEPK10MethodInfoPvPS4_
Fip:_AutoMoveAndRotate_Start_m235804072
Pab:__ZNK9Behaviour22GetTypeVirtualInternalEv
Eye:__ZN5physx2Sc14ConstraintCore13setBreakForceEff
y5l:_CCGregorianCalendar_month_from_fixed_m4268992710
wXk:_Array_compare_TisUICharInfo_t75501106_m1310495481_gshared
dtc:__Z21GetScriptingArraySize17ScriptingArrayPtr
EQf:__ZN20TextRenderingPrivate8FontImpl8TransferI14SafeBinaryReadEEvRT_
pHd:__ZNSt3__27__sort4IRN10vector_mapIi22ParticleModulePropertyNS_4lessIiEENS_9allocatorINS_4pairIiS2_EEEEE13value_compareEPS7_EEjT0_SD_SD_SD_T_
W1i:_GameOver_ShowScreen_m1930487244
u2l:_RenderTextureDescriptor__ctor_m382365189
yGp:_AudioMixerPlayable_CreateHandle_m1956837986
kTe:__ZN5physx7NpScene15removeAggregateERNS_11PxAggregateEb
w4m:_Enumerator_MoveNext_m82715800_gshared
wMo:_ReadOnlyCollection_1_System_Collections_IList_Remove_m2624938072_gshared
LJn:_ReadOnlyCollection_1_System_Collections_IList_Clear_m4022532825_gshared
J3n:_Array_InternalArray__set_Item_TisTMP_CharacterInfo_t3185626797_m2866937532_gshared
QJm:_Encoding_get_ASCII_m3595602635
pBf:__ZZN14PhysicsManager15InitializeClassEvEN63EarlyUpdatePhysicsResetInterpolatedTransformPositionRegistrator7ForwardEv
uxd:__ZN11ShapeModule18MultiModeParameterIN25IParticleSystemProperties8PropertyIfNS1_11ClampRadiusEEEE8TransferI14SafeBinaryReadEEvRT_
qUa:__ZN9GfxDevice17ImmediateTexCoordEifff
Fup:_Transform_Translate_m1990195114
Xr:FUNCTION_TABLE_viiiiffffii
_Td:__ZN10ClipperLib7Clipper13AppendPolygonEPNS_5TEdgeES2_
Rjh:__Z117RuntimeInvoker_RuntimeObject_RuntimeObject_Single_t1397266774_Single_t1397266774_Single_t1397266774_SByte_t1669577662PFvvEPK10MethodInfoPvPS4_
o5j:_DerivedType_GetCustomAttributes_m3536779709
Cde:__ZNK5physx3Ext5JointINS_15PxDistanceJointENS_30PxDistanceJointGeneratedValuesEE12getLocalPoseENS_17PxJointActorIndex4EnumE
vDk:_Resources_Load_TisRuntimeObject_m2165441634_gshared
ZQh:__ZL93Interlocked_t2273387594_CustomAttributesCacheGenerator_Interlocked_CompareExchange_m388540288P21CustomAttributesCache
RKj:_MethodBase_get_IsAbstract_m428833029
Gbf:__ZN5physx2GuL34fullContactsGenerationSphereConvexERKNS0_8CapsuleVERKNS0_11ConvexHullVERKNS_6shdfnd3aos12PsTransformVESB_PNS0_17PersistentContactERjRNS0_13ContactBufferEbRNS0_25PersistentContactManifoldERNS8_5Vec3VERKNS8_6FloatVEb
ZIj:_TypeBuilder_check_name_m3505884515
w$b:__Z35Transfer_Blittable_FixedBufferFieldI24GenerateTypeTreeTransferhEvRK29SerializationCommandArgumentsR31RuntimeSerializationCommandInfo
B5q:_emscripten_glUniform4f__wrapper
aOj:_MonoMethod_GetBaseDefinition_m2844667474
bxg:_TextAppear_OnTriggerEnter2D_m2986038612
vnn:_Enumerator_MoveNext_m2595190390_AdjustorThunk
XNk:_SslClientStream_remove_ServerCertValidation2_m4151895043
Cgf:__ZN5physx6shdfnd5ArrayINS_25PxcThresholdStreamElementENS0_19ReflectionAllocatorIS2_EEE8recreateEj
GZk:_Array_InternalArray__IndexOf_TisColor32_t2600501292_m3783551884_gshared
_oa:__ZNK6Camera16GetProjectionFarEv
JB:__Z24InverseTransformRotationRK23TransformAccessReadOnlyRKN4math7_float4E
f7o:_X509Chain_Build_m2469702749
aaa:__ZN11AudioSource6UpdateEv
YAp:_UnityAction_2_BeginInvoke_m1733258791_gshared
ewb:__ZNK14PlayableOutput11DerivesFromE17ScriptingClassPtr
zxb:__ZN7Texture34CreateFileTextureUploadInstructionE18TextureUploadFlagsj
y6a:__ZN13ComputeShader14SetBufferParamEjRKN9ShaderLab16FastPropertyNameE15ComputeBufferID
WEe:__ZN5physx7NpCloth21setCollisionMassScaleEf
Qdf:__ZN5physx6shdfnd5ArrayINS_7PxPlaneENS0_19ReflectionAllocatorIS2_EEE8recreateEj
Gw:__ZNSt3__26vectorIN22NavMeshProjectSettings15NavMeshAreaDataENS_9allocatorIS2_EEE6assignINS_11__wrap_iterIPS2_EEEENS_9enable_ifIXaasr21__is_forward_iteratorIT_EE5valuesr16is_constructibleIS2_NS_15iterator_traitsISB_E9referenceEEE5valueEvE4typeESB_SB_
y3i:_U3CStartU3Ec__Iterator0_MoveNext_m720253420
_Bf:__ZN13PhysicsModule17GetRigidBodyStateERK9RigidbodyPN8IPhysics14RigidBodyStateE
sBh:__ZL64SerializableAttribute_t1992588303_CustomAttributesCacheGeneratorP21CustomAttributesCache
Tfb:__ZN25SingleBlockMemoryFileDataC2E10MemLabelIdPvjb
flq:__ZN15dense_hashtableINSt3__24pairIK10KeyWrapperINS1_IPK11Il2CppImageP11Il2CppClassEEEjEES9_17ReflectionMapHashIS8_EN14dense_hash_mapIS9_jSD_NS9_14EqualsComparerINS0_8equal_toIS8_EEEENS0_9allocatorISB_EEE9SelectKeyESI_SK_E15set_deleted_keyERKSB_
ddm:_Int64_CompareTo_m3345789408
hRf:__ZN18StreamedBinaryReadILb0EE21TransferSTLStyleArrayI10vector_mapINSt3__24pairIttEEfN20TextRenderingPrivate8FontImpl14KerningCompareENS3_9allocatorINS4_IS5_fEEEEEEEvRT_17TransferMetaFlags
l7f:__ZN13VideoPlayback4SeekEdPFvPvES0_
oqd:__ZN11ShapeModule15ReleaseMeshDataEv
aQg:_U3CEnableU3Ec__Iterator0_MoveNext_m502989573
D5n:_Dictionary_2_get_Item_m107019914_gshared
tPd:__ZNK14b2CapsuleShape5CloneEP16b2BlockAllocator
xP:__ZN17AnimationPlayable34CollectAnimatorControllerPlayablesER13dynamic_arrayIP26AnimatorControllerPlayableLj4EE
iea:__ZN16BaseVideoTexture19UpdateVideoTexturesEv
NNj:_MonoField_GetValue_m3124733531
Ymb:__Z28BuildSingleStreamChannelInfo17ShaderChannelMaskRK20VertexChannelsLayoutS_S2_P11ChannelInfo
sya:__ZNK16LightmapSettings23HasLightProbeTetrahedraEv
Drd:__ZNK18ColorBySpeedModule12UpdateSingleERK22ParticleSystemParticleR11ColorRGBA32
IBb:__ZN6Sprite23VirtualRedirectTransferER19StreamedBinaryWriteILb0EE
b4c:__Z38Transform_CUSTOM_INTERNAL_set_positionP12Il2CppObjectRK8Vector3f
qcj:_EventTrigger_Execute_m2453060771
dOn:_Comparison_1_Invoke_m517083441_gshared
Ojg:_TMP_MeshInfo_Clear_m1964950380_AdjustorThunk
_fq:__ZNK15dense_hashtableINSt3__24pairIK10KeyWrapperINS1_IPK9FieldInfoP11Il2CppClassEEEjEES9_17ReflectionMapHashIS8_EN14dense_hash_mapIS9_jSD_NS9_14EqualsComparerINS0_8equal_toIS8_EEEENS0_9allocatorISB_EEE9SelectKeyESI_SK_E5beginEv
EQa:__ZNK9ShaderLab7Program19HasMatchingVariantsERK13dynamic_arrayI16ShaderKeywordSetLj4EE
OW:__ZN15SerializeTraitsIN4math4trsXEE8TransferI8BlobSizeEEvRS1_RT_
kYa:__ZN14DataBufferGLES11CopySubDataEPKS_jjj
dg:_emscripten_glVertexPointer
rYf:__ZN2UI13PrepareOutputERNS_7BatchesEjjNS_30AdditionalCanvasShaderChannelsE
Gcq:__ZN6il2cpp2vm7Runtime47RaiseExecutionEngineExceptionIfMethodIsNotFoundEPK10MethodInfo
r9o:_PatternCompiler_GetMachineFactory_m3758869886
dSn:_Nullable_1_GetHashCode_m2773615167_gshared
$oc:__Z17GetFrustumPortionPK8Vector3fffPS_
Die:__ZNK5physx2Gu22SupportMapRelativeImplINS0_4BoxVEE18doWarmStartSupportEiRNS_6shdfnd3aos5Vec3VE
luq:__ZN15dense_hashtableINSt3__24pairIK10KeyWrapperIP14Il2CppIUnknownEjEES5_N6il2cpp5utils11PointerHashIS3_EEN14dense_hash_mapIS5_jSB_NS5_14EqualsComparerINS0_8equal_toIS4_EEEENS0_9allocatorIS7_EEE9SelectKeyESG_SI_E14squash_deletedEv
gob:__ZN5Light13AwakeFromLoadE17AwakeFromLoadMode
exn:_SimpleCollator_LastIndexOfSortKey_m2864365168
ECf:__Z13RegisterClassI14SphereColliderEvv
Fsj:_RuntimeTypeHandle_Equals_m2857439487_AdjustorThunk
dol:_PublicKey_get_Key_m3077215602
hlp:_WaypointProgressTracker_OnDrawGizmos_m2504516940
hSa:__ZNK9GfxDevice27GetPlatformAdjustedViewportEv
bbg:__ZZL31InitializeVideoManagerCallbacksvEN36PostLateUpdateUpdateVideoRegistrator7ForwardEv
rCd:__ZN37InheritVelocityModulePropertyBindings13SetFloatValueER14ParticleSystemif
rip:_ParticleSystemMultiplier_Start_m1947444609
hcp:_Reference_Compile_m4195878675
ZMl:_Debug_DrawRay_m376463475
OLc:__ZN16StreamedResource8TransferI24GenerateTypeTreeTransferEEvRT_
fMd:__ZN11b2GearJoint4DumpEv
Yvg:_SleepFish_FixedUpdate_m1768800510
Qko:_AudioTrack_CreateClip_m3044959710
m1l:_RectTransform_get_anchorMin_m2928307238
uhn:_KeyValuePair_2_ToString_m3013572783_AdjustorThunk
_ae:__ZN5physx3Cct10Controller13onOriginShiftERKNS_6PxVec3E
bDl:_ArrayList__ctor_m3828927650
sWa:__ZThn9568_N13GfxDeviceGLES26EnableScissorRectsPlatformEv
t7a:__ZN10Matrix3x3f15InvertTransposeEv
fqp:_GUILayoutGroup_SetHorizontal_m996475327
h0k:_Text_get_cachedTextGenerator_m2506989875
Zpp:_GUILayoutEntry__cctor_m663865902
Q3l:_Screen_get_currentResolution_m1680624610
yzd:__ZN14EmissionModule8TransferI19StreamedBinaryWriteILb0EEEEvRT_
GVn:_TMP_XmlTagStack_1_Add_m1649978949_gshared
hhc:__Z11IsBatchmodev
zWp:_Rigidbody2D_AddForce_Injected_m534098484
k3e:__ZN5physx2Gu19_gjkRelativeRayCastINS0_9TriangleVENS0_11ConvexHullVEEEbRT_RT0_RKNS_6shdfnd3aos15PsMatTransformVERKNS9_6FloatVERKNS9_5Vec3VESI_RSD_RSG_SK_f
Fog:_TMP_Text_set_enableKerning_m2547392593
vZb:__Z29Transfer_Blittable_ArrayFieldI14SafeBinaryRead8Vector3fEvRT_R9ArrayInfoRK23StaticTransferFieldInfo
fci:__ZL87Animation_t3648466861_CustomAttributesCacheGenerator_Animation_Play_m577412913____mode0P21CustomAttributesCache
Vp:FUNCTION_TABLE_vfii
iHb:__ZN26SkinnedMeshRendererManager31HandlePreparationBreakingChangeER19SkinnedMeshRenderer
tRf:__ZN20TextRenderingPrivate8FontImpl18ResetCachedTextureEv
Xaq:__ZN6il2cpp6icalls8mscorlib6SystemL16GetFieldFromTypeINS_5utils10functional6FilterINSt3__212basic_stringIcNS7_11char_traitsIcEENS7_9allocatorIcEEEENS4_13VmStringUtils21CaseSensitiveComparerEEEEEP21Il2CppReflectionFieldP11Il2CppClassSK_iRKT_
x8e:__ZNK5physx19ActorAABBUpdateTask7getNameEv
Jan:_Dictionary_2_ContainsKeyValuePair_m3609444989_gshared
Fnl:_X509KeyUsageExtension_Decode_m3150759625
VGq:_GC_print_finalization_stats
VLd:__ZNK12b2WheelJoint10GetAnchorBEv
Nqp:_GUITargetAttribute_GetGUITargetAttrValue_m2954410352
mdn:_Dictionary_2_System_Collections_IDictionary_set_Item_m329348630_gshared
SVc:__Z53Register_UnityEngine_Behaviour_get_isActiveAndEnabledv
bzl:_SimpleEnumerator_get_Current_m72361444
sw:__ZNSt3__26vectorIN4core12basic_stringIcNS1_20StringStorageDefaultIcEEEENS_9allocatorIS5_EEE8__appendEj
Dea:__ZN13ProduceHelperI10SampleClipLb0EE7ProduceE10MemLabelId18ObjectCreationMode
eMb:__ZN26PlayerSettingsSplashScreen8TransferI17RemapPPtrTransferEEvRT_
uzn:_ASN1_set_Value_m2803403806
cbq:__ZN6il2cpp6icalls8mscorlib6SystemL17CollectTypeFieldsINS_5utils10functional10TrueFilterEEEvP11Il2CppClassPKS7_iRNSt3__26vectorIP9FieldInfoNSB_9allocatorISE_EEEERKT_
dje:__ZN5physx3Scb5Scene20addArticulationJointERNS0_17ArticulationJointE
gDn:_ReadOnlyCollection_1_System_Collections_IList_Remove_m1976423569_gshared
WTe:__ZN5physx7NpScene14resetFilteringERNS_12PxRigidActorEPKPNS_7PxShapeEj
tBc:__Z13GetTagManagerv
l9o:_MRUList__ctor_m3064247590
Fwl:_Hashtable__ctor_m1815022027
Tmg:_TMP_SubMeshUI_OnEnable_m3756500694
UXn:_InvokableCall_2__ctor_m200467887_gshared
MMm:_UTF8Encoding_GetChars_m1433288684
mVo:_List_1_System_Collections_IList_set_Item_m2299589143_gshared
yWn:_TMP_XmlTagStack_1_SetDefault_m4146060609_AdjustorThunk
K_p:__ZL10roundUp128PyS_
_ha:__ZN11UnityEngine15CloudWebService17CloudJobSchedulerD0Ev
Fsf:__ZN15CapsuleCollider23VirtualRedirectTransferER14SafeBinaryRead
kOb:__ZN18LoadSceneOperation7PerformEv
wZe:__ZN5physx2Sc5Scene26setSimulationEventCallbackEPNS_25PxSimulationEventCallbackEh
Zyp:_Water2D_Tool_VertexLimit_m3362728828
MTg:__Z96RuntimeInvoker_Boolean_t97287965_RuntimeObject_RuntimeObject_Int32_t2950945753_Int32_t2950945753PFvvEPK10MethodInfoPvPS4_
jYk:_Array_IndexOf_TisUICharInfo_t75501106_m3198896198_gshared
NWf:__ZNK2UI11CanvasGroup22GetTypeVirtualInternalEv
nLk:_Context_get_Current_m2853615040
e0d:__ZL30GeomMTDCallback_CapsuleCapsuleRN5physx6PxVec3ERfRKNS_10PxGeometryERKNS_11PxTransformES5_S8_
AUe:__ZN5physx7NpScene23forceDynamicTreeRebuildEbb
YTd:__ZN10ClipperLib7Clipper14IntersectEdgesEPNS_5TEdgeES2_RNS_8IntPointE
v8d:__ZL18intersectAnyVsMeshILi0EEbPKN5physx2Gu6SphereEPKNS1_7CapsuleEPKNS1_3BoxERKNS1_13RTreeMidphaseERKNS0_11PxTransformERKNS0_11PxMeshScaleEP14LimitedResults
red:__Z21CleanupGlobalGUIStatev
VRm:_Type_IsContextfulImpl_m3693603908
EVq:__ZNKSt3__28time_getIwNS_19istreambuf_iteratorIwNS_11char_traitsIwEEEEE10__get_yearERiRS4_S4_RjRKNS_5ctypeIwEE
f0m:_ShimEnumerator_get_Entry_m4021381433_gshared
Vpe:__ZN5physx14NpArticulation6wakeUpEv
ENc:__ZNSt3__26vectorI14SubstanceInputNS_9allocatorIS1_EEE6assignIPS1_EENS_9enable_ifIXaasr21__is_forward_iteratorIT_EE5valuesr16is_constructibleIS1_NS_15iterator_traitsIS8_E9referenceEEE5valueEvE4typeES8_S8_
KRo:_List_1_RemoveAt_m222339878_gshared
S8a:__ZN22VertexDeclarationCache5ClearEv
luj:_CspParameters__ctor_m3852972821
Hug:_PlayerController_Update_m848427540
AOg:_ProCamera2DCinematics_OverrideSize_m4213299606
ewc:__ZN17PersistentManager12SetPathRemapERKN4core12basic_stringIcNS0_20StringStorageDefaultIcEEEES6_
aS:__Z27ProcessRootMotionEmptyMixerP35AnimationPlayableEvaluationConstantP32AnimationPlayableEvaluationInputP33AnimationPlayableEvaluationOutput
Cqc:__ZN6Camera24PrepareCullingParametersERK23CameraCullingParameters13RenderingPathR11CullResults
ZPc:__Z12SetIUISystemP9IUISystem
xOb:__ZN19RuntimeSceneManager22EndIntegrateMainThreadEP10UnitySceneNS_11LoadingModeE
k4i:_HeartScript_OnTriggerEnter2D_m2479823627
axk:_Array_Sort_TisUICharInfo_t75501106_m3474449559_gshared
e2q:dynCall_viifffii
X_b:__Z26Transfer_UnityEngineObjectI17RemapPPtrTransferLb0EEvRK29SerializationCommandArgumentsR31RuntimeSerializationCommandInfo
oap:_QuickSearch_GetShiftDistance_m2542665852
XBk:_Array_InternalArray__get_Item_TisCustomAttributeTypedArgument_t2723150157_m2639399822_gshared
V2l:_RenderTextureDescriptor_set_depthBufferBits_m2738180586_AdjustorThunk
Lxn:_BigInteger_GenerateRandom_m3141592944
q1b:__Z29Transfer_Blittable_ArrayFieldI24GenerateTypeTreeTransfer4AABBEvRT_R9ArrayInfoRK23StaticTransferFieldInfo
Jde:__ZN5physx3Ext5JointINS_15PxDistanceJointENS_30PxDistanceJointGeneratedValuesEE17setConstraintFlagENS_16PxConstraintFlag4EnumEb
XHq:_GC_adj_bytes_allocd
Qmj:_Graphic_CacheCanvas_m1120385152
khl:_Water2D_Ripple_UpdateRippleShaderParameters_m3700374404
Jpg:_TMP_Text_IsTagName_m3861034023
xmf:__ZN5physx20InternalTriangleMesh16allocateVerticesEj
wYe:__ZN5physx2Sc16InteractionScene18releaseConstraintsEb
Pud:__Z15GetPositionMeshIL20MeshDistributionMode1ELb0E11ColorRGBA32EvRN4math8floatNx3ES4_RNS2_4pix4ERK13dynamic_arrayIS1_Lj4EERK14StrideIteratorI8Vector3fESF_RKSB_IT1_ERKS7_I16MeshTriangleDataLj4EERKS7_I11MeshAreaLUTLj4EERKfRKiST_R5RandNP12SkinMeshInfo
Mcl:_Int128_Equals_m898799719
sMd:__ZN13b2PulleyJoint24SolveVelocityConstraintsERK12b2SolverData
F6e:__ZN5physx6shdfnd5ArrayINS_17PxcBroadPhasePairENS0_19ReflectionAllocatorIS2_EEE8recreateEj
Ryc:__ZNK17AnimationCurveTplIfE20FindIndexForSamplingERKNS0_5CacheEfRiS4_
V4m:_Enumerator_get_Current_m1781571415_AdjustorThunk
Xa:invoke_fiiifii
FPq:_modff
cgh:__Z88RuntimeInvoker_Void_t1185182177_Vector2_t2156229523_Single_t1397266774_SByte_t1669577662PFvvEPK10MethodInfoPvPS4_
H6d:__ZThn4_N16RayRTreeCallbackILi1ELb0EED1Ev
hrb:__ZN20SphericalHarmonicsL219AddDirectionalLightERKN4math7_float3ERKNS0_7_float4E
flf:__ZN5physx13BigConvexDataD2Ev
xHa:__Z26ScheduleJobForEachInternalR8JobFencePFvPvjES1_iPFvS1_E11JobPriority
Ugc:__ZZ23InitPlayerLoopCallbacksvEN41PostLateUpdateProfilerEndFrameRegistrator7ForwardEv
mRc:__ZN9Scripting18RaiseMonoExceptionEPKcz
nWf:__ZN2UI13UIInstruction19ClearSharedMeshDataER8JobFence
lJc:__ZN10GameObject17WillHandleMessageERK17MessageIdentifier
Cnm:_StrongNamePublicKeyBlob_Equals_m3655422942
Bom:_SecurityContext__ctor_m1730177197
gYp:_RectTransformUtility_GetTransposed_m3952754222
vGc:__ZN9ShaderLab16FastPropertyName15InitBy28BitHashEj
aB:__ZN14NavMeshManager17UnloadNavMeshDataEi
jgg:_TMP_InputField_get_readOnly_m4204310477
Cqn:_List_1_System_Collections_IList_Add_m2937161398_gshared
jVf:__Z34TextMesh_CUSTOM_INTERNAL_get_colorP12Il2CppObjectP10ColorRGBAf
lKl:_Camera_set_rect_m521006799
ZWg:__Z96RuntimeInvoker_Void_t1185182177_Int32_t2950945753_Single_t1397266774_RuntimeObject_RuntimeObjectPFvvEPK10MethodInfoPvPS4_
oyg:_U3CStartU3Ec__Iterator0_MoveNext_m891136783
I8e:__ZN5physx20updateBodyShapeAABBsEPKjjS1_PKNS_17PxcAABBDataStaticEPNS_11IntegerAABBEj
WYm:_Enumerator_System_Collections_IDictionaryEnumerator_get_Key_m195047678_AdjustorThunk
SWp:_Canvas_get_pixelPerfect_m333060872
cFb:__ZN17PackedFloatVector12UnpackFloatsEPfiiii
Hgq:__ZN30dense_hashtable_const_iteratorINSt3__24pairIK10KeyWrapperIPK10Il2CppTypeEjEES6_N6il2cpp8metadata14Il2CppTypeHashEN14dense_hash_mapIS6_jSB_NS6_14EqualsComparerINSA_26Il2CppTypeEqualityComparerEEENS0_9allocatorIS8_EEE9SelectKeyESF_SH_EppEv
jud:__Z16EmitterStoreDataRKN4math8float3x3ERKNS_8float4x4ER23ParticleSystemParticlesRK19ParticleSystemStatejRNS_8floatNx3ESC_R5RandNfffbb
fV:__ZN17AnimationPlayable28UpdateInternalStateRecursiveILi3ELb0EEEvPK35AnimationPlayableEvaluationConstant
Hrq:__ZN6il2cpp6icalls8mscorlib6System9Threading6Thread25SetCachedCurrentUICultureEP12Il2CppThreadP12Il2CppObject
qVa:__ZN13GfxDeviceGLES21DestroyComputeProgramER12ObjectHandleI18ComputeProgram_TagPvE
XZl:_PlayableOutputHandle_SetSourceInputPort_Injected_m3992120269
N9o:_PatternCompiler_EmitIfDefined_m2075050865
OEo:_Collection_1_System_Collections_ICollection_CopyTo_m2168032990_gshared
KEm:_Decimal_System_IConvertible_ToInt64_m1446427516_AdjustorThunk
kFa:__ZN17UniqueIDGenerator16DestroyPureIndexEj
Z_j:_NotImplementedException__ctor_m3095902440
Isa:__ZL21AppendNestedClassName17ScriptingClassPtrRN4core17string_with_labelILi1EEE
iLa:__ZN14SafeBinaryRead21TransferSTLStyleArrayINSt3__26vectorIN9ShaderLab20SerializedSubProgram12UAVParameterENS1_9allocatorIS5_EEEEEEvRT_17TransferMetaFlags
h4i:_HealthpointText_Start_m3101230982
DTp:_FontTextureRebuildCallback_Invoke_m3604797831
JDf:__Z32Joint_CUSTOM_INTERNAL_set_anchorP12Il2CppObjectRK8Vector3f
hja:__ZN24TextDOMTransferWriteBaseI9JSONWriteE12PushMetaFlagEi
Npn:_List_1_Add_m4255200164_gshared
BEe:__ZN5physx7NpCloth22removeCollisionCapsuleEj
NLh:__ZL59_PropertyBuilder_t1366136710_CustomAttributesCacheGeneratorP21CustomAttributesCache
X1a:__ZN6prcoreL26RemapGenericIntegerToFloatI17TexFormatARGB888815TexFormatRFloatEEvPKNS_9InnerInfoE
F3c:__Z60Register_UnityEngine_RenderTexture_Internal_SetSRGBReadWritev
YXo:_List_1__ctor_m808270210_gshared
Zdq:__ZN6il2cpp2vm17TypeNameParseInfoD2Ev
Jfn:_PrimeHelper_ToPrime_m3704362632_gshared
jrk:_InternalEnumerator_1_System_Collections_IEnumerator_get_Current_m1534265021_AdjustorThunk
Jgf:__ZN5physx18PxsSolverStartTask16articulationTaskEv
x_n:_Array_InternalArray__ICollection_Add_TisTMP_LineInfo_t1079631636_m3530129359_gshared
rwp:_Vector2_get_right_m1027081661
hoa:__ZNK8Renderer8GetLayerEv
nke:__ZN5physx6shdfnd4sortIPvNS0_4LessIS2_EENS0_19ReflectionAllocatorINS_2Cm5BlockIS2_Lj16EEEEEEEvPT_jRKT0_RKT1_j
Mim:_Stream_Close_m771352034
mlc:__ZNK6Camera20GetReplacementShaderEv
bye:__ZN18MultiQueryCallbackIN5physx12PxRaycastHitEE6invokeERfPKNS0_2Sq13PrunerPayloadEj
oLq:__ZNSt3__26__treeINS_12__value_typeINS_12basic_stringIcNS_11char_traitsIcEENS_9allocatorIcEEEEPFvvEEENS_19__map_value_compareIS7_SA_NS_4lessIS7_EELb1EEENS5_ISA_EEE4findIS7_EENS_15__tree_iteratorISA_PNS_11__tree_nodeISA_PvEEiEERKT_
hDf:__ZNK9Rigidbody16GetPointVelocityERK8Vector3f
fam:_Guid_ToString_m3279186591
k$a:__ZL23stbir__calculate_memoryP11stbir__info
D8g:__Z73RuntimeInvoker_Void_t1185182177_Playable_t459825607_FrameData_t2602190594PFvvEPK10MethodInfoPvPS4_
Fsl:_Interpreter_Close_m126356671
__e:__ZN5physx18PxcNpThreadContextD2Ev
nYg:__Z67RuntimeInvoker_Void_t1185182177_OpCode_t123070264_SByte_t1669577662PFvvEPK10MethodInfoPvPS4_
xEb:__ZNK6Camera18GetRenderRectangleEv
Xol:_X509Chain_Reset_m1198177101
axq:__ZN6il2cpp8metadata15GenericMetadata7InflateEPK19Il2CppGenericMethodPK20Il2CppGenericContext
rWc:__Z32Camera_Get_Custom_PropPixelWidthP12Il2CppObject
Gap:_Parser_HandleExplicitNumericGroups_m1412234891
cmd:__ZL26Transfer_SimpleNativeClassI8JSONRead10RectOffsetLb1EEvRK29SerializationCommandArgumentsR31RuntimeSerializationCommandInfo
BSl:_Material_SetInt_m475299667
$Zf:__Z44CanvasRenderer_CUSTOM_INTERNAL_CALL_SetColorP12Il2CppObjectRK10ColorRGBAf
D4q:dynCall_iiffffi
p6m:_Enumerator_MoveNext_m3045873697_AdjustorThunk
Ojn:_Enumerator_System_Collections_IEnumerator_Reset_m959124362_AdjustorThunk
Jxj:_CrossContextDelegate_Invoke_m3121381558
Thj:_CanvasScaler_HandleScaleWithScreenSize_m3848620697
vIm:_Enum_ToObject_m121831801
kpf:__ZN5physx2Gu27computeBoundsAroundVerticesERNS_9PxBounds3EjPKNS_6PxVec3E
bpj:_Image_get_hasBorder_m3423344180
Tid:__Z18Transfer_BlittableI9JSONWriteLb1EsEvRK29SerializationCommandArgumentsR31RuntimeSerializationCommandInfo
QTd:__ZN10ClipperLib8JoinHorzEPNS_5OutPtES1_S1_S1_NS_8IntPointEb
aTe:__ZNK5physx7NpScene9getLimitsEv
xSc:__ZN9Transform16SetLocalRotationERK11Quaternionf
G3e:__ZNK5physx2Gu29EPASupportMapPairRelativeImplINS0_9TriangleVENS0_8CapsuleVEE9doSupportERKNS_6shdfnd3aos5Vec3VERS7_SA_SA_
rcl:_PolyNode_get_ChildCount_m183502246
Dhc:__ZN13RenderManager37RenderCamerasWithScriptableRenderLoopEi
y7e:__ZN3MBP12updateObjectEjRK5IAABB
w4c:__Z40Transform_CUSTOM_INTERNAL_get_lossyScaleP12Il2CppObjectP8Vector3f
ELl:_Color_get_white_m332174077
pne:__ZN5physx6shdfnd5ArrayINS_6PxVec3ENS0_19ReflectionAllocatorIS2_EEE15growAndPushBackERKS2_
lUa:__ZN13GfxDeviceGLES22ReleaseThreadOwnershipEv
qxq:__ZN6il2cpp2os19ReleaseSocketHandleEj
iCk:_Array_InternalArray__get_Item_TisSingle_t1397266774_m1672589487_gshared
t8i:_TextMeshPro_GetTextInfo_m3648447034
vda:__ZN11AudioModule16GetDSPSampleRateEv
tec:__ZN15InstancingProps11NewConstantERKN9ShaderLab16FastPropertyNameEj15ShaderParamTypehhjjP6Object
ZWe:__ZN5physx2Sc5Scene20fireTriggerCallbacksEv
Bdq:__ZN6il2cpp2vm14TypeNameParser13ParseTypeNameERi
krd:__ZN14ParticleSystem4EmitEPS_RK21SubEmitterEmitCommand
OWf:__ZN2UI11CanvasGroup23VirtualRedirectTransferER19StreamedBinaryWriteILb0EE
V2e:__ZN5physx2Gu18GJKRelativeRayCastERNS0_8CapsuleVERNS0_4BoxVERKNS_6shdfnd3aos15PsMatTransformVERKNS6_6FloatVERKNS6_5Vec3VESF_RSA_RSD_SH_fb
I6o:_X509CertificateCollection__ctor_m3467061452
Rtl:_Array_GetUpperBound_m4018715963
wel:_FloatingObject2D_Equals_m1192113225
O7o:_X509Store__ctor_m2736551756
rzq:__ZN6il2cpp2os5posix15PosixWaitObjectC2ENS2_4TypeE
zjc:__ZN6Camera21PostMultiCustomRenderENS_10RenderFlagEb
C1n:_Array_InternalArray__Insert_TisMonoResource_t4103430009_m1997865927_gshared
k6c:__Z56Register_UnityEngine_QualitySettings_set_pixelLightCountv
xlm:_SHA512Managed_HashFinal_m2173184560
d6a:__ZN12_GLOBAL__N_112UploadImagesEP7ApiGLESjji14GraphicsFormatPKhjS2_iiii16TextureUsageModePh
hec:__ZN23ShaderVariantCollection13WarmupShadersEv
p4f:__ZN11UnityEngine15PlatformWrapper20GetPlayerPrefsUInt64ERKN4core12basic_stringIcNS1_20StringStorageDefaultIcEEEEy
WXm:_Enumerator_System_Collections_IDictionaryEnumerator_get_Entry_m1355283127_AdjustorThunk
sck:_InternalEnumerator_1_get_Current_m3840351116_gshared
JSj:_Marshal_copy_from_unmanaged_m2834266824
qsa:__Z25GetCommonScriptingClassesv
VOb:__Z27scripting_gc_collect_unsafei
vGk:_MD5SHA1_HashFinal_m4115488658
Ada:__ZN11AudioModule20SuspendVideoTexturesEv
FZn:_Array_InternalArray__ICollection_Add_TisKeyValuePair_2_t71524366_m3468275433_gshared
$Hp:_AudioSettings_InvokeOnAudioManagerUpdate_m4044425648
Hga:__Z59Register_UnityEngine_AudioExtensionManager_GetAudioListenerv
nZm:_Enumerator_VerifyState_m788183934_gshared
VEf:__Z59Register_UnityEngine_CharacterController_INTERNAL_CALL_Movev
Crg:_TMP_Text_DrawUnderlineMesh_m2371773450
jnq:_il2cpp_method_get_param
OOe:__ZN5physx13NpRigidStaticC2ERKNS_11PxTransformE
J0b:__Z26Transfer_UnityEngineObjectI24GenerateTypeTreeTransferLb0EEvRK29SerializationCommandArgumentsR31RuntimeSerializationCommandInfo
v$l:_Random_get_insideUnitSphere_m3252929179
fIf:_UNITY_FT_GlyphLoader_CheckPoints
w4q:dynCall_iiififfi
E0k:_InputField_LineDownCharacterPosition_m2798128425
f3e:__ZN5physxL20PxcSweepBoxTrianglesERKNS_11PxsCCDShapeES2_RKNS_11PxTransformES5_S5_S5_fRNS_6PxVec3ES7_RNS_10PxcNpCacheERNS_18PxcNpThreadContextERKNS_2Cm23FastVertex2ShapeScalingERNS_2Gu9TriangleVEf
utj:_SByte_ToString_m3584531119
obe:__ZN5physx3Cct15ObstacleContextD0Ev
qlb:__ZN15SharedLightData7PrecalcEv
zua:__ZN10Matrix4x4fmLERKS_
MEq:__ZN6il2cpp2os11Environment17GetProcessorCountEv
Fvp:_Vector2__ctor_m3970636864
f4b:__Z35Transfer_Blittable_FixedBufferFieldI18StreamedBinaryReadILb1EEsEvRK29SerializationCommandArgumentsR31RuntimeSerializationCommandInfo
eNn:_ReadOnlyCollection_1_System_Collections_Generic_ICollectionU3CTU3E_Add_m291309932_gshared
HKg:_KDTree_MakeFromPointsInner_m2929497094
Leb:__ZN15ArchiveReadFileD0Ev
Fx:__ZN14NavMeshManager13RegisterAgentER12NavMeshAgentRi
RUd:__ZN23ColliderTilingExtension9GetBoundsEP10Collider2DR4AABB
Dog:_TMP_Text_get_isTextTruncated_m4028034498
oWp:_Rigidbody2D_MovePosition_Injected_m2788255147
Bz:__ZN11DynamicMesh24RemoveDegeneratePolygonsEv
KKj:_TypeBuilder_append_method_m751930812
QXe:__ZN5physx3Scb9Aggregate9syncStateERNS0_5SceneE
j5l:_Calendar__ctor_m106290643
$Eh:__ZL62ParamArrayAttribute_t3664765590_CustomAttributesCacheGeneratorP21CustomAttributesCache
Rqo:_TimelineClip_get_mixInPercentage_m3420554481
umj:_FontUpdateTracker_RebuildForFont_m3134452007
$$j:_NumberFormatter_FormatDecimal_m1921932981
F7c:__Z74Register_UnityEngine_Playables_PlayableGraph_CreatePlayableHandle_Injectedv
y2c:__Z40SpriteRenderer_CUSTOM_GetSprite_INTERNALP12Il2CppObject
dgj:_TouchInputModule_ProcessTouchPress_m3504077560
m9k:_Selectable_IsInteractable_m2611421038
KHf:_FT_MSB
$ug:_PlayerUI_Start_m2286964496
P_:__ZN29AnimationStateNetworkProvider24SetNetworkAnimationStateER9AnimationPK24AnimationStateForNetworki
$nn:_Enumerator_System_Collections_IEnumerator_get_Current_m292157294_AdjustorThunk
JHc:__ZZL23RegisterLightPropertiesR22GenericPropertyBindingEN29Wrapper_LightShadowNormalBias13GetFloatValueEPv
AQk:_Array_InternalArray__ICollection_Contains_TisParameterModifier_t1461694466_m1000453323_gshared
xte:__ZN5physx7NpActor17resolveReferencesERNS_24PxDeserializationContextE
JCf:__ZN9Rigidbody15InitializeClassEv
J8n:_Dictionary_2_System_Collections_ICollection_CopyTo_m4047192178_gshared
bdq:__ZN6il2cpp2os4File11GetFileStatERKNSt3__212basic_stringIcNS2_11char_traitsIcEENS2_9allocatorIcEEEEPNS0_8FileStatEPi
PDq:__ZNSt3__212basic_stringIDsNS_11char_traitsIDsEENS_9allocatorIDsEEE9push_backEDs
o7c:__Z48Register_UnityEngine_Mesh_RecalculateNormalsImplv
iGc:__ZN9TransformC2E10MemLabelId18ObjectCreationMode
aio:_TrackAsset_get_compilable_m3341882138
CRa:__ZN13GfxDeviceGLES14SetRasterStateEPK17DeviceRasterState
nbd:__ZN16PlayableDirector23VirtualRedirectTransferER18StreamedBinaryReadILb0EE
zxp:_Vector4_Equals_m1779210055
Nfe:__ZN5physx6shdfnd8internal8HashBaseINS0_4PairIKPKNS_2Sc8ShapeSimENS4_10NPhaseCore16ClothListElementEEES7_NS0_4HashIS7_EENS1_11HashMapBaseIS7_SA_SD_NS0_9AllocatorEE6GetKeyESF_Lb1EE5eraseERS8_
$Jf:_otv_Coverage_get_count
sfe:__ZN5physx5Elems17setStaticAABBDataEjRKNS_17PxcAABBDataStaticE
hlk:_InternalEnumerator_1_get_Current_m1711665164_AdjustorThunk
qva:__ZN14SafeBinaryRead11EndTransferEv
vXb:__ZN14SafeBinaryRead8TransferI8MonoPPtrEEvRT_PKc17TransferMetaFlags
lIm:_Enum_System_IConvertible_ToUInt16_m4216751959
DAd:__ZN11MinMaxCurve11ResetCurvesEv
d5b:__ZN8GUIStyle8TransferI18StreamedBinaryReadILb1EEEEvRT_
_wk:_Array_Sort_TisWeightInfo_t1982677921_m4239013760_gshared
Pum:_SortedList_Remove_m2784369438
u0i:_U3CMoveRoutineU3Ec__Iterator0_MoveNext_m2708599618
VIj:_ModuleBuilder_DefineType_m2262733165
F_c:__Z40Register_UnityEngine_Input_GetKeyDownIntv
i_a:__ZN4crnd12crn_unpacker10unpack_dxnEPPhjjj
zLc:__ZN20PlayableAssetUtility15IsPlayableAssetE4PPtrI6ObjectE
v9i:_TextMeshProUGUI_OnPreRenderCanvas_m2105623150
_sa:__ZN14SerializedFileD2Ev
dfd:__Z30Event_Get_Custom_PropModifiersP12Il2CppObject
Ale:__ZN5physx6shdfnd5ArrayIPvNS0_16AlignedAllocatorILj64ENS0_9AllocatorEEEE15growAndPushBackERKS2_
uVp:_Physics2D_Raycast_m2858866636
yCg:_Clipper_ProcessIntersections_m2800324320
LFe:__ZN5physx6shdfnd5ArrayINS_35PxClothParticleSeparationConstraintENS0_19ReflectionAllocatorIS2_EEE6resizeEjRKS2_
MP:__ZN7mecanim9animation16CreateClipOutputEPKNS0_4ClipERNS_6memory9AllocatorE
j5k:_RawImage_get_mainTexture_m2396337033
eyd:__ZN27ParticleSystemEmissionBurst8TransferI24GenerateTypeTreeTransferEEvRT_
Zpo:_TimelinePlayable_CacheTrack_m3978214922
JJk:_HandshakeMessage_Process_m810828609
QDq:__ZNSt3__212basic_stringIDsNS_11char_traitsIDsEENS_9allocatorIDsEEE9__grow_byEjjjjjj
Dae:__ZN5physx3Cct12SweptCapsuleC2Ev
_t:__ZN14NavMeshCarving17ApplyCarveResultsEv
MJa:__ZN6Shader21AwakeFromLoadThreadedEv
Z0a:__ZN6prcoreL17RemapGenericFloatI17TexFormatRGBFloat17TexFormatRGBAHalfEEvPKNS_9InnerInfoE
TSm:_UInt16_System_IConvertible_ToSingle_m2654722405_AdjustorThunk
SFl:_CaseInsensitiveHashCodeProvider__cctor_m3655208966
$vp:_Vector2_GetHashCode_m3916089713_AdjustorThunk
Uzf:__ZN5physx24PxcContactBoxHeightFieldERKNS_2Gu13GeometryUnionES3_RKNS_11PxTransformES6_RKfRNS_10PxcNpCacheERNS0_13ContactBufferE
QMq:__ZN6il2cpp2os9SemaphoreC2Eii
uOk:_SslClientStream_OnLocalPrivateKeySelection_m1934775249
xXb:__ZNSt3__26vectorI8MonoPPtr13stl_allocatorIS1_L18MemLabelIdentifier1ELi16EEE8__appendEj
Nhj:_CanvasScaler_SetScaleFactor_m3006968999
ckc:__ZN14qsort_internal30FindAndMovePivotToLastPositionIP17RODataReplacementi19ROSorterReplacementEEvT_S4_T0_T1_
l7a:__ZN15UniformTFMethod20IsBoneCountSupportedEi
o8e:__ZNK5physx23AggregateAABBUpdateTask7getNameEv
uvg:_U3CSavecoU3Ec__Iterator0_Dispose_m2862852159
sVm:_UnauthorizedAccessException__ctor_m246605039
F1q:dynCall_viidi
aOn:_Comparison_1_BeginInvoke_m3263247262_gshared
AFo:_Collection_1_System_Collections_IList_Contains_m1330663661_gshared
Gra:__ZN24ScriptingMethodFiltering17FilterOnSignatureENS_18MethodSearchFilterE
Qzd:__ZN11TrailModule8TransferI19StreamedBinaryWriteILb0EEEEvRT_
jkf:__ZN5physx13NpClothFabric16scaleRestlengthsEf
Evc:__ZN18ScreenManagerWebGL13SetLockCursorE14CursorLockMode
gHf:_cf2_arrstack_finalize
C6o:_X509Certificate_VerifySignature_m3538124832
jck:_InternalEnumerator_1_System_Collections_IEnumerator_get_Current_m1299065558_AdjustorThunk
XDd:__ZL37ParticleGeomBillboardFacingOrVelocityIL25ParticleSystemRenderSpace4ELb0EEvRKN4math8floatNx3ES4_S4_S4_S4_RKNS1_8float3x3ES4_S4_S4_RKNS1_8floatNx2ES4_RS2_SB_PS2_
bLm:_StringBuilder_Append_m1640838743
Qim:_StreamAsyncResult_SetComplete_m1102187093
Scp:_CharacterClass_GetIntervalCost_m4036989868
JDc:__ZN13MonoBehaviour19HandleNotificationsEPviR11MessageData
X0l:_RectOffset_Init_m2028508611
vQe:__ZN5physx6shdfnd5ArrayIPNS_2Sc17ParticleSystemSimENS0_19ReflectionAllocatorIS4_EEE8recreateEj
f$o:_List_1_System_Collections_IList_Remove_m4226673807_gshared
GHk:_Alert__ctor_m3135936936
Jcm:_Int64_System_IConvertible_ToInt32_m772105781
t3o:_TlsClientSettings__ctor_m3220697265
big:_TMP_InputField_Rebuild_m1304665942
Wiq:__ZNK15dense_hashtableINSt3__24pairIK10KeyWrapperINS1_IPK9EventInfoP11Il2CppClassEEEjEES9_17ReflectionMapHashIS8_EN14dense_hash_mapIS9_jSD_NS9_14EqualsComparerINS0_8equal_toIS8_EEEENS0_9allocatorISB_EEE9SelectKeyESI_SK_E23find_position_with_hashERSA_j
$5q:b58
sKm:_ForwardingDecoder_GetChars_m4228908854
Hhc:__ZN25CameraStackRenderingState18EndStereoRenderingEv
_sl:_InterpreterFactory_get_GroupCount_m2226373271
V5q:b53
S5q:b50
T5q:b51
jcf:__ZN5physx9PxTaskMgrD0Ev
_5q:b57
W5q:b54
X5q:b55
rtf:__ZN19CharacterController8TransferI14SafeBinaryReadEEvRT_
zOo:_ReadOnlyCollection_1_System_Collections_Generic_IListU3CTU3E_set_Item_m88350439_gshared
Awn:_SimpleCollator_IsSafe_m310268646
Hqg:_TMP_Text_InternalCrossFadeColor_m2670476039
S8q:_glDetachShader__wrapper
P2m:_Transform_1_BeginInvoke_m1757796657_gshared
Bph:__Z88RuntimeInvoker_Int32_t2950945753_UIVertex_t4057497605_UIVertex_t4057497605_RuntimeObjectPFvvEPK10MethodInfoPvPS4_
AIc:__ZN10GameObject12CleanupClassEv
koe:__ZN5physx3Scb5Scene13addRigidNoSimINS0_11RigidStaticELb0ELb1EEEvRT_RNS0_13ObjectTrackerE
qSa:__ZN9GfxDevice25SetShaderPropertiesSharedERK19ShaderPropertySheet
uB:__ZN14NavMeshManager11RemoveTilesEiRK13dynamic_arrayIiLj4EE
Xgj:_BaseMeshEffect_get_graphic_m1852367505
VFl:_CaseInsensitiveHashCodeProvider_GetHashCode_m2168170016
_Ac:__ZN19SpriteMeshGenerator4path9clip_edgeEi
tfl:_MenuManager_ShowOldDemoScenesMenu_m3576149390
fHc:__ZL25InitializeDefaultMaterialv
A_f:__Z53Register_UnityEngine_CanvasRenderer_get_materialCountv
Qjn:_Enumerator_System_Collections_IEnumerator_get_Current_m3681948262_AdjustorThunk
eKj:_PropertyBuilder_GetCustomAttributes_m3798356764
LPj:_PropertyInfo_get_MemberType_m2794839864
Vrm:_String_Replace_m3726209165
sbn:_Dictionary_2_GetObjectData_m3427911285_gshared
Nrl:_CategoryUtils_CategoryFromName_m1352081402
stk:_Comparer_1_System_Collections_IComparer_Compare_m4179495191_gshared
Ycb:__ZN17PersistentManager12UnloadStreamERKN4core12basic_stringIcNS0_20StringStorageDefaultIcEEEEb
_lp:_TMP_UpdateManager_InternalUnRegisterTextElementForLayoutRebuild_m2702228669
j6p:__ZN15dense_hashtableINSt3__24pairIK10KeyWrapperIN6il2cpp5utils13dynamic_arrayIPK10Il2CppTypeLj4EEEEPFvvEEESA_NS3_8metadata19Il2CppSignatureHashEN14dense_hash_mapISA_SD_SG_NSA_14EqualsComparerINSF_22Il2CppSignatureCompareEEENS0_9allocatorISE_EEE9SelectKeyESK_SM_E13set_empty_keyERKSE_
lTd:__ZN10ClipperLib11ClipperBase7AddPathERKNSt3__26vectorINS_8IntPointENS1_9allocatorIS3_EEEENS_8PolyTypeEb
RG:__ZN15SerializeTraitsI9OffsetPtrIN7mecanim9animation17BlendTreeConstantEEE8TransferI19StreamedBinaryWriteILb0EEEEvRS4_RT_
w2n:_Array_InternalArray__Insert_TisUICharInfo_t75501106_m2924156520_gshared
HWd:__ZN19CompositeCollider2D22SimplifyCompositePathsERKNSt3__26vectorINS1_IN10ClipperLib8IntPointENS0_9allocatorIS3_EEEENS4_IS6_EEEERS8_
lZn:_MonoProperty_GetterAdapterFrame_TisRuntimeObject_TisRuntimeObject_m458718082_gshared
wod:__Z43ParticleSystemRenderer_RenderMultipleMeshesIL21SpriteMaskInteraction2EEvRK15RenderNodeQueueRK18RenderMultipleData17ShaderChannelMask
x$i:_ProCamera2DTriggerZoom__ctor_m3935702073
tT:__ZNK26AnimatorControllerPlayable11DerivesFromE17ScriptingClassPtr
sJg:_EditorPrefsX_SetColor_m1113974183
_Yi:_ProCamera2DShake_StopShaking_m2020032100
Mya:__ZN8Renderer8TransferI17RemapPPtrTransferEEvRT_
Dhp:_AfterburnerPhysicsForce_OnEnable_m3452640778
qtf:__ZN5physx23PxCapsuleControllerDesc12setToDefaultEv
rJf:_otv_MATH_validate
Ymg:_TMP_SubMeshUI_GetPaddingForMaterial_m2175527807
SYm:_Enumerator_System_Collections_IDictionaryEnumerator_get_Entry_m522483686_gshared
$w:__ZN15NavMeshSettings23VirtualRedirectTransferER24GenerateTypeTreeTransfer
apn:_List_1_GetEnumerator_m2792408562_gshared
eOm:_Thread_get_CurrentContext_m1695017876
WKg:_MoveInColliderBoundaries_get_CameraCollisionState_m478085678
b_c:__Z22Input_CUSTOM_GetKeyInti
JFe:__ZNK5physx2Sc9ClothCore16getCollisionDataEPNS_22PxClothCollisionSphereEPjPNS_21PxClothCollisionPlaneES4_PNS_24PxClothCollisionTriangleE
gNd:__ZN16PhysicsManager2D19AddRigidbodyUpdatesEP11Rigidbody2D
Ctc:__Z24LookRotationToQuaternionRK8Vector3fS1_P11Quaternionf
Atc:__ZN16ReflectionProbes9GetCameraEv
Dvd:__ZN22ParticleSystemRenderer8TransferI14SafeBinaryReadEEvRT_
ZYf:__ZN2UI6Canvas17SetSortingLayerIDEi
ozq:__ZN6il2cpp2vm11MethodStack23CleanupForCurrentThreadEv
gKo:_Collection_1_ConvertItem_m618594517_gshared
Vkk:_InternalEnumerator_1_System_Collections_IEnumerator_get_Current_m2011757623_AdjustorThunk
aBm:_Convert_ToUInt64_m388601487
mmb:__ZN20TierGraphicsSettings8TransferI24GenerateTypeTreeTransferEEvRT_
P5p:__ZN15dense_hashtableINSt3__24pairIK10KeyWrapperIN6il2cpp5utils13dynamic_arrayIPK10Il2CppTypeLj4EEEEPFvvEEESA_NS3_8metadata19Il2CppSignatureHashEN14dense_hash_mapISA_SD_SG_NSA_14EqualsComparerINSF_22Il2CppSignatureCompareEEENS0_9allocatorISE_EEE9SelectKeyESK_SM_E16reset_thresholdsEv
vUl:_Mesh_get_vertices_m3585684815
K7p:__ZN6il2cpp2vm13MetadataCache22GetMethodInfoFromIndexEj
kZb:__ZN14SafeBinaryRead21TransferSTLStyleArrayI13dynamic_arrayI4AABBLj4EEEEvRT_17TransferMetaFlags
Ctp:_TouchScreenKeyboard_get_text_m1797464608
Kuc:__ZN26CustomRenderTextureManager25UpdateCustomRenderTextureEP19CustomRenderTexturei
Ojd:__ZN9JSONWrite21TransferSTLStyleArrayI31ArrayOfManagedObjectsTransfererEEvRT_17TransferMetaFlags
Sbp:_AnchorInfo__ctor_m3869855453
gtk:_Comparer_1_System_Collections_IComparer_Compare_m3331561281_gshared
Qac:__ZN13MonoBehaviour18TransferEngineDataI24GenerateTypeTreeTransferEE4PPtrI10MonoScriptERT_
yUd:__ZN16PhysicsManager2D42RegisterTransformChangeInterestForColliderEP10Collider2D
FLc:__ZNK14PlayableOutput23GetSourcePlayableUnsafeEv
u0f:__ZN11UnityEngine7Connect17XRDeviceInfoEventD0Ev
adj:_ExecuteEvents_Execute_m3936726821
WMh:__ZL60SoapTypeAttribute_t1750930817_CustomAttributesCacheGeneratorP21CustomAttributesCache
i9f:__ZNK20BrowserVideoPlayback11GetDurationEv
Wpo:_TimelinePlayable_CreateTrackPlayable_m784357176
$pd:__ZN14ParticleSystem8Update1bER24ParticleSystemUpdateDatafNS_11UpdateFlagsEi
Ubd:__ZNSt3__26vectorINS_4pairI12PropertyName4PPtrI6ObjectEEENS_9allocatorIS6_EEE8__appendEj
AZk:_Array_InternalArray__IndexOf_TisTMP_MeshInfo_t2771747634_m956969202_gshared
fJd:__ZN15AnchoredJoint2D8TransferI14SafeBinaryReadEEvRT_
P2j:_Binder_ConvertArgs_m2124461494
tB:__ZN11NavMeshData11UpdateTilesERK13dynamic_arrayIiLj4EERNSt3__26vectorI15NavMeshTileData13stl_allocatorIS6_L18MemLabelIdentifier76ELi16EEEERS1_
Bma:__ZN21UnityDefaultAllocatorI17LowLevelAllocatorE10DeallocateEPv
H6q:b86
Lob:__ZN15SharedLightData22UpdateCookieTextureRefEv
hM:__ZN15PackedIntVector8TransferI14SafeBinaryReadEEvRT_
$dk:_InternalEnumerator_1_System_Collections_IEnumerator_get_Current_m1514266661_gshared
Cre:__ZNK5physx19NpArticulationJoint20getTangentialDampingEv
t6g:__Z71RuntimeInvoker_Void_t1185182177_Int32_t2950945753_Matrix4x4_t1817901843PFvvEPK10MethodInfoPvPS4_
uGk:_MD5SHA1_Initialize_m675470944
J_n:_Array_InternalArray__ICollection_Add_TisKeyframe_t4206410242_m442111799_gshared
zYo:_List_1_CheckMatch_m3263549496_gshared
p_l:_PropertyNameUtils_PropertyNameFromString_Injected_m1259736140
O3:__ZN13AudioListener8DoUpdateEv
q$d:__ZN5physx3Cct10Controller22setUpDirectionInternalERKNS_6PxVec3E
fhd:__ZN5Unity9rapidjson13GenericReaderINS0_4UTF8IcEES3_13JSONAllocatorE9ParseTrueILj1ENS0_25GenericInsituStringStreamIS3_EENS0_15GenericDocumentIS3_S4_S4_EEEEvRT0_RT1_
lYj:__Z13bankers_roundd
VLb:__ZN14SafeBinaryRead8TransferI5RectTIfEEEvRT_PKc17TransferMetaFlags
zk:_emscripten_glGenFramebuffers
vIa:__ZN17BaseObjectManager16StaticInitializeEPv
nPk:_Array_get_swapper_TisConstantShakeLayer_t1896703246_m2029372793_gshared
Gv:__ZL19MakeDetailEdgeSlabsP8Vector2fPK8Vector3fii
Z8c:__Z64AnimationLayerMixerPlayable_CUSTOM_CreateHandleInternal_InjectedRK14HPlayableGraphR9HPlayable
nhl:_Water2D_Ripple_OnDestroy_m2196932296
URq:__ZNSt3__215basic_streambufIcNS_11char_traitsIcEEE6xsputnEPKci
k1j:_OperatingSystem_GetObjectData_m1571196722
kDg:_Clipper_IntersectPoint_m1500693611
zjd:__Z18Transfer_BlittableI9JSONWriteLb0EyEvRK29SerializationCommandArgumentsR31RuntimeSerializationCommandInfo
ftb:__ZN13RenderTexture15ThreadedCleanupEv
f0i:_ShakePreset__ctor_m4017009506
Mwb:__ZN12CubemapArray23VirtualRedirectTransferER14SafeBinaryRead
E0m:_ShimEnumerator_Reset_m1479883403_gshared
vGe:__ZNK5physx2Sc9ClothCore23getNbCollisionTrianglesEv
kh:___cxa_free_exception
pfm:_Path_GetFileName_m1354558116
dZp:_Physics_Raycast_m4145022031
FCe:__ZN5physx7NpShape16setFlagsInternalENS_7PxFlagsINS_11PxShapeFlag4EnumEhEE
tqo:_U3CU3Ec__Iterator0_Dispose_m2628657601
N7q:_emscripten_glUniform3i__wrapper
THn:_ReadOnlyCollection_1_System_Collections_ICollection_CopyTo_m3683265275_gshared
F0l:_Rect_Contains_m1232228501_AdjustorThunk
hon:_Enumerator_System_Collections_IEnumerator_Reset_m264101130_gshared
R0c:__Z43RectTransform_CUSTOM_INTERNAL_set_sizeDeltaP12Il2CppObjectRK13Vector2fIcall
x7d:__ZN5physx2Gu30distanceSegmentTriangleSquaredERKNS_6shdfnd3aos5Vec3VES5_S5_S5_S5_RS3_S6_
LYj:_MissingMemberException_GetObjectData_m2957220379
Scm:_Int64_System_IConvertible_ToType_m3223988955_AdjustorThunk
hGp:_AudioClipPlayable_GetLooped_m450252450_AdjustorThunk
gvq:__ZN15dense_hashtableINSt3__24pairIK10KeyWrapperINS1_IPKcS4_EEEiEES6_24NamespaceAndNamePairHashN14dense_hash_mapIS6_iS9_NS6_14EqualsComparerI26NamespaceAndNamePairEqualsEENS0_9allocatorIS8_EEE9SelectKeyESD_SF_E6insertERKS8_
Jya:__ZN24GenerateTypeTreeTransfer18BeginArrayTransferEPKcS1_Ri17TransferMetaFlags
LCk:_Array_InternalArray__get_Item_TisPlayableBinding_t354260709_m3837494573_gshared
Io:___syscall51
vRl:_Light_get_color_Injected_m1214570263
a9o:_MatchCollection_get_FullList_m1829231879
Mo:___syscall54
_xl:_Array_GetValue_m2528415604
bam:_Guid_AppendShort_m791023083
d_l:_ScriptPlayableOutput_get_Null_m532152325
YYo:_List_1__ctor_m4212503576_gshared
O3j:_AssemblyBuilder_basic_init_m1526438565
php:_TiltInput_Update_m223364922
NQa:__ZN9ShaderLab9SubShader19CreateFromSubShaderERKS0_
PSl:_Mathf_Acos_m3996105394
gIf:_cff_builder_add_point1
pwq:__ZN6il2cpp2vm5Image21GetCachedResourceDataEPK11Il2CppImageRKNSt3__212basic_stringIcNS5_11char_traitsIcEENS5_9allocatorIcEEEE
ENd:__ZN18JointAngleLimits2D8TransferI14SafeBinaryReadEEvRT_
eWb:__Z18Transfer_BlittableI14SafeBinaryReadLb0E10ColorRGBAfEvRK29SerializationCommandArgumentsR31RuntimeSerializationCommandInfo
a6k:_Scrollbar__ctor_m1852189877
lBd:__ZN21InheritVelocityModuleD2Ev
nb:invoke_iiiiiiiiii
Bfa:__ZN11AudioSource25GetNumExtensionPropertiesEv
K0n:_Array_InternalArray__ICollection_CopyTo_TisUILineInfo_t4195266810_m104406798_gshared
AVl:_ConnectionChangeEvent__ctor_m764126802
LCl:_Char_ToLowerInvariant_m1926695830
t4c:__Z31Transform_CUSTOM_DetachChildrenP12Il2CppObject
gNl:_Debug_LogErrorFormat_m3558239521
lOb:__ZN18LoadSceneOperation19IntegrateTimeSlicedEi
b0k:_InputField_ActivateInputFieldInternal_m3360893886
t2:__ZN4FMOD7SystemI11createSoundEPKcjP22FMOD_CREATESOUNDEXINFOPPNS_5SoundE
Mxc:__ZN10FileSystem19SetCurrentDirectoryERKN4core12basic_stringIcNS0_20StringStorageDefaultIcEEEE
TLl:_Component_get_gameObject_m442555142
Jsa:__ZN16ScriptingManager24NotifyScriptCacheReleaseEi
Mwd:__ZN13dynamic_arrayIN9SubModule14SubEmitterDataELj4EE9push_backERKS1_
KVc:__Z47Register_UnityEngine_Coroutine_ReleaseCoroutinev
ioe:__ZN10ScSceneFnsIN5physx3Scb11RigidStaticEE6insertERNS0_2Sc5SceneERS2_
z4:__ZN15AudioReverbZone13SetFMODValuesEv
sqa:__ZN14SafeBinaryRead4InitERK16TypeTreeIteratorxx24TransferInstructionFlags10MemLabelId
GJa:__ZL19StaticDestroyShaderPv
ye:_glRenderbufferStorageMultisample
Dlg:_TMP_StyleSheet_GetStyleInternal_m2086473754
vKc:__ZN8Playable4PlayEv
Okl:_DefaultCertificatePolicy_CheckValidationResult_m3811448269
I4i:_HorizontalSwordfishLeft_DisableCollider_m3448321128
Xtm:_SyncHashtable_Clone_m3726939774
EU:__ZN23AnimationPlayableOutput17SetTargetAnimatorEP8Animator
Wkd:__ZN9JSONWrite8TransferI13dynamic_arrayIN4math12int3_storageELj4EEEEvRT_PKc17TransferMetaFlags
Wdl:_FloatingObject2D_GetBoxVerticesWorldPosition_m2312921916
AZb:__Z35Transfer_Blittable_SingleValueFieldI14SafeBinaryReadfEvRT_R17GeneralMonoObjectRK23StaticTransferFieldInfo
Kth:__Z67RuntimeInvoker_Void_t1185182177_Int32_t2950945753_Touch_t1921856868PFvvEPK10MethodInfoPvPS4_
fvk:_Array_Resize_TisSpriteData_t3048397587_m3443564244_gshared
ZZ:__ZN31AnimationMotionXToDeltaPlayable16ProcessAnimationEP35AnimationPlayableEvaluationConstantP32AnimationPlayableEvaluationInputP33AnimationPlayableEvaluationOutput
n1d:__ZN5physx2Gu15OBBTriangleTestC2ERKNS0_3BoxE
sKq:__ZN6il2cpp2os6Locale10InitializeEv
IAh:__Z87RuntimeInvoker_RuntimeObject_ConstantShakeLayer_t1896703246_RuntimeObject_RuntimeObjectPFvvEPK10MethodInfoPvPS4_
ESl:_Material_SetMatrix_m4094650785
Dsd:__Z25EvaluateRandomGradientHDRIL12GradientMode0ELS0_0EEN4math8floatNx4ERK14MinMaxGradientRKNS1_7_float4ES8_
PWq:__ZNSt3__211__money_getIcE13__gather_infoEbRKNS_6localeERNS_10money_base7patternERcS8_RNS_12basic_stringIcNS_11char_traitsIcEENS_9allocatorIcEEEESF_SF_SF_Ri
X2d:__ZN5physx2Gu21computeMTD_SphereMeshERNS_6PxVec3ERfRKNS0_6SphereERKNS_22PxTriangleMeshGeometryERKNS_11PxTransformE
uZn:_Array_InternalArray__ICollection_Add_TisClientCertificateType_t1004704908_m2622721177_gshared
Kno:_HashUtility_CombineHash_m4592351
EB:__Z18TransformDirection23TransformAccessReadOnlyRKN4math7_float3E
Wfe:__ZN5physx2Sc10NPhaseCore15fetchFilterPairEPv
Tpf:__ZN5physx12SubSortQuick5sort4EPjjRNS_6shdfnd5ArrayINS_11RTreeNodeNQENS2_19ReflectionAllocatorIS4_EEEERjRNS_10PxBounds3VEj
L5c:__Z37Register_UnityEngine_Screen_get_widthv
Ame:__ZN5physx6shdfnd5ArrayIPNS_2Sc8BodyCoreENS0_19ReflectionAllocatorIS4_EEE15growAndPushBackERKS4_
yep:_Uri_get_Authority_m3816772302
nag:__ZN11VideoPlayerD2Ev
HMc:__ZN22BlockMemoryCacheWriter11GetPathNameEv
AEk:_BigInteger_op_Division_m3713793389
rtp:_Touch_get_position_m3109777936
D6e:__ZN5physx16PxsBroadPhaseMBPC2ERNS_19PxcScratchAllocatorERNS_2Cm13EventProfilerERKNS_11PxSceneDescEPNS_14PxsAABBManagerE
VOj:_ParameterInfo__ctor_m3269320476
yuf:__ZN14PhysicsManager23VirtualRedirectTransferER14SafeBinaryRead
srl:_X509SubjectKeyIdentifierExtension_FromHexChars_m3244835916
Xpm:_Single_CompareTo_m2785801815
X_q:__ZNSt3__212system_errorC2ENS_10error_codeEPKc
l5o:_PKCS12_MAC_m3355614022
Hve:__ZN5physx7NpActor14onActorReleaseEPNS_7PxActorE
Sae:__ZN5physx3Cct26CharacterControllerManager19computeInteractionsEfPNS_26PxControllerFilterCallbackE
ft:stackAlloc
Ske:__ZN5physx6shdfnd8PoolBaseINS_2Cm5BlockIhLj256EEENS0_19ReflectionAllocatorIS4_EEE12allocateSlabEv
GWc:__Z44Camera_CUSTOM_INTERNAL_CALL_ScreenPointToRayP12Il2CppObjectRK8Vector3fR3Ray
Wfb:__ZN25SingleBlockMemoryFileData4LockEPPv
Qcr:_glProgramParameteri__wrapper
nqa:__ZN17PersistentManager23PostReadActivationQueueEiPK8TypeTreeb
LZc:__Z32RectOffset_Get_Custom_PropBottomP12Il2CppObject
dNl:_Debug_LogError_m2850623458
DLp:__ZL24UnresolvedVirtualCall_79P12Il2CppObjectPK10MethodInfo
lpm:_SecurityFrame_ToString_m339310712_AdjustorThunk
SDn:_ReadOnlyCollection_1_System_Collections_IList_get_Item_m3951341816_gshared
Yok:_InternalEnumerator_1_get_Current_m315150218_gshared
Pkk:_InternalEnumerator_1_get_Current_m2204111114_AdjustorThunk
TPq:_stat
cxa:__ZN9ShaderLab10SubProgram7CompileEv
g$:__ZN10AvatarMask15InitializeClassEv
D8p:_VideoPlayer_InvokeErrorReceivedCallback_Internal_m3291790132
ZJj:_PropertyBuilder_get_CanRead_m3783190070
R5k:_Raycast2DCallback_Invoke_m1500574149
HZn:_Array_InternalArray__ICollection_Add_TisKeyValuePair_2_t3699644050_m4052349323_gshared
PIk:_CipherSuiteCollection_System_Collections_IList_get_Item_m2175128671
bNd:__ZN15b2DistanceJoint23InitVelocityConstraintsERK12b2SolverData
YHg:_BoundariesAnimator_Transition_m2414360223
Jec:__ZNSt3__218__insertion_sort_3IRNS_4lessIN22BuiltinResourceManager8ResourceEEEPS3_EEvT0_S7_T_
L9e:__ZN5physx2Gu21findUniqueConvexEdgesEjPNS0_10ConvexEdgeEjPKNS0_15HullPolygonDataEPKh
JOe:__ZN5physx20NpRigidActorTemplateINS_14PxRigidDynamicEED0Ev
DWm:_Enumerator_get_CurrentKey_m2621874086_gshared
ya:invoke_iiiiiiiiiiii
fCm:_DateTime_System_IConvertible_ToType_m1242864300_AdjustorThunk
w4e:__ZN5physx43solveContactCoulombPreBlock_WriteBackStaticEPKNS_23PxcSolverConstraintDescEjRNS_16PxcSolverContextEPNS_25PxcThresholdStreamElementEjPi
Xnk:_InternalEnumerator_1_get_Current_m2446410893_AdjustorThunk
Xmb:__Z29CalculateDefaultChannelsToAdd17ShaderChannelMaskS_
Ryl:_Array_Sort_m870838517
Qke:__ZN5physx2Sc5Scene23allocateConstraintBlockEj
EXp:_CanvasRenderer_SetMaterial_m633746949
T7:__ZN10AudioMixer12RebindOutputEv
Wzj:_MethodCall_InitMethodProperty_m1333573177
Noq:__ZNK15dense_hashtableINSt3__24pairIK10KeyWrapperIP11Il2CppClassES4_EES5_N6il2cpp8metadata16SZArrayClassHashEN14dense_hash_mapIS5_S4_SA_NS5_14EqualsComparerINS9_19SZArrayClassCompareEEENS0_9allocatorIS7_EEE9SelectKeyESE_SG_E5beginEv
lLj:_TypeBuilder_get_TypeHandle_m3498565307
s1p:__ZN6il2cpp2vm17SetupFieldsLockedEP11Il2CppClassRKNS_2os12FastAutoLockE
M6i:_MaterialReferenceManager_TryGetColorGradientPresetInternal_m2094315428
Bxj:_ContextAttribute_IsContextOK_m1726359618
hdc:__ZNK9GfxDevice20IsViewportFullscreenEv
R9:__ZN11AudioSourceD0Ev
M3a:__ZN18GlslGpuProgramGLES13SwitchProgramEj
PHp:_AudioExtensionManager_GetSourceSpatializerExtensionType_m3221230995
eme:__ZN5physx2Sc5Actor15onElementDetachERNS0_7ElementE
Jgb:__ZN20ArchiveStorageReaderC2E10MemLabelId
Unj:_GraphicRaycaster__cctor_m3758203673
kTg:__Z132RuntimeInvoker_Int32_t2950945753_RuntimeObject_Int32_t2950945753_Int32_t2950945753_RuntimeObject_Int32_t2950945753_Int32_t2950945753PFvvEPK10MethodInfoPvPS4_
XCd:__ZN27TrailModulePropertyBindings13SetFloatValueER14ParticleSystemif
xUb:__ZN16MemoryFileSystem4NameEv
GEd:__Z20UpdateWholeSheet2TplIL27ParticleSystemCurveEvalMode2ELS0_0EEvfRK11MinMaxCurveS3_RK23ParticleSystemParticlesPf
esh:__Z56RuntimeInvoker_Void_t1185182177_TMP_LineInfo_t1079631636PFvvEPK10MethodInfoPvPS4_
g$f:__Z37Canvas_Set_Custom_PropOverrideSortingP12Il2CppObjecth
Tbh:__Z44RuntimeInvoker_RuntimeObject_Ray_t3785851493PFvvEPK10MethodInfoPvPS4_
D5c:__Z13SetCopyBufferRKN4core12basic_stringIcNS_20StringStorageDefaultIcEEEE
KWn:_U3CStartU3Ec__Iterator0_MoveNext_m699398193_gshared
W_d:__ZN5physx3Cct13BoxController13setHalfHeightEf
RXe:__ZN5physx3Scb13ObjectTracker5clearEv
Tul:_X509CertificateEnumerator_System_Collections_IEnumerator_get_Current_m418791713
FSf:_UNITY_FT_New_Size
ITc:__Z42ScriptingGetComponentsOfTypeFromGameObjectRK26ScriptingGetComponentsArgs
b0d:__ZL28GeomMTDCallback_PlaneCapsuleRN5physx6PxVec3ERfRKNS_10PxGeometryERKNS_11PxTransformES5_S8_
grd:__Z10RecordEmitR27ParticleSystemEmissionStateRK28ParticleSystemSubEmitterDataR24ParticleSystemUpdateDataRK23ParticleSystemParticles21ParticleSystemSubTypeijffff
htd:__Z9UpdateTplIL27ParticleSystemCurveEvalMode4EEvRK11MinMaxCurveS3_S3_R23ParticleSystemParticlesjjRKN4math8float3x3ERKNS6_7_float4E
t0m:_ShimEnumerator_get_Entry_m4089930382_gshared
l0d:__ZL23GeomMTDCallback_BoxMeshRN5physx6PxVec3ERfRKNS_10PxGeometryERKNS_11PxTransformES5_S8_
I1m:_Transform_1_Invoke_m641501323_gshared
DSl:_Material_SetVector_m2633010038
E7h:__ZL73ArgumentCache_t2187958399_CustomAttributesCacheGenerator_m_ObjectArgumentP21CustomAttributesCache
Txk:_Array_swap_TisRaycastResult_t3360306849_TisRaycastResult_t3360306849_m3400922624_gshared
DHp:_AudioListener_ReadExtensionName_m929423100
GGg:_BaseTrigger_TestTrigger_m3456912911
TBd:__ZN35ClampVelocityModulePropertyBindings13SetFloatValueER14ParticleSystemif
CEe:__ZNK5physx7NpCloth22getNbCollisionCapsulesEv
Mvb:__ZNSt3__27__sort4IRPFbRKNS_4pairIN9ShaderLab16FastPropertyNameEN18UnityPropertySheet11UnityTexEnvEEES8_EPS6_EEjT0_SD_SD_SD_T_
eHf:_cf2_hintmap_build
Iel:_FloatingObject3D_SetPreviousPosition_m4110792432
Tsp:_Texture_get_width_m888163864
Yqq:__ZN6il2cpp6icalls8mscorlib6System10Reflection8Assembly18GetModulesInternalEP24Il2CppReflectionAssembly
nQf:_Line_Up
Xdn:_Dictionary_2_GetEnumerator_m1728442251_gshared
q$f:__Z44Canvas_CUSTOM_GetETC1SupportedCanvasMaterialv
GHj:_MethodBuilder__ctor_m3664913099
aMp:__ZL25UnresolvedVirtualCall_104P12Il2CppObjectdPK10MethodInfo
fg:_emscripten_glBufferSubData
z$c:__Z51AnimationCurve_CUSTOM_INTERNAL_CALL_GetKey_InternalP12Il2CppObjectiR11KeyframeTplIfE
pUk:_PlayableHandle_IsPlayableOfType_TisAudioMixerPlayable_t3520548497_m2438815699_AdjustorThunk
vpe:__ZN5physx6shdfnd5ArrayIPvNS0_15InlineAllocatorILj256ENS0_19ReflectionAllocatorINS_7NpShapeEEEEEE15growAndPushBackERKS2_
S7i:_TextMeshPro_set_sortingLayerID_m2864695530
jMl:_ContextMenu__ctor_m2004453717
$$a:__ZN6prcoreL12RemapGenericI15TexFormatRGB88817TexFormatARGB8888EEvPKNS_9InnerInfoE
zv:__Z17CalculateGlobalRS23TransformAccessReadOnly
Fad:__Z38HingeJoint2D_CUSTOM_get_motor_InjectedP12Il2CppObjectR12JointMotor2D
$Jq:__ZNSt3__210__list_impIPN6il2cpp5utils10MemoryPool6RegionENS_9allocatorIS5_EEE5clearEv
Tin:_LinkedList_1_OnDeserialization_m3201462664_gshared
Wmk:_InternalEnumerator_1_get_Current_m1523142935_gshared
$Ba:__ZN33InstancedMeshIntermediateRenderer13StaticDestroyEPv
gqe:__ZNK5physx14NpArticulation22computeImpulseResponseEPNS_18PxArticulationLinkERNS_6PxVec3ES4_RKNS_24PxArticulationDriveCacheERKS3_S9_
whe:__ZN5physx2Sc19ContactReportBuffer23reallocateNotThreadSafeEjRjjj
ake:__ZN5physx2Sc5Actor19registerInteractionEPNS0_11InteractionE
gZb:__ZN14SafeBinaryRead21TransferSTLStyleArrayI13dynamic_arrayI9BoundsIntLj4EEEEvRT_17TransferMetaFlags
PQb:__ZN22MemoryCacherReadBlocks14LockCacheBlockEjPPhS1_
mio:_AnimationOutputWeightProcessor_Evaluate_m95328132
Idq:__ZN6il2cpp2vm14TypeNameParser17ParseAssemblyNameEv
xWi:_U3CAnimateU3Ec__Iterator0_Reset_m3429340189
sEb:__ZNK9GfxDevice26GetSinglePassStereoEyeMaskEv
nQm:_TimeSpan_FromHours_m1109641064
ukg:_TMP_Settings_get_defaultFontSize_m2064734667
tNl:_DebugLogHandler_Internal_Log_m4175774469
rki:__ZL54EventSystem_t1003666588_CustomAttributesCacheGeneratorP21CustomAttributesCache
YDq:__ZN4utf88internal15increase_safelyIPKcEENS0_9utf_errorERT_S5_
t1p:__ZN6il2cpp2vmL21SetupPropertiesLockedEP11Il2CppClassRKNS_2os12FastAutoLockE
URf:__ZN20TextRenderingPrivate8FontImpl16CacheFontForTextEPtiifjPK13dynamic_arrayINS_16TextFormatChangeELj4EE
WCl:_CharEnumerator_get_Current_m525608209
kCf:__ZN13PhysicsModule19CreateNxHeightFieldEPv
uso:_TrackAsset_GetMarkerContainerHash_m2294069113
Bin:_Enumerator_Dispose_m2375640141_AdjustorThunk
Kao:_Dictionary_2_ToTKey_m1546297252_gshared
jeg:__Z21ArrayElementTypeCheckP11Il2CppArrayPv
Jbr:_emscripten_glTexSubImage2D__wrapper
dWd:__ZN17PhysicsMaterial2D16CheckConsistencyEv
MGh:__ZL69DebuggerBrowsableAttribute_t1026244177_CustomAttributesCacheGeneratorP21CustomAttributesCache
q_q:__ZNSt3__212basic_stringIcNS_11char_traitsIcEENS_9allocatorIcEEE6appendEjc
dZd:__ZN16PhysicsManager2D20WorldContactFilter2D13ShouldCollideEP9b2FixtureS2_
Bea:__ZN13ProduceHelperI15AudioMixerGroupLb0EE7ProduceE10MemLabelId18ObjectCreationMode
w0c:__Z27Random_Get_Custom_PropValuev
uXb:__Z14resize_trimmedINSt3__26vectorI8MonoPPtr13stl_allocatorIS2_L18MemLabelIdentifier1ELi16EEEEEvRT_j
Pg:_TTF_RenderText_Solid
xrn:_List_1__ctor_m3947764094_gshared
U4m:_Enumerator_get_Current_m1781571415_gshared
Acl:_ClipperOffset_DoMiter_m2778647365
gll:_HttpRequestCreator_Create_m400548686
r4f:__ZN11UnityEngine7Connect16PersistentValuesC2Ev
ZKn:_ReadOnlyCollection_1_System_Collections_IList_Insert_m134149130_gshared
LSk:_Array_InternalArray__ICollection_Remove_TisTMP_WordInfo_t3331066303_m2995748367_gshared
uyk:_Dictionary_2_Do_CopyTo_TisDictionaryEntry_t3123975638_TisDictionaryEntry_t3123975638_m64960356_gshared
djd:__Z18Transfer_BlittableI9JSONWriteLb0E5RectTIiEEvRK29SerializationCommandArgumentsR31RuntimeSerializationCommandInfo
Bcg:__Z15CastclassSealedP12Il2CppObjectP11Il2CppClass
ZRk:_Array_InternalArray__ICollection_Remove_TisDateTime_t3738529785_m2250893026_gshared
c4a:__Z15IsIEEE754Format14GraphicsFormat
a$b:__Z19TransferField_ArrayI17RemapPPtrTransfer27Converter_UnityEngineObjectEvRK23StaticTransferFieldInfoR31RuntimeSerializationCommandInfoRT0_
Fb:invoke_iifiii
IGl:_KeyNotFoundException__ctor_m541499307
Jnc:__ZN19ShaderPropertySheet24SetTextureFromTextureRefERK23FastTexturePropertyNamePK10TextureRef
RUk:_SetPropertyUtility_SetStruct_TisSpriteState_t1362986479_m665096788_gshared
GTg:__Z61RuntimeInvoker_Single_t1397266774_RuntimeObject_RuntimeObjectPFvvEPK10MethodInfoPvPS4_
Ekb:__Z21DestroyShadowMapCacheP14ShadowMapCache
dA:__ZNK11DynamicMesh13MergePolygonsER13dynamic_arrayI8Vector3fLj4EERKS2_S5_
dSk:_Array_InternalArray__ICollection_Remove_TisIntPtr_t_m3807208150_gshared
wuf:__ZN14PhysicsManager23VirtualRedirectTransferER17RemapPPtrTransfer
nhk:_InternalEnumerator_1_get_Current_m2316281569_AdjustorThunk
oxm:_DateTime__ctor_m1095105629
LTa:__ZN13GfxDeviceGLES15UploadTexture2DE9TextureID16TextureDimensionPKhiii14GraphicsFormati18TextureUploadFlags16TextureUsageMode
bT:__ZN7mecanim9animation25CreateControllerWorkspaceEPKNS0_18ControllerConstantERNS_6memory9AllocatorE
zVf:__Z37Register_UnityEngine_GUIText_set_textv
Quo:_Enumerator_get_Current_m42805805_AdjustorThunk
r6:__ZN4FMOD6System9createDSPEP20FMOD_DSP_DESCRIPTIONPPNS_3DSPE
pRh:__ZL87Thread_t2300836069_CustomAttributesCacheGenerator_Thread_GetCompressedStack_m2923422412P21CustomAttributesCache
YNk:_SslClientStream_get_ClientCertificates_m998716871
bU:__ZN7mecanim9animation26DestroyControllerWorkspaceEPNS0_19ControllerWorkspaceERNS_6memory9AllocatorE
dWl:_Object_DestroyObject_m3543774005
r2:__ZN4FMOD8ChannelI11EndCallbackEv
EVm:_UnitySerializationHolder_GetDBNullData_m714211970
Ded:__ZN8GUIStyle14SetDefaultFontEPN13TextRendering4FontE
Oxd:__ZN11ForceModule8TransferI24GenerateTypeTreeTransferEEvRT_
Opl:_X509Chain_GetAuthorityKeyIdentifier_m2237883181
uAb:__ZN15QualitySettings23VirtualRedirectTransferER24GenerateTypeTreeTransfer
jXm:_Enumerator_get_CurrentValue_m3786270648_AdjustorThunk
ZFj:_ObjectReader_ReadValue_m3145979203
rko:_U3CU3Ec__Iterator0_MoveNext_m3454565195
xaf:__ZN5physx2Gu32PCMConvexVsMeshContactGeneration35generateTriangleFullContactManifoldERNS0_9TriangleVEjPKjhRKNS0_13PolygonalDataEPNS0_16SupportLocalImplIS2_EEPNS0_12SupportLocalEPNS0_21MeshPersistentContactERjRKNS_6shdfnd3aos6FloatVERNSI_5Vec3VE
Jyj:_Lease_set_RenewOnCallTime_m1737118470
gel:_FloatingObject2D_HasRigidbody_m2469555545
Wfl:_OldReflectionMethod_CameraSpacePlane_m3384964608
opi:__ZL68Scrollbar_t1494447233_CustomAttributesCacheGenerator_m_NumberOfStepsP21CustomAttributesCache
_E:__ZN14SafeBinaryRead21TransferSTLStyleArrayI22OffsetPtrArrayTransferI9OffsetPtrIN7mecanim12statemachine17ConditionConstantEEEEEvRT_17TransferMetaFlags
Mem:_BinaryWriter_Dispose_m1020700223
Cbp:_Regex_Match_m2255756165
ckf:__ZNK5physx13NpClothFabric9getPhasesEPNS_18PxClothFabricPhaseEj
n0e:__ZNK16OBBAABBTest_SIMDclERKN5physx2Sq9BucketBoxE
D3q:dynCall_viffffii
r8:__ZN5audio5mixer16GetSnapshotIndexERNS0_18AudioMixerConstantEPKc
buq:__ZN6il2cpp6icalls8mscorlib6System10Reflection10MonoMethod29get_IsGenericMethodDefinitionEP22Il2CppReflectionMethod
hqq:__ZN6il2cpp2vm6Thread21AllocThreadStaticDataEi
CBj:_MonoMethodMessage_get_CallType_m3702481004
HMl:_CullingGroup_Dispose_m782801025
R2j:_Default_SelectMethod_m469311730
IQl:_Input_get_mousePosition_m1616496925
MCq:__ZN30dense_hashtable_const_iteratorINSt3__24pairIK10KeyWrapperIPK19Il2CppGenericMethodEP10MethodInfoEES6_N6il2cpp8metadata23Il2CppGenericMethodHashEN14dense_hash_mapIS6_S9_SD_NS6_14EqualsComparerINSC_26Il2CppGenericMethodCompareEEENS0_9allocatorISA_EEE9SelectKeyESH_SJ_EppEv
mUm:_UInt32_ToString_m2066897296_AdjustorThunk
sea:__Z13RegisterClassI13AudioListenerEvv
oon:_Enumerator_VerifyState_m1641904114_AdjustorThunk
Mil:_Water2D_Simulation_GetTopLeftVertexWorldPosition_m2649648606
lRb:__ZN24GenerateTypeTreeTransfer19TransferSTLStyleMapINSt3__23mapI4PPtrI6ShaderEN4core12basic_stringIcNS6_20StringStorageDefaultIcEEEENS1_4lessIS5_EENS1_9allocatorINS1_4pairIKS5_SA_EEEEEEEEvRT_17TransferMetaFlags
r0:__ZN23AnimationOffsetPlayable11GetPositionEv
ZGl:_Enumerator_Reset_m4274366540
Cid:__Z18Transfer_BlittableI9JSONWriteLb0E8Vector3fEvRK29SerializationCommandArgumentsR31RuntimeSerializationCommandInfo
Oh:_emscripten_glUniform4i
rHd:__ZNSt3__227__insertion_sort_incompleteIRN10vector_mapIi22ParticleModulePropertyNS_4lessIiEENS_9allocatorINS_4pairIiS2_EEEEE13value_compareEPS7_EEbT0_SD_T_
bKf:_otv_FeatureList_validate
Eod:__ZN22ParticleSystemRenderer5ResetEv
p9d:__ZN16RayRTreeCallbackILi0ELb1EED2Ev
_g:_emscripten_glUniform4f
tcb:__ZN6Object22CheckInstanceIDsLoadedEPii
$gn:_KeyValuePair_2_ToString_m4221841369_gshared
Il:___unlock
HSl:_Material_GetFloat_m2836278142
Cvf:__ZN14SphereCollider10SmartResetEv
jJf:_otv_validate
gwc:__ZN13sorted_vectorINSt3__24pairIN4core12basic_stringIcNS2_20StringStorageDefaultIcEEEES6_EEN10vector_mapIS6_S6_27compare_tstring_insensitiveIS6_E13stl_allocatorIS7_L18MemLabelIdentifier38ELi16EEE13value_compareESD_E9erase_oneIS6_EEjRKT_
V2k:_U3CDelayedSetDirtyU3Ec__Iterator0_Reset_m160466733
Tmm:_X509Certificate_Equals_m3784196370
k3c:__Z46RenderTexture_CUSTOM_Internal_SetSRGBReadWriteP12Il2CppObjecth
ixn:_SimpleCollator_QuickIndexOf_m2519071357
Mle:__ZN5physx2Sq17SceneQueryManager8addShapeERKNS_7NpShapeERKNS_12PxRigidActorEbPNS_9PxBounds3E
Caa:__ZN20SoundChannelInstance19setReverbPropertiesEP29FMOD_REVERB_CHANNELPROPERTIES
Ymn:_Enumerator_MoveNext_m1446151600_gshared
Fmm:_X509Certificate_Equals_m861530042
Gkm:_SHA1Internal_ProcessFinalBlock_m1403775421
uuo:_Queue_1_System_Collections_ICollection_CopyTo_m3452613063_gshared
z6n:_Dictionary_2_pick_value_m3046842943_gshared
RDg:_Clipper_PointCount_m1991072309
Y4c:__Z40Register_UnityEngine_Transform_IsChildOfv
tae:__ZN5physx3Cct17CapsuleController15setClimbingModeENS_21PxCapsuleClimbingMode4EnumE
yZ:__ZN10AvatarMask23VirtualRedirectTransferER14SafeBinaryRead
Vqk:_InternalEnumerator_1_get_Current_m2356858238_AdjustorThunk
qYc:__Z45Register_UnityEngine_Display_GetSystemExtImplv
wcn:_Dictionary_2_System_Collections_IDictionary_get_Item_m3971229366_gshared
_Q:__ZN7mecanim14ValueArrayLoopILb1EEEvRKNS_10ValueArrayES3_RKNS_14ValueArrayMaskERS1_f
XBn:_RSAManaged_ImportParameters_m1844641996
fYl:_PlayableHandle_GetInput_m2797573993_AdjustorThunk
_Ye:__ZN5physx6shdfnd5ArrayINS_3Scb13MaterialEventENS0_19ReflectionAllocatorIS3_EEE6resizeEjRKS3_
z$o:_List_1_CheckMatch_m2804856007_gshared
ZYm:_Enumerator_System_Collections_IDictionaryEnumerator_get_Value_m3325938730_AdjustorThunk
QQ:__ZN7mecanim9animation23TransformValuesFromClipEiiiRKNS_10ValueArrayERKNS0_10ClipOutputERKNS0_12ClipBindingsERS1_RNS_14ValueArrayMaskEb
XEd:__Z19UpdateSingleRow2TplIL27ParticleSystemCurveEvalMode4ELS0_4EEvfRK11MinMaxCurveS3_RK23ParticleSystemParticlesPfbiii
k8e:__ZNK5physx14SingleAABBTask25updateNumFastMovingShapesEv
Hyk:_Dictionary_2_Do_CopyTo_TisChar_t3634460470_TisRuntimeObject_m2750283517_gshared
AZn:_Array_InternalArray__ICollection_Add_TisKeyValuePair_2_t1783538065_m1419650774_gshared
HVf:__Z45Register_UnityEngine_Font_Internal_CreateFontv
fql:_X509Certificate2Enumerator_System_Collections_IEnumerator_Reset_m388172138
S9l:_Guid_Equals_m1866984197
Jcc:__Z11StringToKeyRKN4core12basic_stringIcNS_20StringStorageDefaultIcEEEE
lpf:__ZN5physx17ConvexMeshBuilder16computeGaussMapsEv
w1j:_PlatformNotSupportedException__ctor_m1787918017
tGa:__ZN13RuntimeStaticI15DirectorManagerLb0EE16StaticInitializeEPv
Sdp:_Uri_HexEscape_m1589417657
vFn:_ReadOnlyCollection_1_System_Collections_ICollection_CopyTo_m2643246984_gshared
HKb:__ZN11TimeManager6UpdateEv
_dc:__ZN6Shader18LoadDefaultShadersEv
TYq:__ZNKSt3__25ctypeIwE8do_widenEc
jqe:__ZNK5physx2Sc16ArticulationCore22computeImpulseResponseERNS0_8BodyCoreERNS_6PxVec3ES5_RKNS_9PxcFsDataERKS4_SA_
ADk:_BigInteger__ctor_m2601366464
Nbf:__ZN5physx21PxsBodyTransformVaultC2Ev
V5l:_DateTimeFormatInfo_ReadOnly_m890935083
I9e:__ZL6IsInYZffPPK10VertexInfo
fqf:__ZN5physx19TriangleMeshBuilderD0Ev
_Pq:_fflush
swa:__ZN17LightProbeContext4InitERK16LightmapSettingsRK14RenderSettings
O3l:_SceneManager_Internal_ActiveSceneChanged_m3676176255
Ftg:_MusicPlayer_Start_m163508746
cHm:_Double_System_IConvertible_ToInt16_m3591921965
DDb:__ZN9Texture3DD2Ev
aIo:_Collection_1_set_Item_m4280581817_gshared
v4o:_TlsStream_Seek_m895611617
Ewm:_Convert_ToChar_m2796006345
v2n:_Array_InternalArray__Insert_TisContentType_t1787303396_m3566390691_gshared
ACe:__ZN5physx2CmlsERNS0_12RenderOutputERKNS0_10DebugArrowE
WE:__ZN14SafeBinaryRead21TransferSTLStyleArrayI22OffsetPtrArrayTransferI9OffsetPtrIN7mecanim12statemachine21SelectorStateConstantEEEEEvRT_17TransferMetaFlags
Qsd:__Z18MagnitudeUpdateTplIL27ParticleSystemCurveEvalMode2EEvRK11MinMaxCurveR23ParticleSystemParticlesjjRKN4math7_float4E
kEl:_ArrayListWrapper_GetEnumerator_m2336495952
Rrc:__Z34ProcessIndexListIsNodeVisibleStep2RK22SceneCullingParametersPK9SceneNodePK4AABBR9IndexList
_ac:__ZN10MonoScriptD2Ev
_7a:__ZN19ConstantBuffersGLES8UpdateCBE5CbKeyPKvj
eN:__ZN18StreamedBinaryReadILb0EE8TransferINSt3__26vectorIN13AnimationClip12Vector3CurveE13stl_allocatorIS5_L18MemLabelIdentifier26ELi16EEEEEEvRT_PKc17TransferMetaFlags
FTl:_Matrix4x4_get_Item_m567451091
m_c:__Z39Input_CUSTOM_INTERNAL_get_mousePositionP8Vector3f
cqj:_SerializationCallbacks_GetMethodsByAttribute_m2095490433
QLf:_tt_cmap13_char_next
wki:__ZL117EventSystem_t1003666588_CustomAttributesCacheGenerator_EventSystem_t1003666588____lastSelectedGameObject_PropertyInfoP21CustomAttributesCache
KQa:__ZN9ShaderLab4Pass16SetupPassOptionsEv
uip:_WaterHoseParticles__ctor_m3456900009
hj:_JS_Sound_ReleaseInstance
f1n:_Array_InternalArray__Insert_TisKeyValuePair_2_t71524366_m303774222_gshared
ISa:__ZN13GfxDeviceGLES19DrawBuffersIndirectEP9GfxBufferPK18VertexStreamSourceiP17VertexDeclaration17ShaderChannelMask16GfxPrimitiveType15ComputeBufferIDj
u9l:_Guid_CheckArray_m921056615
AXg:__Z33RuntimeInvoker_Single_t1397266774PFvvEPK10MethodInfoPvPS4_
xUj:_ConfigHandler_ReadLifetine_m208994800
m$g:__Z96RuntimeInvoker_IntPtr_t_SByte_t1669577662_SByte_t1669577662_RuntimeObject_BooleanU26_t4125257963PFvvEPK10MethodInfoPvPS4_
Lif:__ZN5physx16PxsCCDBlockArrayINS_13PxsCCDOverlapELi128EE8pushBackEv
lqq:__ZN6il2cpp6icalls8mscorlib6System7Runtime15InteropServices7Marshal19copy_from_unmanagedEiiP11Il2CppArrayi
ipd:__ZL25CalculateCurveRangesValueRKN4math7_float2ERK17AnimationCurveTplIfE
bXd:__Z20GetRigidbodyChildrenRK9Transform13dynamic_arrayIP11Rigidbody2DLj4EE
d1c:__Z21Resources_CUSTOM_LoadP12Il2CppStringP12Il2CppObject
Yo:FUNCTION_TABLE_diddi
Fqq:__ZN6il2cpp6icalls8mscorlib6System5Array8FastCopyEP11Il2CppArrayiS5_ii
y1c:__Z26Material_CUSTOM_SetIntImplP12Il2CppObjectii
dgh:__Z91RuntimeInvoker_Char_t3634460470_StringU26_t181565287_Int32U26_t1369213839_Int16_t2552820387PFvvEPK10MethodInfoPvPS4_
YZc:__Z42Register_UnityEngine_RectOffset_get_bottomv
jkp:_TimedObjectActivator__ctor_m928140018
r$e:__ZN5physx14PxsAABBManagerD2Ev
hZb:__ZN9BoundsInt8TransferI14SafeBinaryReadEEvRT_
EYg:__Z155RuntimeInvoker_Void_t1185182177_RuntimeObject_RuntimeObject_Int32_t2950945753_RuntimeObject_RuntimeObject_Int32_t2950945753_Int32_t2950945753_RuntimeObjectPFvvEPK10MethodInfoPvPS4_
tNc:__Z18QuaternionToMatrixRK11QuaternionfR10Matrix4x4f
D8q:_emscripten_glUniform1f__wrapper
c1q:dynCall_di
eOl:_BaseInvokableCall_AllowInvoke_m878393606
MDm:_DateTimeOffset_get_DateTime_m620985777_AdjustorThunk
b$e:__ZN5physx16PxsIslandManagerD2Ev
F5g:__Z77RuntimeInvoker_Quaternion_t2301928331_Vector3_t3722313464_Vector3_t3722313464PFvvEPK10MethodInfoPvPS4_
jid:__Z28RegisterModule_JSONSerializev
E4e:__ZN5physx21solveFriction_BStaticERKNS_23PxcSolverConstraintDescERNS_16PxcSolverContextE
FRb:__ZN2UI13RectTransform8TransferI14SafeBinaryReadEEvRT_
vjd:__Z35Transfer_Blittable_FixedBufferFieldI9JSONWriteaEvRK29SerializationCommandArgumentsR31RuntimeSerializationCommandInfo
_Bd:__ZN34ColorBySpeedModulePropertyBindings13GetFloatValueERK14ParticleSystemi
hJl:_Behaviour_get_enabled_m753527255
KPc:__Z20IsHumanControllingUsv
JCk:_Array_InternalArray__get_Item_TisParticleCollisionEvent_t4055032941_m3588807245_gshared
z6m:_Enumerator_MoveNext_m181298207_gshared
Bvf:__ZN14SphereCollider5ResetEv
iL:__ZN7mecanim5human9HumanGoal8TransferI14SafeBinaryReadEEvRT_
C1q:dynCall_viiiiiiiiiiiiiiiiiiiiiiiiiiiiiiiiii
nHh:__ZL51TextInfo_t3810425522_CustomAttributesCacheGeneratorP21CustomAttributesCache
ldb:__ZN10systeminfo21GetPersistentDataPathEv
vSa:__ZN13GfxDeviceGLES17DestroyGpuProgramEPK10GpuProgram
X3n:_Array_InternalArray__set_Item_TisRaycastResult_t3360306849_m730888808_gshared
DVb:__Z44InitializeTransferFunctionScriptingTraitsForI18StreamedBinaryReadILb0EEEvR31TransferFunctionScriptingTraits
a6m:_Enumerator_System_Collections_IEnumerator_Reset_m53411943_gshared
Vnc:__ZNSt3__218__insertion_sort_3IR23CompareReflectionProbesP31RuntimeReflectionProbeBlendInfoEEvT0_S5_T_
k$b:__ZN12NativeBufferI27Converter_SimpleNativeClassI8GradientEE15SetupForWritingER9ArrayInfo
sdl:_PolyTree__ctor_m3532120934
tIf:_cff_index_get_sid_string
Dtg:_U3CMove1U3Ec__Iterator0_Reset_m4214528129
tsi:__ZL48Shadow_t773074319_CustomAttributesCacheGeneratorP21CustomAttributesCache
XAa:__ZN12_GLOBAL__N_113StaticDestroyEPv
F3p:__ZN30dense_hashtable_const_iteratorINSt3__24pairIK10KeyWrapperIPKcEP11Il2CppClassEES5_N6il2cpp5utils11StringUtils12StringHasherIS4_EEN14dense_hash_mapIS5_S8_SE_NS5_14EqualsComparerINSB_13VmStringUtils21CaseSensitiveComparerEEENS0_9allocatorIS9_EEE9SelectKeyESJ_SL_EppEv
Bdd:__ZNK8GUIStyle4DrawER8GUIStateRK5RectTIfER10GUIContentbbbb
ycr:_glTexParameteriv__wrapper
rvl:_SmallXmlParser_Read_m3485223434
xr:FUNCTION_TABLE_viffffffii
_Fi:__ZL62ProCamera2DRepeater_t4221031342_CustomAttributesCacheGeneratorP21CustomAttributesCache
Rnp:_GUISkin_MakeCurrent_m3239192349
bZc:__Z32Gizmos_CUSTOM_INTERNAL_get_colorP10ColorRGBAf
bnd:__ZN8JSONRead21TransferSTLStyleArrayINSt3__26vectorI8Gradient13stl_allocatorIS3_L18MemLabelIdentifier1ELi16EEEEEEvRT_17TransferMetaFlags
cLb:__ZNSt3__218__insertion_sort_3IRNS_6__lessINS_4pairIPKN5Unity4TypeE7Hash128EES8_EEPS8_EEvT0_SC_T_
KBk:_Array_InternalArray__get_Item_TisKeyValuePair_2_t570708821_m1403768009_gshared
f$k:_InputField_set_onValueChanged_m3658917578
PFd:__Z9UpdateTplIL22MinMaxGradientEvalMode0EL12GradientMode0ELS1_1EEvRK23ParticleSystemParticlesP11ColorRGBA32RK14MinMaxGradientRK23OptimizedMinMaxGradientRK8Vector2f
U0b:__ZN10RectOffset8TransferI24GenerateTypeTreeTransferEEvRT_
eem:_BinaryReader__ctor_m2266204403
ERc:__Z18GetResourceManagerv
mhd:__ZN8JSONReadD2Ev
QXd:__ZNK10Collider2D15GetAttachedBodyEv
dkn:_Enumerator_VerifyState_m3047769867_AdjustorThunk
e0b:__Z18Transfer_BlittableI24GenerateTypeTreeTransferLb1E5RectTIiEEvRK29SerializationCommandArgumentsR31RuntimeSerializationCommandInfo
mA:__ZNSt3__27__sort3IR17DetailNodeYSorterP16DetailMeshBVNodeEEjT0_S5_S5_T_
sXf:__ZN2UI13CanvasManager19RemoveDirtyRendererEPNS_6CanvasEPNS_14CanvasRendererE
RBe:__ZN5physx7NpShape18setQueryFilterDataERKNS_12PxFilterDataE
Jz:__ZNK11DynamicMesh20BuildEdgeConnectionsER13dynamic_arrayINS_4EdgeELj2EE
mOq:_isspace
vEj:_BinaryFormatter__ctor_m2620705134
b2o:_List_1_System_Collections_IList_Add_m1462444014_gshared
BAd:__ZN14MinMaxGradient5ResetE26ParticleSystemGradientMode
swe:__ZN5physx2Sc8ShapeSim18onRestOffsetChangeEv
ydf:__ZN5physx20PxcNpCacheStreamPair5resetEv
Zla:__ZN11UnityEngine15CloudWebService17WebFileDownloaderINS0_20WebRequestRestClientENS0_23WebRequestRestHeaderMapEED2Ev
rL:__ZNSt3__26vectorIN13AnimationClip9PPtrCurveE13stl_allocatorIS2_L18MemLabelIdentifier26ELi16EEE7reserveEj
pUd:__ZNSt3__26vectorINS0_IN10ClipperLib8IntPointENS_9allocatorIS2_EEEENS3_IS5_EEE7reserveEj
Vod:__ZN14ParticleSystem17RemoveFromManagerEv
Kkd:__ZN9JSONWrite8TransferI13dynamic_arrayI9BoundsIntLj4EEEEvRT_PKc17TransferMetaFlags
jd:invoke_vd
PSq:__ZNSt3__29__num_getIcE17__stage2_int_loopEciPcRS2_RjcRKNS_12basic_stringIcNS_11char_traitsIcEENS_9allocatorIcEEEEPjRSD_S2_
pc:invoke_vf
iYq:__ZNSt3__25ctypeIcED2Ev
Y8o:_Regex_get_RightToLeft_m2317867572
bwa:__ZNK10GameObject8IsActiveEv
PXc:__Z34Component_Get_Custom_PropTransformP12Il2CppObject
nAd:__ZN21InheritVelocityModule5ResetEv
Wih:__Z80RuntimeInvoker_RuntimeObject_RuntimeObject_Vector3_t3722313464_Int32_t2950945753PFvvEPK10MethodInfoPvPS4_
B3a:__ZN18GfxFramebufferGLES23SetupDefaultFramebufferEPP17RenderSurfaceBaseS2_N2gl6HandleILNS3_10ObjectTypeE9EEE
wjl:_ListDictionary_FindEntry_m2629402370
d0p:_MainModule_get_startSizeMultiplier_m1188945012
Nle:__ZN5physx2Sq16computeWorldAABBERKNS_3Scb5ShapeERKNS1_5ActorE
gCj:_TrackingServices_NotifyDisconnectedObject_m1755566214
tkj:_DefaultControls_CreateDropdown_m3286664171
yBb:__ZN13ScreenManager18RequestOrientationE17ScreenOrientation
R1p:__ZN6il2cpp2vm5Class12SetupMethodsEP11Il2CppClass
U7e:__ZN5physx14PxsAABBManager31updateAggregateBPOverlapRecordsEv
QSc:__Z39DeleteLastPathNameComponentWithAnySlashRKN4core12basic_stringIcNS_20StringStorageDefaultIcEEEE
Ddd:__ZN10GUIManager14InitGUIManagerEv
bTm:_UInt16_Equals_m642257745
Axl:_Array_System_Collections_IList_IndexOf_m3301661616
n2j:_AssemblyFileVersionAttribute__ctor_m3720707642
syf:__ZN5physx7profile10DataBufferINS_6shdfnd6MutexTINS0_26WrapperReflectionAllocatorIhEEEENS0_14ScopedLockImplIS6_EEED2Ev
ALq:__ZN6il2cpp5utils9Exception26FormatInvalidCastExceptionEPK11Il2CppClassS4_
jgd:__Z37Register_UnityEngine_GUIStyle_Cleanupv
pb:invoke_iiifii
Z3c:__Z39Register_UnityEngine_Time_set_timeScalev
$bd:__ZN16PlayableDirector8TransferI17RemapPPtrTransferEEvRT_
$mj:_Graphic_OnDisable_m1097930217
LGg:_BaseTrigger_GetDistanceToCenterPercentage_m2194757021
ojg:_TMP_MaterialManager_GetFallbackMaterial_m2804389913
Mud:__Z15GetPositionMeshIL20MeshDistributionMode0ELb0E11ColorRGBA32EvRN4math8floatNx3ES4_RNS2_4pix4ERK13dynamic_arrayIS1_Lj4EERK14StrideIteratorI8Vector3fESF_RKSB_IT1_ERKS7_I16MeshTriangleDataLj4EERKS7_I11MeshAreaLUTLj4EERKfRKiST_R5RandNP12SkinMeshInfo
Qcg:_DropdownEvent__ctor_m3864820618
Zk:_emscripten_glFramebufferRenderbuffer
Eqc:__ZN19CullingGroupManager17CullAndSendEventsERK22SceneCullingParametersiRK13CullingOutputRK8JobFence
Ty:__ZNSt3__213__vector_baseINS_4pairIiN14NavMeshManager15SurfaceInstanceEEE13stl_allocatorIS4_L18MemLabelIdentifier76ELi16EEED2Ev
Whb:__ZN9Transform30EnsureTransformHierarchyExistsEv
Knp:_GUI_get_scrollTroughSide_m947384426
SQm:_Type_FilterName_impl_m2651733559
HYe:__ZN5physx2Sc14ConstraintCore15getPxConstraintEv
drf:__ZNK8Collider12GetRigidbodyEv
Br:FUNCTION_TABLE_viiiiiiii
qVc:__Z46Register_UnityEngine_Application_get_isPlayingv
mzo:_Collection_1__ctor_m3801341790_gshared
Fi:___cxa_find_matching_catch_4
Wvc:__ZNSt3__26vectorINS_4pairIN4core12basic_stringIcNS2_20StringStorageDefaultIcEEEEPK17MessageIdentifierEENS_9allocatorISA_EEE12__move_rangeEPSA_SE_SE_
Pod:__ZThn32_N22ParticleSystemRendererD1Ev
Vyp:_Water2D_Tool_GetFrontMeshUVWithTiling_m1951552310
dkc:__ZN14qsort_internal17MedianOfThreeSwapIP17RODataReplacement19ROSorterReplacementEEvT_S4_S4_T0_
vAd:__ZN15CollisionModule5ResetEv
j1l:_RectOffset_ToString_m2007443979
H0p:__ZNK15dense_hashtableINSt3__24pairIK10KeyWrapperIPK22Il2CppGenericParameterEP11Il2CppClassEES6_N6il2cpp5utils11PointerHashIS4_EEN14dense_hash_mapIS6_S9_SE_NS6_14EqualsComparerINS0_8equal_toIS5_EEEENS0_9allocatorISA_EEE9SelectKeyESJ_SL_E3endEv
LSc:__ZN17TransformInternal36OnScaleChangedCalculateTransformTypeE15TransformAccess
Zdb:__ZN17ArchiveFileSystem10ToAbsoluteEPKc
Mgi:__ZL50Joint2D_t4180440564_CustomAttributesCacheGeneratorP21CustomAttributesCache
R$q:__ZNSt8bad_castC2Ev
gqp:_GUILayoutGroup_CalcHeight_m1669391299
V1f:__ZN19UnityConnectService15GetPlayerUserIdEv
xAj:_LogicalCallContext_GetObjectData_m841612502
iZk:_Array_InternalArray__IndexOf_TisSByte_t1669577662_m4156538463_gshared
gH:__ZN7mecanim6CRCKeyENS_7eStringE
LNc:__ZL12SetPrefValueRKN4core12basic_stringIcNS_20StringStorageDefaultIcEEEERK9PrefValue
fEb:__ZN19ShaderPropertySheet20ReservePropertyCountEj
bop:_GUI_Button_m1546789121
bpq:__ZNSt3__26vectorIN6il2cpp8metadata18GenericArrayMethodENS_9allocatorIS3_EEE7reserveEj
oPa:__ZN15NameToObjectMapI6ShaderNSt3__23mapI4PPtrIS0_EN4core12basic_stringIcNS5_20StringStorageDefaultIcEEEENS1_4lessIS4_EENS1_9allocatorINS1_4pairIKS4_S9_EEEEEENS1_8multimapIS9_S4_NSA_IS9_EENSC_INSD_IKS9_S4_EEEEEEE4FindERSK_
tWi:_Utils_EaseFromTo_m4079781092
kxb:__ZN24GenerateTypeTreeTransfer21TransferResourceImageE19ActiveResourceImagePKcR13StreamingInfoPvjiPKN5Unity4TypeE
D1c:__Z28Material_CUSTOM_GetFloatImplP12Il2CppObjecti
qqd:__ZN13InitialModule18GenerateProceduralERK27ParticleSystemReadOnlyStateR23ParticleSystemParticlesRK10Matrix4x4fRK8Vector3fRK24ParticleSystemEmitReplayRj
Bzd:__ZN11ColorModule8TransferI19StreamedBinaryWriteILb0EEEEvRT_
Vyf:__ZN5physx6shdfnd8PoolBaseINS_24NpPtrTableStorageManager8PtrBlockILi16EEENS0_19ReflectionAllocatorIS4_EEED2Ev
CLq:__ZN6il2cpp6icalls8mscorlib6System9Threading5Mutex20CreateMutex_internalEbP12Il2CppStringPb
Mar:_emscripten_glLinkProgram__wrapper
Eek:_InternalEnumerator_1_get_Current_m2128158355_gshared
rMl:_Coroutine_Finalize_m1957108547
WEp:_KeyBuilder_Key_m2503211157
FRq:__ZNSt3__28ios_baseD2Ev
nqb:__ZNSt3__212__deque_baseI18ReflectionProbeJobNS_9allocatorIS1_EEED2Ev
hV:__ZN11UnityEngine9Animation27DestroyAnimationSetBindingsEPNS0_20AnimationSetBindingsERN7mecanim6memory9AllocatorE
ZKa:__ZN15dense_hashtableINSt3__24pairIKiN4core17string_with_labelILi1EEEEEi18SInt32HashFunctionN14dense_hash_mapIiS5_S7_NS0_8equal_toIiEE13stl_allocatorIS6_L18MemLabelIdentifier1ELi16EEE9SelectKeyESA_SD_E13set_empty_keyERKS6_
iwe:__ZN5physx2Sc9ShapeCore23setSimulationFilterDataERKNS_12PxFilterDataE
gfn:_GenericEqualityComparer_1_Equals_m1705889345_gshared
BMg:_ProCamera2D_LateUpdate_m1208829141
k$:__ZN8Animator12CleanupClassEv
$md:__Z13TransferFieldI8JSONReadLb0E27Converter_SimpleNativeClassI10RectOffsetEEvRK23StaticTransferFieldInfoR31RuntimeSerializationCommandInfoRT1_
sZm:_Enumerator_System_Collections_IDictionaryEnumerator_get_Entry_m670766806_gshared
hx:__ZN19NavMeshBuildManagerD0Ev
dyf:__ZN5physx7profile12MemoryBufferINS0_21WrapperNamedAllocatorEE5writeIyEEvRKT_
qEn:_ReadOnlyCollection_1_System_Collections_IList_Insert_m2797533731_gshared
lhj:_ColorBlock_get_fadeDuration_m121071467
Wjl:_NameObjectCollectionBase_GetEnumerator_m3677320185
Rcd:__ZNK8GUIStyle4DrawER8GUIStateRK5RectTIfER10GUIContentib
src:__Z24CalculateSpotLightBoundsffRK10Matrix4x4fR15SpotLightBounds
y7n:_Dictionary_2_TryGetValue_m3495031886_gshared
gia:__ZN23CloudWebServicesManager23VirtualRedirectTransferER14SafeBinaryRead
yul:_PKCS12_AddCertificate_m3857004455
wtd:__ZNK11NoiseModule14CalculateNoiseILi3ELb1ELb0EEEvR23ParticleSystemParticlesRK27ParticleSystemReadOnlyStatejjRKN4math7_float4E
$Ej:_WellKnownClientTypeEntry_ToString_m1119458503
Gac:__Z19ShouldTransferFieldR32SerializationCommandQueueBuilder17ScriptingClassPtriR18TransferField_InfoRK20CoreScriptingClasses
Mch:__Z103RuntimeInvoker_Int32_t2950945753_Vector3_t3722313464_Single_t1397266774_RuntimeObject_Int32_t2950945753PFvvEPK10MethodInfoPvPS4_
mz:__Z16CarveNavMeshTilePPhPiPKhiPK17NavMeshCarveShapeifffRK8Vector3fRK11Quaternionf
Vel:_FloatingObject3D_AddForceAtPosition_m2831899541
Lin:_LinkedList_1_VerifyReferencedNode_m3460801984_gshared
Ojk:_InternalEnumerator_1_get_Current_m4221658127_gshared
kom:_SecurityElement_IsValidText_m1346599242
y8a:__ZN26SinglePassStereoSupportExt21SetStereoMatrixCommonE21MonoOrStereoscopicEye24BuiltinShaderMatrixParamRK10Matrix4x4f
x7:__ZN5audio5mixer22UpdateAudioMixerMemoryERKNS0_18AudioMixerConstantERNS0_16AudioMixerMemoryEfPN4FMOD6SystemEf
dFf:__ZL21InitializeCachedStripPv
Crq:__ZN6il2cpp6icalls8mscorlib6System9Threading6Thread23GetCachedCurrentCultureEP12Il2CppThread
_zd:__ZN25IParticleSystemProperties8PropertyI8Vector3fNS_3MinILi0EEEE8TransferI19StreamedBinaryWriteILb0EEEEvRT_PKc
Uoa:__ZNK6Camera22GetWorldToCameraMatrixEv
Y$q:runPostSets
ezq:__ZN6il2cpp2vm12GenericClass11IsValueTypeEP18Il2CppGenericClass
B9b:__ZN13MonoBehaviour7SetNameEPKc
pYj:_Math_Acos_m2076003797
dBj:_MethodDictionary_IsOverridenKey_m946843558
B$e:__ZN5physx6shdfnd8PoolBaseINS_2Sc26ActorPairContactReportDataENS0_19ReflectionAllocatorIS3_EEE15disposeElementsEv
XDp:_U3CStartU3Ec__Iterator0_MoveNext_m4270440387_gshared
y5p:__ZN10KeyWrapperIN6il2cpp5utils13dynamic_arrayIPK10Il2CppTypeLj4EEEEC2ERKS7_
wec:__ZN17InstancingBatcher22FindCBUpperBoundKonstsEv
JAa:__GLOBAL__sub_I_runtime_shaders_shaderimpl_0_cpp
WYl:_PlayableHandle_SetDuration_Injected_m425350278
AOb:__ZN18AwakeFromLoadQueue5ClearEv
R8a:__Z24ReleaseBufferManagerGLESv
zkf:__ZN5physx6shdfnd5ArrayIfNS0_19ReflectionAllocatorIfEEE8recreateEj
Vpc:__ZNSt3__27__sort5IR15ReflProbeSorterPP15ReflectionProbeEEjT0_S6_S6_S6_S6_T_
gHa:__ZN8Playable10DisconnectEPS_i
zcd:__Z65Register_UnityEngine_Playables_PlayableDirector_GetGenericBindingv
Km:_glGenTransformFeedbacks
Ocb:__ZN13LoadOperationD2Ev
Qqf:__ZNK11BoxCollider22GetTypeVirtualInternalEv
g4e:__ZN5physx20PxsSolverCoreGeneral6createEv
YCd:__ZN29TriggerModulePropertyBindings13AddPropertiesER10vector_mapIi22ParticleModulePropertyNSt3__24lessIiEENS2_9allocatorINS2_4pairIiS1_EEEEE
Xvl:_AttrListImpl_GetValue_m3657391095
w3i:_EnvMapAnimator_Start_m2826563342
f0n:_Array_InternalArray__ICollection_CopyTo_TisSpriteData_t3048397587_m2502737758_gshared
Nhe:__ZL29GeomOverlapCallback_SphereBoxRKN5physx10PxGeometryERKNS_11PxTransformES2_S5_PNS_2Gu12TriggerCacheE
m2c:__Z48Register_UnityEngine_Material_set_shaderKeywordsv
F1o:_List_1_CheckIndex_m3933537097_gshared
Usm:_ASCIIEncoding_GetBytes_m2264249800
Nvb:__ZNSt3__27__sort5IRPFbRKNS_4pairIN9ShaderLab16FastPropertyNameEN18UnityPropertySheet11UnityTexEnvEEES8_EPS6_EEjT0_SD_SD_SD_SD_T_
Mtf:__ZN9Rigidbody6WakeUpEv
OXa:__ZNK7ApiGLES18GetExtensionStringEv
E8q:_emscripten_glVertexAttrib1f__wrapper
GWl:_FrameData_get_seekOccurred_m4153690914_AdjustorThunk
GSb:__ZNK12HandlerChain4SizeERK13FileEntryData
dt:FUNCTION_TABLE_iiiiiiiii
YDe:__ZN5physx7NpCloth15setInertiaScaleEf
XFn:_ReadOnlyCollection_1_System_Collections_Generic_ICollectionU3CTU3E_Remove_m4177779688_gshared
TKd:__Z22GetPhysicsGroundBody2Dv
yCl:_Char_IsLetter_m3996985877
nuo:_Queue_1_Peek_m2302800625_gshared
XCh:__ZL51Delegate_t1188392813_CustomAttributesCacheGeneratorP21CustomAttributesCache
D2f:__ZN11UnityEngine7Connect17DeviceStatusEventD2Ev
Mnf:__ZN5physx6shdfnd4sortIPvNS0_4LessIS2_EENS0_19ReflectionAllocatorIN17PxcPoolMallocData10PoolData16EEEEEvPT_jRKT0_RKT1_j
L3d:__Z19sweepBox_SphereGeomRKN5physx10PxGeometryERKNS_11PxTransformERKNS_2Gu3BoxERKNS_6PxVec3EfRNS_10PxSweepHitENS_7PxFlagsINS_9PxHitFlag4EnumEtEEf
qxg:_U3CStartU3Ec__Iterator0_Reset_m816692654
uGq:_GC_allochblk
KOb:__Z15UnloadGameScenev
w0n:_Array_InternalArray__ICollection_CopyTo_TisKeyframe_t4206410242_m2132255743_gshared
UZl:_PlayableOutputHandle_GetSourceInputPort_Injected_m3880681600
Mdr:_glCheckFramebufferStatus__wrapper
Flf:__ZNK5physx13GuMeshFactory15getHeightFieldsEPPNS_13PxHeightFieldEjj
GNb:__ZNSt3__26vectorIN30RuntimeInitializeOnLoadManager15ClassMethodInfoE13stl_allocatorIS2_L18MemLabelIdentifier13ELi16EEE7reserveEj
y5n:_Dictionary_2_System_Collections_ICollection_CopyTo_m3143696177_gshared
Jw:__ZN22NavMeshProjectSettings8TransferI24GenerateTypeTreeTransferEEvRT_
Eeo:_EqualityComparer_1__cctor_m2375305537_gshared
Psf:__ZN15CapsuleCollider9SetRadiusEf
lgq:__ZN15dense_hashtableINSt3__24pairIK10KeyWrapperIPK10Il2CppTypeEjEES6_N6il2cpp8metadata14Il2CppTypeHashEN14dense_hash_mapIS6_jSB_NS6_14EqualsComparerINSA_26Il2CppTypeEqualityComparerEEENS0_9allocatorIS8_EEE9SelectKeyESF_SH_E3endEv
IVg:__Z103RuntimeInvoker_Void_t1185182177_Int32_t2950945753_Int32_t2950945753_Int32_t2950945753_SByte_t1669577662PFvvEPK10MethodInfoPvPS4_
B7i:_TextContainer_set_height_m4093618744
SQe:__ZN5physx2Cm20visualizeJointFramesERNS0_12RenderOutputEfRKNS_11PxTransformES5_
Mop:_SliderHandler_ThumbSize_m1690130243
k0n:_Array_InternalArray__ICollection_CopyTo_TisTMP_LineInfo_t1079631636_m2949192725_gshared
q9e:__ZN5physx22PxcContactPlaneCapsuleERKNS_2Gu13GeometryUnionES3_RKNS_11PxTransformES6_RKfRNS_10PxcNpCacheERNS0_13ContactBufferE
z6c:__Z36Renderer_Get_Custom_PropSortingOrderP12Il2CppObject
X1l:_Renderer_get_enabled_m3482452518
qgq:__ZNK15dense_hashtableINSt3__24pairIK10KeyWrapperIPK10Il2CppTypeEjEES6_N6il2cpp8metadata14Il2CppTypeHashEN14dense_hash_mapIS6_jSB_NS6_14EqualsComparerINSA_26Il2CppTypeEqualityComparerEEENS0_9allocatorIS8_EEE9SelectKeyESF_SH_E13find_positionERS7_
esb:__ZN7Texture5ResetEv
Iuj:_DESTransform_BSwap_m2723001589
qPd:__ZNK14b2CapsuleShape7RayCastEP15b2RayCastOutputRK14b2RayCastInputRK11b2Transformi
aVj:_Context_get_HasDynamicSinks_m3952434387
uKm:_Latin1Encoding_GetByteCount_m1145650505
v$b:__Z18Transfer_BlittableI24GenerateTypeTreeTransferLb1EhEvRK29SerializationCommandArgumentsR31RuntimeSerializationCommandInfo
p6b:__Z13TransferFieldI18StreamedBinaryReadILb1EELb0E16Converter_StringEvRK23StaticTransferFieldInfoR31RuntimeSerializationCommandInfoRT1_
pae:__ZN5physx3Cct17CapsuleController9setRadiusEf
_rg:_U3CIcebreakU3Ec__Iterator0_MoveNext_m5481221
XUc:__ZNK16TypeTreeIterator10ByteOffsetEv
Nrq:__ZN6il2cpp6icalls8mscorlib6System2IO6MonoIO5CloseEiPi
N1q:dynCall_iiifii
cGa:__ZnwjRKSt9nothrow_t
rY:__ZN8Animator11ClearObjectEv
RRn:_Nullable_1_GetHashCode_m4232053575_gshared
evf:__ZN9Rigidbody17MainThreadCleanupEv
Twl:_ApplicationException__ctor_m2557611022
Gub:__ZN14SafeBinaryRead19TransferSTLStyleMapINSt3__23mapI39DeprecatedFastPropertyNameSerializationN18UnityPropertySheet11UnityTexEnvENS1_4lessIS3_EENS1_9allocatorINS1_4pairIKS3_S5_EEEEEEEEvRT_17TransferMetaFlags
Xah:__Z108RuntimeInvoker_Boolean_t97287965_Rect_t2360479859_Int32_t2950945753_SByte_t1669577662_RuntimeObject_IntPtr_tPFvvEPK10MethodInfoPvPS4_
zSq:__ZNKSt3__27collateIwE7do_hashEPKwS3_
z_o:_List_1_CheckMatch_m579516778_gshared
LAl:_Buffer_ByteLengthInternal_m1388208719
KAe:__ZN5physx9NpPhysics26unregisterDeletionListenerERNS_18PxDeletionListenerE
RUc:__Z35UnregisterSerializationCacheBuilderPFv17ScriptingClassPtrR23CachedSerializationDataRbE
uTn:_Predicate_1_Invoke_m313563199_gshared
nij:_CanvasUpdateRegistry_InternalUnRegisterCanvasElementForGraphicRebuild_m1305837035
Wcm:_Int64_System_IConvertible_ToUInt32_m109903525_AdjustorThunk
zig:_U3CCaretBlinkU3Ec__Iterator0_Reset_m3430971562
Lwa:__Z30GetBuiltinVectorParamArraySize24BuiltinShaderVectorParam
yDm:_DateTimeOffset_System_Runtime_Serialization_ISerializable_GetObjectData_m738492442_AdjustorThunk
yIn:_ReadOnlyCollection_1_System_Collections_IEnumerable_GetEnumerator_m4241677400_gshared
I1g:__Z74RuntimeInvoker_RuntimeObject_RuntimeObject_Int64_t3736567304_RuntimeObjectPFvvEPK10MethodInfoPvPS4_
Zrb:__ZN13RenderTextureC2E10MemLabelId18ObjectCreationMode
$am:_Int32_GetFormatException_m519586683
sQh:__ZL46StringBuilder_t_CustomAttributesCacheGeneratorP21CustomAttributesCache
Ijn:_Enumerator_MoveNext_m1131351993_gshared
sel:_FloatingObject2D_AddTorque_m2357169922
Ggm:_FileStream_set_Position_m196127886
nVj:_Context_CreateNewContext_m3053563976
ZCk:_Array_InternalArray__get_Item_TisVector2_t2156229523_m2502961026_gshared
jza:__ZN21RendererUpdateManager11AddRendererER8Renderer
VCc:__Z13RegisterClassI15ResourceManagerEvv
mte:__ZNK5physx18NpArticulationLink15getArticulationEv
_Hp:_AudioConfigurationChangeHandler_Invoke_m1233557945
mWb:__Z35Transfer_Blittable_FixedBufferFieldI14SafeBinaryReadsEvRK29SerializationCommandArgumentsR31RuntimeSerializationCommandInfo
iFb:__ZN14SafeBinaryRead21TransferSTLStyleArrayI13dynamic_arrayIfLj4EEEEvRT_17TransferMetaFlags
Jwm:_Convert_ToDateTime_m3802186295
FDq:__ZN6il2cpp5utils11StringUtils11Utf16ToUtf8EPKDs
jNb:__ZN18StreamedBinaryReadILb0EE21TransferSTLStyleArrayINSt3__26vectorIN15ResourceManager10DependencyE13stl_allocatorIS5_L18MemLabelIdentifier52ELi16EEEEEEvRT_17TransferMetaFlags
XUm:_UInt64_CompareTo_m1614517204_AdjustorThunk
hEg:_Clipper_PolyTreeToPaths_m3668819023
J3c:__Z45Register_UnityEngine_RenderTexture_set_activev
ahc:__ZZ23InitPlayerLoopCallbacksvEN52PreLateUpdateScriptRunBehaviourLateUpdateRegistrator7ForwardEv
MXl:_PlayableGraph_IsPlaying_Injected_m686504047
Gyp:_Water2D_Tool_RecreateWaterMesh_m564141354
nrc:__Z33IntersectAABBPlaneBoundsOptimizedRK4AABBPKN4math7_float4Ei
pNd:__ZN12HingeJoint2DD2Ev
R7l:_DateTimeFormatInfo_FillAllDateTimePatterns_m2683124783
MSa:__ZN9GfxDevice19EndGeometryJobFrameEv
gpp:_GUILayoutUtility_Layout_m1159951704
o_k:_InputField_get_shouldActivateOnSelect_m3055465770
qmq:_il2cpp_class_get_methods
p$b:__ZN27Converter_SimpleNativeClassI17AnimationCurveTplIfEE17ScriptingToNativeER18ScriptingObjectPtrPS1_
see:__ZThn12_N5physx3Ext5JointINS_15PxDistanceJointENS_30PxDistanceJointGeneratedValuesEE11prepareDataEv
RQm:_Type__cctor_m2371893800
Pte:__ZN5physx2Sc15CoreInteraction17isCoreInteractionEPNS0_11InteractionE
nMq:__ZN6il2cpp8metadata24Il2CppGenericInstCompare7CompareERK10KeyWrapperIPK17Il2CppGenericInstES8_
Yxf:__ZThn132_N5physx7profile8ZoneImplINS_28PxProfileNameProviderForwardEED0Ev
X_d:__ZN5physx3Cct13BoxController17setHalfSideExtentEf
Mcj:_ExecuteEvents_Execute_m3049310229
aP:__ZN27AnimationLayerMixerPlayable21UpdateLayerParametersEv
ydo:_EqualityComparer_1__cctor_m3376475029_gshared
UVc:__Z33Camera_Set_Custom_PropFieldOfViewP12Il2CppObjectf
fwd:__ZN21InheritVelocityModule8TransferI14SafeBinaryReadEEvRT_
yDn:_ReadOnlyCollection_1_System_Collections_Generic_IListU3CTU3E_Insert_m276044716_gshared
Qyc:__ZNK17AnimationCurveTplIfE8EvaluateEfPNS0_5CacheE
egc:__Z31ManagerContextInitializeClassesv
eGn:_ReadOnlyCollection_1_System_Collections_IList_Contains_m2650112051_gshared
kCm:_DateTime_System_IConvertible_ToUInt64_m2275741153
sNf:_UNITY_FT_List_Finalize
Q8i:_TextMeshPro_SetOutlineColor_m1302227774
glc:__Z20LightAttenuateApproxRKfS0_
aAa:__ZN9Scripting30SetCachedPtrOnScriptingWrapperE18ScriptingObjectPtrP6Object
iIl:_AnimationCurve_get_Item_m4209227769
G1q:dynCall_iiiiiid
EHm:_Double_ToString_m1229922074_AdjustorThunk
bar:b124
IMd:__ZN16b2PrismaticJoint4DumpEv
xqj:_ObjectRecord_ChainFixup_m1889316362
SG:__ZN7mecanim9animation21BlendTreeNodeConstant8TransferI19StreamedBinaryWriteILb0EEEEvRT_
Elb:__ZN18BlockRangeInternal16PopLastNodeIndexEP10BlockRangeji
_Eq:__ZN6il2cpp2vm13CachedCCWBaseINS0_13ManagedObjectEE6AddRefEv
yEe:__ZN5physx7NpCloth19setCollisionSpheresEPKNS_22PxClothCollisionSphereEj
EEb:__ZN4MeshD0Ev
wbg:__ZL42RequestRecreateEyeTexturesBeforeNextUpdatev
Eop:_SliderHandler_PageUpMovementBound_m3637566765
f_m:_Enumerator_VerifyCurrent_m318822266_AdjustorThunk
s5a:__ZNK6Camera20IsCurrentlyRenderingEv
PQ:__ZN21AnimationClipPlayable23ProcessRootMotionNoClipEPK35AnimationPlayableEvaluationConstantPK32AnimationPlayableEvaluationInputP33AnimationPlayableEvaluationOutput
j_f:__Z36CanvasRenderer_CUSTOM_SetPopMaterialP12Il2CppObjectS0_i
bzg:_U3CDisplayTextMeshProFloatingTextU3Ec__Iterator0_Reset_m4082400674
Cjd:__Z18Transfer_BlittableI9JSONWriteLb0EdEvRK29SerializationCommandArgumentsR31RuntimeSerializationCommandInfo
UJf:_otv_u_O_O_u_O_O
dMd:__ZNK11b2GearJoint16GetReactionForceEf
mTk:_Array_InternalArray__ICollection_Remove_TisIntPoint_t2151561958_m1902839708_gshared
$Dm:_DBNull_System_IConvertible_ToSByte_m3533624679
YRl:_Material_set_color_m1794818007
OF:__ZN15SerializeTraitsI9OffsetPtrIN7mecanim9animation17BlendTreeConstantEEE8TransferI24GenerateTypeTreeTransferEEvRS4_RT_
JOq:_wctomb
Yaj:_BaseInput_GetMouseButtonDown_m1318884233
Dck:_InternalEnumerator_1_System_Collections_IEnumerator_get_Current_m3575233890_AdjustorThunk
lhh:__Z67RuntimeInvoker_Void_t1185182177_Int32_t2950945753_Double_t594665363PFvvEPK10MethodInfoPvPS4_
EPm:_TimeSpan__ctor_m3689759052
KWc:__Z27Camera_CUSTOM_GetAllCamerasP11Il2CppArray
$Cn:_ReadOnlyCollection_1_System_Collections_IEnumerable_GetEnumerator_m471575929_gshared
Vyd:__ZN11ForceModule8TransferI18StreamedBinaryReadILb0EEEEvRT_
Le:___cxa_rethrow
Amf:__ZN5physx20InternalTriangleMesh17allocateFaceRemapEv
zPj:_ParameterInfo_GetCustomAttributes_m2376494592
fld:__Z18Transfer_BlittableI8JSONReadLb1EhEvRK29SerializationCommandArgumentsR31RuntimeSerializationCommandInfo
Umj:_Graphic_get_canvasRenderer_m315509948
H$c:__Z51Register_UnityEngine_Quaternion_INTERNAL_CALL_Slerpv
hGl:__ZN18VirtActionInvoker2IiP12Il2CppObjectE6InvokeEjS1_iS1_
qRd:__ZN18Overlap2DQueryBase13ReportFixtureEP9b2Fixture
e7l:_CultureInfo_construct_internal_locale_from_name_m3254739477
BNk:_RSASslSignatureDeformatter_VerifySignature_m1061897602
huc:__ZN13MonoBehaviour8SetClassE17ScriptingClassPtr18ScriptingObjectPtr
fUe:__ZNK5physx7NpScene26getBounceThresholdVelocityEv
EBm:_DateTime__ctor_m2956360140_AdjustorThunk
F_e:__ZN5physx6shdfnd8PoolBaseINS_2Sc12SimStateDataENS0_19ReflectionAllocatorIS3_EEE15disposeElementsEv
A1n:_Array_InternalArray__Insert_TisLabelFixup_t858502054_m171542753_gshared
nqk:_InternalEnumerator_1_System_Collections_IEnumerator_get_Current_m3539708496_AdjustorThunk
uTb:__ZN20LocalFileSystemPosix4ReadER13FileEntryDatayyPvPy
Eoc:__ZNSt3__211__sift_downIRN23ForwardShaderRenderLoop18RenderObjectSorterILb0EEEP21ForwardRenderPassDataEEvT0_S7_T_NS_15iterator_traitsIS7_E15difference_typeES7_
Wmm:_SecurityPermission__ctor_m1462427327
n4q:dynCall_iiiiiiffiiiiiiiiiffffiiii
R9b:__ZN13MonoBehaviour5DoGUIENS_13GUILayoutTypeEii
ALo:_Collection_1_ConvertItem_m421782597_gshared
ATj:_ChannelData_get_ClientProviders_m594662942
qpn:_List_1_set_Capacity_m4022955004_gshared
nap:_QuickSearch_GetChar_m1297698557
Ebb:__ZNK12TLSAllocatorI14StackAllocatorE8ContainsEPKv
JKb:__ZN11TimeManager8TransferI18StreamedBinaryReadILb0EEEEvRT_
rmf:__ZNK5physx13GuMeshFactory19getNbTriangleMeshesEv
WRg:__Z68RuntimeInvoker_Boolean_t97287965_Int16_t2552820387_SByte_t1669577662PFvvEPK10MethodInfoPvPS4_
Wwm:_DateTime__ParseEnum_m253019513
hpg:_TMP_Text_get_useMaxVisibleDescender_m3082734584
Bhg:_TMP_InputField_MoveDown_m4077361227
C$p:_EmissionModule_set_enabled_m353945573_AdjustorThunk
KAm:_Convert_ToUInt32_m2194577773
REb:__ZN14BlendShapeData8TransferI14SafeBinaryReadEEvRT_
